ARM GAS  /var/folders/0d/2ntwfkp1791d52chq7d_xwdm0000gn/T//ccwQndaS.s 			page 1


   1              		.cpu cortex-m7
   2              		.eabi_attribute 28, 1
   3              		.eabi_attribute 20, 1
   4              		.eabi_attribute 21, 1
   5              		.eabi_attribute 23, 3
   6              		.eabi_attribute 24, 1
   7              		.eabi_attribute 25, 1
   8              		.eabi_attribute 26, 1
   9              		.eabi_attribute 30, 2
  10              		.eabi_attribute 34, 1
  11              		.eabi_attribute 18, 4
  12              		.file	"ccsbcs.c"
  13              		.text
  14              	.Ltext0:
  15              		.cfi_sections	.debug_frame
  16              		.section	.text.ff_convert,"ax",%progbits
  17              		.align	1
  18              		.p2align 2,,3
  19              		.global	ff_convert
  20              		.arch armv7e-m
  21              		.syntax unified
  22              		.thumb
  23              		.thumb_func
  24              		.fpu fpv5-d16
  26              	ff_convert:
  27              	.LVL0:
  28              	.LFB320:
  29              		.file 1 "../libdaisy/Middlewares/Third_Party/FatFs/src/option/ccsbcs.c"
   1:../libdaisy/Middlewares/Third_Party/FatFs/src/option/ccsbcs.c **** /*------------------------------------------------------------------------*/
   2:../libdaisy/Middlewares/Third_Party/FatFs/src/option/ccsbcs.c **** /* Unicode - Local code bidirectional converter  (C)ChaN, 2015            */
   3:../libdaisy/Middlewares/Third_Party/FatFs/src/option/ccsbcs.c **** /* (SBCS code pages)                                                      */
   4:../libdaisy/Middlewares/Third_Party/FatFs/src/option/ccsbcs.c **** /*------------------------------------------------------------------------*/
   5:../libdaisy/Middlewares/Third_Party/FatFs/src/option/ccsbcs.c **** /*  437   U.S.
   6:../libdaisy/Middlewares/Third_Party/FatFs/src/option/ccsbcs.c **** /   720   Arabic
   7:../libdaisy/Middlewares/Third_Party/FatFs/src/option/ccsbcs.c **** /   737   Greek
   8:../libdaisy/Middlewares/Third_Party/FatFs/src/option/ccsbcs.c **** /   771   KBL
   9:../libdaisy/Middlewares/Third_Party/FatFs/src/option/ccsbcs.c **** /   775   Baltic
  10:../libdaisy/Middlewares/Third_Party/FatFs/src/option/ccsbcs.c **** /   850   Latin 1
  11:../libdaisy/Middlewares/Third_Party/FatFs/src/option/ccsbcs.c **** /   852   Latin 2
  12:../libdaisy/Middlewares/Third_Party/FatFs/src/option/ccsbcs.c **** /   855   Cyrillic
  13:../libdaisy/Middlewares/Third_Party/FatFs/src/option/ccsbcs.c **** /   857   Turkish
  14:../libdaisy/Middlewares/Third_Party/FatFs/src/option/ccsbcs.c **** /   860   Portuguese
  15:../libdaisy/Middlewares/Third_Party/FatFs/src/option/ccsbcs.c **** /   861   Icelandic
  16:../libdaisy/Middlewares/Third_Party/FatFs/src/option/ccsbcs.c **** /   862   Hebrew
  17:../libdaisy/Middlewares/Third_Party/FatFs/src/option/ccsbcs.c **** /   863   Canadian French
  18:../libdaisy/Middlewares/Third_Party/FatFs/src/option/ccsbcs.c **** /   864   Arabic
  19:../libdaisy/Middlewares/Third_Party/FatFs/src/option/ccsbcs.c **** /   865   Nordic
  20:../libdaisy/Middlewares/Third_Party/FatFs/src/option/ccsbcs.c **** /   866   Russian
  21:../libdaisy/Middlewares/Third_Party/FatFs/src/option/ccsbcs.c **** /   869   Greek 2
  22:../libdaisy/Middlewares/Third_Party/FatFs/src/option/ccsbcs.c **** */
  23:../libdaisy/Middlewares/Third_Party/FatFs/src/option/ccsbcs.c **** 
  24:../libdaisy/Middlewares/Third_Party/FatFs/src/option/ccsbcs.c **** #include "../ff.h"
  25:../libdaisy/Middlewares/Third_Party/FatFs/src/option/ccsbcs.c **** 
  26:../libdaisy/Middlewares/Third_Party/FatFs/src/option/ccsbcs.c **** 
  27:../libdaisy/Middlewares/Third_Party/FatFs/src/option/ccsbcs.c **** #if _CODE_PAGE == 437
  28:../libdaisy/Middlewares/Third_Party/FatFs/src/option/ccsbcs.c **** #define _TBLDEF 1
  29:../libdaisy/Middlewares/Third_Party/FatFs/src/option/ccsbcs.c **** static
ARM GAS  /var/folders/0d/2ntwfkp1791d52chq7d_xwdm0000gn/T//ccwQndaS.s 			page 2


  30:../libdaisy/Middlewares/Third_Party/FatFs/src/option/ccsbcs.c **** const WCHAR Tbl[] = {	/*  CP437(0x80-0xFF) to Unicode conversion table */
  31:../libdaisy/Middlewares/Third_Party/FatFs/src/option/ccsbcs.c **** 	0x00C7, 0x00FC, 0x00E9, 0x00E2, 0x00E4, 0x00E0, 0x00E5, 0x00E7, 0x00EA, 0x00EB, 0x00E8, 0x00EF, 0x
  32:../libdaisy/Middlewares/Third_Party/FatFs/src/option/ccsbcs.c **** 	0x00C9, 0x00E6, 0x00C6, 0x00F4, 0x00F6, 0x00F2, 0x00FB, 0x00F9, 0x00FF, 0x00D6, 0x00DC, 0x00A2, 0x
  33:../libdaisy/Middlewares/Third_Party/FatFs/src/option/ccsbcs.c **** 	0x00E1, 0x00ED, 0x00F3, 0x00FA, 0x00F1, 0x00D1, 0x00AA, 0x00BA, 0x00BF, 0x2310, 0x00AC, 0x00BD, 0x
  34:../libdaisy/Middlewares/Third_Party/FatFs/src/option/ccsbcs.c **** 	0x2591, 0x2592, 0x2593, 0x2502, 0x2524, 0x2561, 0x2562, 0x2556, 0x2555, 0x2563, 0x2551, 0x2557, 0x
  35:../libdaisy/Middlewares/Third_Party/FatFs/src/option/ccsbcs.c **** 	0x2514, 0x2534, 0x252C, 0x251C, 0x2500, 0x253C, 0x255E, 0x255F, 0x255A, 0x2554, 0x2569, 0x2566, 0x
  36:../libdaisy/Middlewares/Third_Party/FatFs/src/option/ccsbcs.c **** 	0x2568, 0x2564, 0x2565, 0x2559, 0x2558, 0x2552, 0x2553, 0x256B, 0x256A, 0x2518, 0x250C, 0x2588, 0x
  37:../libdaisy/Middlewares/Third_Party/FatFs/src/option/ccsbcs.c **** 	0x03B1, 0x00DF, 0x0393, 0x03C0, 0x03A3, 0x03C3, 0x00B5, 0x03C4, 0x03A6, 0x0398, 0x03A9, 0x03B4, 0x
  38:../libdaisy/Middlewares/Third_Party/FatFs/src/option/ccsbcs.c **** 	0x2261, 0x00B1, 0x2265, 0x2264, 0x2320, 0x2321, 0x00F7, 0x2248, 0x00B0, 0x2219, 0x00B7, 0x221A, 0x
  39:../libdaisy/Middlewares/Third_Party/FatFs/src/option/ccsbcs.c **** };
  40:../libdaisy/Middlewares/Third_Party/FatFs/src/option/ccsbcs.c **** 
  41:../libdaisy/Middlewares/Third_Party/FatFs/src/option/ccsbcs.c **** #elif _CODE_PAGE == 720
  42:../libdaisy/Middlewares/Third_Party/FatFs/src/option/ccsbcs.c **** #define _TBLDEF 1
  43:../libdaisy/Middlewares/Third_Party/FatFs/src/option/ccsbcs.c **** static
  44:../libdaisy/Middlewares/Third_Party/FatFs/src/option/ccsbcs.c **** const WCHAR Tbl[] = {	/*  CP720(0x80-0xFF) to Unicode conversion table */
  45:../libdaisy/Middlewares/Third_Party/FatFs/src/option/ccsbcs.c **** 	0x0000, 0x0000, 0x00E9, 0x00E2, 0x0000, 0x00E0, 0x0000, 0x00E7, 0x00EA, 0x00EB, 0x00E8, 0x00EF, 0x
  46:../libdaisy/Middlewares/Third_Party/FatFs/src/option/ccsbcs.c **** 	0x0000, 0x0651, 0x0652, 0x00F4, 0x00A4, 0x0640, 0x00FB, 0x00F9, 0x0621, 0x0622, 0x0623, 0x0624, 0x
  47:../libdaisy/Middlewares/Third_Party/FatFs/src/option/ccsbcs.c **** 	0x0628, 0x0629, 0x062A, 0x062B, 0x062C, 0x062D, 0x062E, 0x062F, 0x0630, 0x0631, 0x0632, 0x0633, 0x
  48:../libdaisy/Middlewares/Third_Party/FatFs/src/option/ccsbcs.c **** 	0x2591, 0x2592, 0x2593, 0x2502, 0x2524, 0x2561, 0x2562, 0x2556, 0x2555, 0x2563, 0x2551, 0x2557, 0x
  49:../libdaisy/Middlewares/Third_Party/FatFs/src/option/ccsbcs.c **** 	0x2514, 0x2534, 0x252C, 0x251C, 0x2500, 0x253C, 0x255E, 0x255F, 0x255A, 0x2554, 0x2569, 0x2566, 0x
  50:../libdaisy/Middlewares/Third_Party/FatFs/src/option/ccsbcs.c **** 	0x2568, 0x2564, 0x2565, 0x2559, 0x2558, 0x2552, 0x2553, 0x256B, 0x256A, 0x2518, 0x250C, 0x2588, 0x
  51:../libdaisy/Middlewares/Third_Party/FatFs/src/option/ccsbcs.c **** 	0x0636, 0x0637, 0x0638, 0x0639, 0x063A, 0x0641, 0x00B5, 0x0642, 0x0643, 0x0644, 0x0645, 0x0646, 0x
  52:../libdaisy/Middlewares/Third_Party/FatFs/src/option/ccsbcs.c **** 	0x2261, 0x064B, 0x064C, 0x064D, 0x064E, 0x064F, 0x0650, 0x2248, 0x00B0, 0x2219, 0x00B7, 0x221A, 0x
  53:../libdaisy/Middlewares/Third_Party/FatFs/src/option/ccsbcs.c **** };
  54:../libdaisy/Middlewares/Third_Party/FatFs/src/option/ccsbcs.c **** 
  55:../libdaisy/Middlewares/Third_Party/FatFs/src/option/ccsbcs.c **** #elif _CODE_PAGE == 737
  56:../libdaisy/Middlewares/Third_Party/FatFs/src/option/ccsbcs.c **** #define _TBLDEF 1
  57:../libdaisy/Middlewares/Third_Party/FatFs/src/option/ccsbcs.c **** static
  58:../libdaisy/Middlewares/Third_Party/FatFs/src/option/ccsbcs.c **** const WCHAR Tbl[] = {	/*  CP737(0x80-0xFF) to Unicode conversion table */
  59:../libdaisy/Middlewares/Third_Party/FatFs/src/option/ccsbcs.c **** 	0x0391, 0x0392, 0x0393, 0x0394, 0x0395, 0x0396, 0x0397, 0x0398, 0x0399, 0x039A, 0x039B, 0x039C, 0x
  60:../libdaisy/Middlewares/Third_Party/FatFs/src/option/ccsbcs.c **** 	0x03A1, 0x03A3, 0x03A4, 0x03A5, 0x03A6, 0x03A7, 0x03A8, 0x03A9, 0x03B1, 0x03B2, 0x03B3, 0x03B4, 0x
  61:../libdaisy/Middlewares/Third_Party/FatFs/src/option/ccsbcs.c **** 	0x03B9, 0x03BA, 0x03BB, 0x03BC, 0x03BD, 0x03BE, 0x03BF, 0x03C0, 0x03C1, 0x03C3, 0x03C2, 0x03C4, 0x
  62:../libdaisy/Middlewares/Third_Party/FatFs/src/option/ccsbcs.c **** 	0x2591, 0x2592, 0x2593, 0x2502, 0x2524, 0x2561, 0x2562, 0x2556, 0x2555, 0x2563, 0x2551, 0x2557, 0x
  63:../libdaisy/Middlewares/Third_Party/FatFs/src/option/ccsbcs.c **** 	0x2514, 0x2534, 0x252C, 0x251C, 0x2500, 0x253C, 0x255E, 0x255F, 0x255A, 0x2554, 0x2569, 0x2566, 0x
  64:../libdaisy/Middlewares/Third_Party/FatFs/src/option/ccsbcs.c **** 	0x2568, 0x2564, 0x2565, 0x2559, 0x2558, 0x2552, 0x2553, 0x256B, 0x256A, 0x2518, 0x250C, 0x2588, 0x
  65:../libdaisy/Middlewares/Third_Party/FatFs/src/option/ccsbcs.c **** 	0x03C9, 0x03AC, 0x03AD, 0x03AE, 0x03CA, 0x03AF, 0x03CC, 0x03CD, 0x03CB, 0x03CE, 0x0386, 0x0388, 0x
  66:../libdaisy/Middlewares/Third_Party/FatFs/src/option/ccsbcs.c **** 	0x038F, 0x00B1, 0x2265, 0x2264, 0x03AA, 0x03AB, 0x00F7, 0x2248, 0x00B0, 0x2219, 0x00B7, 0x221A, 0x
  67:../libdaisy/Middlewares/Third_Party/FatFs/src/option/ccsbcs.c **** };
  68:../libdaisy/Middlewares/Third_Party/FatFs/src/option/ccsbcs.c **** 
  69:../libdaisy/Middlewares/Third_Party/FatFs/src/option/ccsbcs.c **** #elif _CODE_PAGE == 771
  70:../libdaisy/Middlewares/Third_Party/FatFs/src/option/ccsbcs.c **** #define _TBLDEF 1
  71:../libdaisy/Middlewares/Third_Party/FatFs/src/option/ccsbcs.c **** static
  72:../libdaisy/Middlewares/Third_Party/FatFs/src/option/ccsbcs.c **** const WCHAR Tbl[] = {	/*  CP771(0x80-0xFF) to Unicode conversion table */
  73:../libdaisy/Middlewares/Third_Party/FatFs/src/option/ccsbcs.c **** 	0x0410, 0x0411, 0x0412, 0x0413, 0x0414, 0x0415, 0x0416, 0x0417, 0x0418, 0x0419, 0x041A, 0x041B, 0x
  74:../libdaisy/Middlewares/Third_Party/FatFs/src/option/ccsbcs.c **** 	0x0420, 0x0421, 0x0422, 0x0423, 0x0424, 0x0425, 0x0426, 0x0427, 0x0428, 0x0429, 0x042A, 0x042B, 0x
  75:../libdaisy/Middlewares/Third_Party/FatFs/src/option/ccsbcs.c **** 	0x0430, 0x0431, 0x0432, 0x0433, 0x0434, 0x0435, 0x0436, 0x0437, 0x0438, 0x0439, 0x043A, 0x043B, 0x
  76:../libdaisy/Middlewares/Third_Party/FatFs/src/option/ccsbcs.c **** 	0x2591, 0x2592, 0x2593, 0x2502, 0x2524, 0x2561, 0x2562, 0x2556, 0x2555, 0x2563, 0x2551, 0x2557, 0x
  77:../libdaisy/Middlewares/Third_Party/FatFs/src/option/ccsbcs.c **** 	0x2514, 0x2534, 0x252C, 0x251C, 0x2500, 0x253C, 0x255E, 0x255F, 0x255A, 0x2554, 0x2569, 0x2566, 0x
  78:../libdaisy/Middlewares/Third_Party/FatFs/src/option/ccsbcs.c **** 	0x2568, 0x2564, 0x2565, 0x2559, 0x2558, 0x2552, 0x2553, 0x256B, 0x256A, 0x2518, 0x250C, 0x2588, 0x
  79:../libdaisy/Middlewares/Third_Party/FatFs/src/option/ccsbcs.c **** 	0x0440, 0x0441, 0x0442, 0x0443, 0x0444, 0x0445, 0x0446, 0x0447, 0x0448, 0x0449, 0x044A, 0x044B, 0x
  80:../libdaisy/Middlewares/Third_Party/FatFs/src/option/ccsbcs.c **** 	0x0118, 0x0119, 0x0116, 0x0117, 0x012E, 0x012F, 0x0160, 0x0161, 0x0172, 0x0173, 0x016A, 0x016B, 0x
  81:../libdaisy/Middlewares/Third_Party/FatFs/src/option/ccsbcs.c **** };
  82:../libdaisy/Middlewares/Third_Party/FatFs/src/option/ccsbcs.c **** 
  83:../libdaisy/Middlewares/Third_Party/FatFs/src/option/ccsbcs.c **** #elif _CODE_PAGE == 775
  84:../libdaisy/Middlewares/Third_Party/FatFs/src/option/ccsbcs.c **** #define _TBLDEF 1
  85:../libdaisy/Middlewares/Third_Party/FatFs/src/option/ccsbcs.c **** static
  86:../libdaisy/Middlewares/Third_Party/FatFs/src/option/ccsbcs.c **** const WCHAR Tbl[] = {	/*  CP775(0x80-0xFF) to Unicode conversion table */
ARM GAS  /var/folders/0d/2ntwfkp1791d52chq7d_xwdm0000gn/T//ccwQndaS.s 			page 3


  87:../libdaisy/Middlewares/Third_Party/FatFs/src/option/ccsbcs.c **** 	0x0106, 0x00FC, 0x00E9, 0x0101, 0x00E4, 0x0123, 0x00E5, 0x0107, 0x0142, 0x0113, 0x0156, 0x0157, 0x
  88:../libdaisy/Middlewares/Third_Party/FatFs/src/option/ccsbcs.c **** 	0x00C9, 0x00E6, 0x00C6, 0x014D, 0x00F6, 0x0122, 0x00A2, 0x015A, 0x015B, 0x00D6, 0x00DC, 0x00F8, 0x
  89:../libdaisy/Middlewares/Third_Party/FatFs/src/option/ccsbcs.c **** 	0x0100, 0x012A, 0x00F3, 0x017B, 0x017C, 0x017A, 0x201D, 0x00A6, 0x00A9, 0x00AE, 0x00AC, 0x00BD, 0x
  90:../libdaisy/Middlewares/Third_Party/FatFs/src/option/ccsbcs.c **** 	0x2591, 0x2592, 0x2593, 0x2502, 0x2524, 0x0104, 0x010C, 0x0118, 0x0116, 0x2563, 0x2551, 0x2557, 0x
  91:../libdaisy/Middlewares/Third_Party/FatFs/src/option/ccsbcs.c **** 	0x2514, 0x2534, 0x252C, 0x251C, 0x2500, 0x253C, 0x0172, 0x016A, 0x255A, 0x2554, 0x2569, 0x2566, 0x
  92:../libdaisy/Middlewares/Third_Party/FatFs/src/option/ccsbcs.c **** 	0x0105, 0x010D, 0x0119, 0x0117, 0x012F, 0x0161, 0x0173, 0x016B, 0x017E, 0x2518, 0x250C, 0x2588, 0x
  93:../libdaisy/Middlewares/Third_Party/FatFs/src/option/ccsbcs.c **** 	0x00D3, 0x00DF, 0x014C, 0x0143, 0x00F5, 0x00D5, 0x00B5, 0x0144, 0x0136, 0x0137, 0x013B, 0x013C, 0x
  94:../libdaisy/Middlewares/Third_Party/FatFs/src/option/ccsbcs.c **** 	0x00AD, 0x00B1, 0x201C, 0x00BE, 0x00B6, 0x00A7, 0x00F7, 0x201E, 0x00B0, 0x2219, 0x00B7, 0x00B9, 0x
  95:../libdaisy/Middlewares/Third_Party/FatFs/src/option/ccsbcs.c **** };
  96:../libdaisy/Middlewares/Third_Party/FatFs/src/option/ccsbcs.c **** 
  97:../libdaisy/Middlewares/Third_Party/FatFs/src/option/ccsbcs.c **** #elif _CODE_PAGE == 850
  98:../libdaisy/Middlewares/Third_Party/FatFs/src/option/ccsbcs.c **** #define _TBLDEF 1
  99:../libdaisy/Middlewares/Third_Party/FatFs/src/option/ccsbcs.c **** static
 100:../libdaisy/Middlewares/Third_Party/FatFs/src/option/ccsbcs.c **** const WCHAR Tbl[] = {	/*  CP850(0x80-0xFF) to Unicode conversion table */
 101:../libdaisy/Middlewares/Third_Party/FatFs/src/option/ccsbcs.c **** 	0x00C7, 0x00FC, 0x00E9, 0x00E2, 0x00E4, 0x00E0, 0x00E5, 0x00E7, 0x00EA, 0x00EB, 0x00E8, 0x00EF, 0x
 102:../libdaisy/Middlewares/Third_Party/FatFs/src/option/ccsbcs.c **** 	0x00C9, 0x00E6, 0x00C6, 0x00F4, 0x00F6, 0x00F2, 0x00FB, 0x00F9, 0x00FF, 0x00D6, 0x00DC, 0x00F8, 0x
 103:../libdaisy/Middlewares/Third_Party/FatFs/src/option/ccsbcs.c **** 	0x00E1, 0x00ED, 0x00F3, 0x00FA, 0x00F1, 0x00D1, 0x00AA, 0x00BA, 0x00BF, 0x00AE, 0x00AC, 0x00BD, 0x
 104:../libdaisy/Middlewares/Third_Party/FatFs/src/option/ccsbcs.c **** 	0x2591, 0x2592, 0x2593, 0x2502, 0x2524, 0x00C1, 0x00C2, 0x00C0, 0x00A9, 0x2563, 0x2551, 0x2557, 0x
 105:../libdaisy/Middlewares/Third_Party/FatFs/src/option/ccsbcs.c **** 	0x2514, 0x2534, 0x252C, 0x251C, 0x2500, 0x253C, 0x00E3, 0x00C3, 0x255A, 0x2554, 0x2569, 0x2566, 0x
 106:../libdaisy/Middlewares/Third_Party/FatFs/src/option/ccsbcs.c **** 	0x00F0, 0x00D0, 0x00CA, 0x00CB, 0x00C8, 0x0131, 0x00CD, 0x00CE, 0x00CF, 0x2518, 0x250C, 0x2588, 0x
 107:../libdaisy/Middlewares/Third_Party/FatFs/src/option/ccsbcs.c **** 	0x00D3, 0x00DF, 0x00D4, 0x00D2, 0x00F5, 0x00D5, 0x00B5, 0x00FE, 0x00DE, 0x00DA, 0x00DB, 0x00D9, 0x
 108:../libdaisy/Middlewares/Third_Party/FatFs/src/option/ccsbcs.c **** 	0x00AD, 0x00B1, 0x2017, 0x00BE, 0x00B6, 0x00A7, 0x00F7, 0x00B8, 0x00B0, 0x00A8, 0x00B7, 0x00B9, 0x
 109:../libdaisy/Middlewares/Third_Party/FatFs/src/option/ccsbcs.c **** };
 110:../libdaisy/Middlewares/Third_Party/FatFs/src/option/ccsbcs.c **** 
 111:../libdaisy/Middlewares/Third_Party/FatFs/src/option/ccsbcs.c **** #elif _CODE_PAGE == 852
 112:../libdaisy/Middlewares/Third_Party/FatFs/src/option/ccsbcs.c **** #define _TBLDEF 1
 113:../libdaisy/Middlewares/Third_Party/FatFs/src/option/ccsbcs.c **** static
 114:../libdaisy/Middlewares/Third_Party/FatFs/src/option/ccsbcs.c **** const WCHAR Tbl[] = {	/*  CP852(0x80-0xFF) to Unicode conversion table */
 115:../libdaisy/Middlewares/Third_Party/FatFs/src/option/ccsbcs.c **** 	0x00C7, 0x00FC, 0x00E9, 0x00E2, 0x00E4, 0x016F, 0x0107, 0x00E7, 0x0142, 0x00EB, 0x0150, 0x0151, 0x
 116:../libdaisy/Middlewares/Third_Party/FatFs/src/option/ccsbcs.c **** 	0x00C9, 0x0139, 0x013A, 0x00F4, 0x00F6, 0x013D, 0x013E, 0x015A, 0x015B, 0x00D6, 0x00DC, 0x0164, 0x
 117:../libdaisy/Middlewares/Third_Party/FatFs/src/option/ccsbcs.c **** 	0x00E1, 0x00ED, 0x00F3, 0x00FA, 0x0104, 0x0105, 0x017D, 0x017E, 0x0118, 0x0119, 0x00AC, 0x017A, 0x
 118:../libdaisy/Middlewares/Third_Party/FatFs/src/option/ccsbcs.c **** 	0x2591, 0x2592, 0x2593, 0x2502, 0x2524, 0x00C1, 0x00C2, 0x011A, 0x015E, 0x2563, 0x2551, 0x2557, 0x
 119:../libdaisy/Middlewares/Third_Party/FatFs/src/option/ccsbcs.c **** 	0x2514, 0x2534, 0x252C, 0x251C, 0x2500, 0x253C, 0x0102, 0x0103, 0x255A, 0x2554, 0x2569, 0x2566, 0x
 120:../libdaisy/Middlewares/Third_Party/FatFs/src/option/ccsbcs.c **** 	0x0111, 0x0110, 0x010E, 0x00CB, 0x010F, 0x0147, 0x00CD, 0x00CE, 0x011B, 0x2518, 0x250C, 0x2588, 0x
 121:../libdaisy/Middlewares/Third_Party/FatFs/src/option/ccsbcs.c **** 	0x00D3, 0x00DF, 0x00D4, 0x0143, 0x0144, 0x0148, 0x0160, 0x0161, 0x0154, 0x00DA, 0x0155, 0x0170, 0x
 122:../libdaisy/Middlewares/Third_Party/FatFs/src/option/ccsbcs.c **** 	0x00AD, 0x02DD, 0x02DB, 0x02C7, 0x02D8, 0x00A7, 0x00F7, 0x00B8, 0x00B0, 0x00A8, 0x02D9, 0x0171, 0x
 123:../libdaisy/Middlewares/Third_Party/FatFs/src/option/ccsbcs.c **** };
 124:../libdaisy/Middlewares/Third_Party/FatFs/src/option/ccsbcs.c **** 
 125:../libdaisy/Middlewares/Third_Party/FatFs/src/option/ccsbcs.c **** #elif _CODE_PAGE == 855
 126:../libdaisy/Middlewares/Third_Party/FatFs/src/option/ccsbcs.c **** #define _TBLDEF 1
 127:../libdaisy/Middlewares/Third_Party/FatFs/src/option/ccsbcs.c **** static
 128:../libdaisy/Middlewares/Third_Party/FatFs/src/option/ccsbcs.c **** const WCHAR Tbl[] = {	/*  CP855(0x80-0xFF) to Unicode conversion table */
 129:../libdaisy/Middlewares/Third_Party/FatFs/src/option/ccsbcs.c **** 	0x0452, 0x0402, 0x0453, 0x0403, 0x0451, 0x0401, 0x0454, 0x0404, 0x0455, 0x0405, 0x0456, 0x0406, 0x
 130:../libdaisy/Middlewares/Third_Party/FatFs/src/option/ccsbcs.c **** 	0x0459, 0x0409, 0x045A, 0x040A, 0x045B, 0x040B, 0x045C, 0x040C, 0x045E, 0x040E, 0x045F, 0x040F, 0x
 131:../libdaisy/Middlewares/Third_Party/FatFs/src/option/ccsbcs.c **** 	0x0430, 0x0410, 0x0431, 0x0411, 0x0446, 0x0426, 0x0434, 0x0414, 0x0435, 0x0415, 0x0444, 0x0424, 0x
 132:../libdaisy/Middlewares/Third_Party/FatFs/src/option/ccsbcs.c **** 	0x2591, 0x2592, 0x2593, 0x2502, 0x2524, 0x0445, 0x0425, 0x0438, 0x0418, 0x2563, 0x2551, 0x2557, 0x
 133:../libdaisy/Middlewares/Third_Party/FatFs/src/option/ccsbcs.c **** 	0x2514, 0x2534, 0x252C, 0x251C, 0x2500, 0x253C, 0x043A, 0x041A, 0x255A, 0x2554, 0x2569, 0x2566, 0x
 134:../libdaisy/Middlewares/Third_Party/FatFs/src/option/ccsbcs.c **** 	0x043B, 0x041B, 0x043C, 0x041C, 0x043D, 0x041D, 0x043E, 0x041E, 0x043F, 0x2518, 0x250C, 0x2588, 0x
 135:../libdaisy/Middlewares/Third_Party/FatFs/src/option/ccsbcs.c **** 	0x042F, 0x0440, 0x0420, 0x0441, 0x0421, 0x0442, 0x0422, 0x0443, 0x0423, 0x0436, 0x0416, 0x0432, 0x
 136:../libdaisy/Middlewares/Third_Party/FatFs/src/option/ccsbcs.c **** 	0x00AD, 0x044B, 0x042B, 0x0437, 0x0417, 0x0448, 0x0428, 0x044D, 0x042D, 0x0449, 0x0429, 0x0447, 0x
 137:../libdaisy/Middlewares/Third_Party/FatFs/src/option/ccsbcs.c **** };
 138:../libdaisy/Middlewares/Third_Party/FatFs/src/option/ccsbcs.c **** 
 139:../libdaisy/Middlewares/Third_Party/FatFs/src/option/ccsbcs.c **** #elif _CODE_PAGE == 857
 140:../libdaisy/Middlewares/Third_Party/FatFs/src/option/ccsbcs.c **** #define _TBLDEF 1
 141:../libdaisy/Middlewares/Third_Party/FatFs/src/option/ccsbcs.c **** static
 142:../libdaisy/Middlewares/Third_Party/FatFs/src/option/ccsbcs.c **** const WCHAR Tbl[] = {	/*  CP857(0x80-0xFF) to Unicode conversion table */
 143:../libdaisy/Middlewares/Third_Party/FatFs/src/option/ccsbcs.c **** 	0x00C7, 0x00FC, 0x00E9, 0x00E2, 0x00E4, 0x00E0, 0x00E5, 0x00E7, 0x00EA, 0x00EB, 0x00E8, 0x00EF, 0x
ARM GAS  /var/folders/0d/2ntwfkp1791d52chq7d_xwdm0000gn/T//ccwQndaS.s 			page 4


 144:../libdaisy/Middlewares/Third_Party/FatFs/src/option/ccsbcs.c **** 	0x00C9, 0x00E6, 0x00C6, 0x00F4, 0x00F6, 0x00F2, 0x00FB, 0x00F9, 0x0130, 0x00D6, 0x00DC, 0x00F8, 0x
 145:../libdaisy/Middlewares/Third_Party/FatFs/src/option/ccsbcs.c **** 	0x00E1, 0x00ED, 0x00F3, 0x00FA, 0x00F1, 0x00D1, 0x011E, 0x011F, 0x00BF, 0x00AE, 0x00AC, 0x00BD, 0x
 146:../libdaisy/Middlewares/Third_Party/FatFs/src/option/ccsbcs.c **** 	0x2591, 0x2592, 0x2593, 0x2502, 0x2524, 0x00C1, 0x00C2, 0x00C0, 0x00A9, 0x2563, 0x2551, 0x2557, 0x
 147:../libdaisy/Middlewares/Third_Party/FatFs/src/option/ccsbcs.c **** 	0x2514, 0x2534, 0x252C, 0x251C, 0x2500, 0x253C, 0x00E3, 0x00C3, 0x255A, 0x2554, 0x2569, 0x2566, 0x
 148:../libdaisy/Middlewares/Third_Party/FatFs/src/option/ccsbcs.c **** 	0x00BA, 0x00AA, 0x00CA, 0x00CB, 0x00C8, 0x0000, 0x00CD, 0x00CE, 0x00CF, 0x2518, 0x250C, 0x2588, 0x
 149:../libdaisy/Middlewares/Third_Party/FatFs/src/option/ccsbcs.c **** 	0x00D3, 0x00DF, 0x00D4, 0x00D2, 0x00F5, 0x00D5, 0x00B5, 0x0000, 0x00D7, 0x00DA, 0x00DB, 0x00D9, 0x
 150:../libdaisy/Middlewares/Third_Party/FatFs/src/option/ccsbcs.c **** 	0x00AD, 0x00B1, 0x0000, 0x00BE, 0x00B6, 0x00A7, 0x00F7, 0x00B8, 0x00B0, 0x00A8, 0x00B7, 0x00B9, 0x
 151:../libdaisy/Middlewares/Third_Party/FatFs/src/option/ccsbcs.c **** };
 152:../libdaisy/Middlewares/Third_Party/FatFs/src/option/ccsbcs.c **** 
 153:../libdaisy/Middlewares/Third_Party/FatFs/src/option/ccsbcs.c **** #elif _CODE_PAGE == 860
 154:../libdaisy/Middlewares/Third_Party/FatFs/src/option/ccsbcs.c **** #define _TBLDEF 1
 155:../libdaisy/Middlewares/Third_Party/FatFs/src/option/ccsbcs.c **** static
 156:../libdaisy/Middlewares/Third_Party/FatFs/src/option/ccsbcs.c **** const WCHAR Tbl[] = {	/*  CP860(0x80-0xFF) to Unicode conversion table */
 157:../libdaisy/Middlewares/Third_Party/FatFs/src/option/ccsbcs.c **** 	0x00C7, 0x00FC, 0x00E9, 0x00E2, 0x00E3, 0x00E0, 0x00C1, 0x00E7, 0x00EA, 0x00CA, 0x00E8, 0x00CD, 0x
 158:../libdaisy/Middlewares/Third_Party/FatFs/src/option/ccsbcs.c **** 	0x00C9, 0x00C0, 0x00C8, 0x00F4, 0x00F5, 0x00F2, 0x00DA, 0x00F9, 0x00CC, 0x00D5, 0x00DC, 0x00A2, 0x
 159:../libdaisy/Middlewares/Third_Party/FatFs/src/option/ccsbcs.c **** 	0x00E1, 0x00ED, 0x00F3, 0x00FA, 0x00F1, 0x00D1, 0x00AA, 0x00BA, 0x00BF, 0x00D2, 0x00AC, 0x00BD, 0x
 160:../libdaisy/Middlewares/Third_Party/FatFs/src/option/ccsbcs.c **** 	0x2591, 0x2592, 0x2593, 0x2502, 0x2524, 0x2561, 0x2562, 0x2556, 0x2555, 0x2563, 0x2551, 0x2557, 0x
 161:../libdaisy/Middlewares/Third_Party/FatFs/src/option/ccsbcs.c **** 	0x2514, 0x2534, 0x252C, 0x251C, 0x2500, 0x253C, 0x255E, 0x255F, 0x255A, 0x2554, 0x2569, 0x2566, 0x
 162:../libdaisy/Middlewares/Third_Party/FatFs/src/option/ccsbcs.c **** 	0x2568, 0x2564, 0x2565, 0x2559, 0x2558, 0x2552, 0x2553, 0x256B, 0x256A, 0x2518, 0x250C, 0x2588, 0x
 163:../libdaisy/Middlewares/Third_Party/FatFs/src/option/ccsbcs.c **** 	0x03B1, 0x00DF, 0x0393, 0x03C0, 0x03A3, 0x03C3, 0x00B5, 0x03C4, 0x03A6, 0x0398, 0x03A9, 0x03B4, 0x
 164:../libdaisy/Middlewares/Third_Party/FatFs/src/option/ccsbcs.c **** 	0x2261, 0x00B1, 0x2265, 0x2264, 0x2320, 0x2321, 0x00F7, 0x2248, 0x00B0, 0x2219, 0x00B7, 0x221A, 0x
 165:../libdaisy/Middlewares/Third_Party/FatFs/src/option/ccsbcs.c **** };
 166:../libdaisy/Middlewares/Third_Party/FatFs/src/option/ccsbcs.c **** 
 167:../libdaisy/Middlewares/Third_Party/FatFs/src/option/ccsbcs.c **** #elif _CODE_PAGE == 861
 168:../libdaisy/Middlewares/Third_Party/FatFs/src/option/ccsbcs.c **** #define _TBLDEF 1
 169:../libdaisy/Middlewares/Third_Party/FatFs/src/option/ccsbcs.c **** static
 170:../libdaisy/Middlewares/Third_Party/FatFs/src/option/ccsbcs.c **** const WCHAR Tbl[] = {	/*  CP861(0x80-0xFF) to Unicode conversion table */
 171:../libdaisy/Middlewares/Third_Party/FatFs/src/option/ccsbcs.c **** 	0x00C7, 0x00FC, 0x00E9, 0x00E2, 0x00E4, 0x00E0, 0x00E6, 0x00E7, 0x00EA, 0x00EB, 0x00E8, 0x00D0, 0x
 172:../libdaisy/Middlewares/Third_Party/FatFs/src/option/ccsbcs.c **** 	0x00C9, 0x00E6, 0x00C6, 0x00F4, 0x00F6, 0x00FE, 0x00FB, 0x00DD, 0x00FD, 0x00D6, 0x00DC, 0x00F8, 0x
 173:../libdaisy/Middlewares/Third_Party/FatFs/src/option/ccsbcs.c **** 	0x00E1, 0x00ED, 0x00F3, 0x00FA, 0x00C1, 0x00CD, 0x00D3, 0x00DA, 0x00BF, 0x2310, 0x00AC, 0x00BD, 0x
 174:../libdaisy/Middlewares/Third_Party/FatFs/src/option/ccsbcs.c **** 	0x2591, 0x2592, 0x2593, 0x2502, 0x2524, 0x2561, 0x2562, 0x2556, 0x2555, 0x2563, 0x2551, 0x2557, 0x
 175:../libdaisy/Middlewares/Third_Party/FatFs/src/option/ccsbcs.c **** 	0x2514, 0x2534, 0x252C, 0x251C, 0x2500, 0x253C, 0x255E, 0x255F, 0x255A, 0x2554, 0x2569, 0x2566, 0x
 176:../libdaisy/Middlewares/Third_Party/FatFs/src/option/ccsbcs.c **** 	0x2568, 0x2564, 0x2565, 0x2559, 0x2558, 0x2552, 0x2553, 0x256B, 0x256A, 0x2518, 0x250C, 0x2588, 0x
 177:../libdaisy/Middlewares/Third_Party/FatFs/src/option/ccsbcs.c **** 	0x03B1, 0x00DF, 0x0393, 0x03C0, 0x03A3, 0x03C3, 0x00B5, 0x03C4, 0x03A6, 0x0398, 0x03A9, 0x03B4, 0x
 178:../libdaisy/Middlewares/Third_Party/FatFs/src/option/ccsbcs.c **** 	0x2261, 0x00B1, 0x2265, 0x2264, 0x2320, 0x2321, 0x00F7, 0x2248, 0x00B0, 0x2219, 0x00B7, 0x221A, 0x
 179:../libdaisy/Middlewares/Third_Party/FatFs/src/option/ccsbcs.c **** };
 180:../libdaisy/Middlewares/Third_Party/FatFs/src/option/ccsbcs.c **** 
 181:../libdaisy/Middlewares/Third_Party/FatFs/src/option/ccsbcs.c **** #elif _CODE_PAGE == 862
 182:../libdaisy/Middlewares/Third_Party/FatFs/src/option/ccsbcs.c **** #define _TBLDEF 1
 183:../libdaisy/Middlewares/Third_Party/FatFs/src/option/ccsbcs.c **** static
 184:../libdaisy/Middlewares/Third_Party/FatFs/src/option/ccsbcs.c **** const WCHAR Tbl[] = {	/*  CP862(0x80-0xFF) to Unicode conversion table */
 185:../libdaisy/Middlewares/Third_Party/FatFs/src/option/ccsbcs.c **** 	0x05D0, 0x05D1, 0x05D2, 0x05D3, 0x05D4, 0x05D5, 0x05D6, 0x05D7, 0x05D8, 0x05D9, 0x05DA, 0x05DB, 0x
 186:../libdaisy/Middlewares/Third_Party/FatFs/src/option/ccsbcs.c **** 	0x05E0, 0x05E1, 0x05E2, 0x05E3, 0x05E4, 0x05E5, 0x05E6, 0x05E7, 0x05E8, 0x05E9, 0x05EA, 0x00A2, 0x
 187:../libdaisy/Middlewares/Third_Party/FatFs/src/option/ccsbcs.c **** 	0x00E1, 0x00ED, 0x00F3, 0x00FA, 0x00F1, 0x00D1, 0x00AA, 0x00BA, 0x00BF, 0x2310, 0x00AC, 0x00BD, 0x
 188:../libdaisy/Middlewares/Third_Party/FatFs/src/option/ccsbcs.c **** 	0x2591, 0x2592, 0x2593, 0x2502, 0x2524, 0x2561, 0x2562, 0x2556, 0x2555, 0x2563, 0x2551, 0x2557, 0x
 189:../libdaisy/Middlewares/Third_Party/FatFs/src/option/ccsbcs.c **** 	0x2514, 0x2534, 0x252C, 0x251C, 0x2500, 0x253C, 0x255E, 0x255F, 0x255A, 0x2554, 0x2569, 0x2566, 0x
 190:../libdaisy/Middlewares/Third_Party/FatFs/src/option/ccsbcs.c **** 	0x2568, 0x2564, 0x2565, 0x2559, 0x2558, 0x2552, 0x2553, 0x256B, 0x256A, 0x2518, 0x250C, 0x2588, 0x
 191:../libdaisy/Middlewares/Third_Party/FatFs/src/option/ccsbcs.c **** 	0x03B1, 0x00DF, 0x0393, 0x03C0, 0x03A3, 0x03C3, 0x00B5, 0x03C4, 0x03A6, 0x0398, 0x03A9, 0x03B4, 0x
 192:../libdaisy/Middlewares/Third_Party/FatFs/src/option/ccsbcs.c **** 	0x2261, 0x00B1, 0x2265, 0x2264, 0x2320, 0x2321, 0x00F7, 0x2248, 0x00B0, 0x2219, 0x00B7, 0x221A, 0x
 193:../libdaisy/Middlewares/Third_Party/FatFs/src/option/ccsbcs.c **** };
 194:../libdaisy/Middlewares/Third_Party/FatFs/src/option/ccsbcs.c **** 
 195:../libdaisy/Middlewares/Third_Party/FatFs/src/option/ccsbcs.c **** #elif _CODE_PAGE == 863
 196:../libdaisy/Middlewares/Third_Party/FatFs/src/option/ccsbcs.c **** #define _TBLDEF 1
 197:../libdaisy/Middlewares/Third_Party/FatFs/src/option/ccsbcs.c **** static
 198:../libdaisy/Middlewares/Third_Party/FatFs/src/option/ccsbcs.c **** const WCHAR Tbl[] = {	/*  CP863(0x80-0xFF) to Unicode conversion table */
 199:../libdaisy/Middlewares/Third_Party/FatFs/src/option/ccsbcs.c **** 	0x00C7, 0x00FC, 0x00E9, 0x00E2, 0x00C2, 0x00E0, 0x00B6, 0x00E7, 0x00EA, 0x00EB, 0x00E8, 0x00EF, 0x
 200:../libdaisy/Middlewares/Third_Party/FatFs/src/option/ccsbcs.c **** 	0x00C9, 0x00C8, 0x00CA, 0x00F4, 0x00CB, 0x00CF, 0x00FB, 0x00F9, 0x00A4, 0x00D4, 0x00DC, 0x00A2, 0x
ARM GAS  /var/folders/0d/2ntwfkp1791d52chq7d_xwdm0000gn/T//ccwQndaS.s 			page 5


 201:../libdaisy/Middlewares/Third_Party/FatFs/src/option/ccsbcs.c **** 	0x00A6, 0x00B4, 0x00F3, 0x00FA, 0x00A8, 0x00BB, 0x00B3, 0x00AF, 0x00CE, 0x3210, 0x00AC, 0x00BD, 0x
 202:../libdaisy/Middlewares/Third_Party/FatFs/src/option/ccsbcs.c **** 	0x2591, 0x2592, 0x2593, 0x2502, 0x2524, 0x2561, 0x2562, 0x2556, 0x2555, 0x2563, 0x2551, 0x2557, 0x
 203:../libdaisy/Middlewares/Third_Party/FatFs/src/option/ccsbcs.c **** 	0x2514, 0x2534, 0x252C, 0x251C, 0x2500, 0x253C, 0x255E, 0x255F, 0x255A, 0x2554, 0x2569, 0x2566, 0x
 204:../libdaisy/Middlewares/Third_Party/FatFs/src/option/ccsbcs.c **** 	0x2568, 0x2564, 0x2565, 0x2559, 0x2558, 0x2552, 0x2553, 0x256B, 0x256A, 0x2518, 0x250C, 0x2588, 0x
 205:../libdaisy/Middlewares/Third_Party/FatFs/src/option/ccsbcs.c **** 	0x03B1, 0x00DF, 0x0393, 0x03C0, 0x03A3, 0x03C3, 0x00B5, 0x03C4, 0x03A6, 0x0398, 0x03A9, 0x03B4, 0x
 206:../libdaisy/Middlewares/Third_Party/FatFs/src/option/ccsbcs.c **** 	0x2261, 0x00B1, 0x2265, 0x2264, 0x2320, 0x2321, 0x00F7, 0x2248, 0x00B0, 0x2219, 0x00B7, 0x221A, 0x
 207:../libdaisy/Middlewares/Third_Party/FatFs/src/option/ccsbcs.c **** };
 208:../libdaisy/Middlewares/Third_Party/FatFs/src/option/ccsbcs.c **** 
 209:../libdaisy/Middlewares/Third_Party/FatFs/src/option/ccsbcs.c **** #elif _CODE_PAGE == 864
 210:../libdaisy/Middlewares/Third_Party/FatFs/src/option/ccsbcs.c **** #define _TBLDEF 1
 211:../libdaisy/Middlewares/Third_Party/FatFs/src/option/ccsbcs.c **** static
 212:../libdaisy/Middlewares/Third_Party/FatFs/src/option/ccsbcs.c **** const WCHAR Tbl[] = {	/*  CP864(0x80-0xFF) to Unicode conversion table */
 213:../libdaisy/Middlewares/Third_Party/FatFs/src/option/ccsbcs.c **** 	0x00B0, 0x00B7, 0x2219, 0x221A, 0x2592, 0x2500, 0x2502, 0x253C, 0x2524, 0x252C, 0x251C, 0x2534, 0x
 214:../libdaisy/Middlewares/Third_Party/FatFs/src/option/ccsbcs.c **** 	0x03B2, 0x221E, 0x03C6, 0x00B1, 0x00BD, 0x00BC, 0x2248, 0x00AB, 0x00BB, 0xFEF7, 0xFEF8, 0x0000, 0x
 215:../libdaisy/Middlewares/Third_Party/FatFs/src/option/ccsbcs.c **** 	0x00A0, 0x00AD, 0xFE82, 0x00A3, 0x00A4, 0xFE84, 0x0000, 0x20AC, 0xFE8E, 0xFE8F, 0xFE95, 0xFE99, 0x
 216:../libdaisy/Middlewares/Third_Party/FatFs/src/option/ccsbcs.c **** 	0x0660, 0x0661, 0x0662, 0x0663, 0x0664, 0x0665, 0x0666, 0x0667, 0x0668, 0x0669, 0xFED1, 0x061B, 0x
 217:../libdaisy/Middlewares/Third_Party/FatFs/src/option/ccsbcs.c **** 	0x00A2, 0xFE80, 0xFE81, 0xFE83, 0xFE85, 0xFECA, 0xFE8B, 0xFE8D, 0xFE91, 0xFE93, 0xFE97, 0xFE9B, 0x
 218:../libdaisy/Middlewares/Third_Party/FatFs/src/option/ccsbcs.c **** 	0xFEAB, 0xFEAD, 0xFEAF, 0xFEB3, 0xFEB7, 0xFEBB, 0xFEBF, 0xFEC1, 0xFEC5, 0xFECB, 0xFECF, 0x00A6, 0x
 219:../libdaisy/Middlewares/Third_Party/FatFs/src/option/ccsbcs.c **** 	0x0640, 0xFED3, 0xFED7, 0xFEDB, 0xFEDF, 0xFEE3, 0xFEE7, 0xFEEB, 0xFEED, 0xFEEF, 0xFEF3, 0xFEBD, 0x
 220:../libdaisy/Middlewares/Third_Party/FatFs/src/option/ccsbcs.c **** 	0xFE7D, 0x0651, 0xFEE5, 0xFEE9, 0xFEEC, 0xFEF0, 0xFEF2, 0xFED0, 0xFED5, 0xFEF5, 0xFEF6, 0xFEDD, 0x
 221:../libdaisy/Middlewares/Third_Party/FatFs/src/option/ccsbcs.c **** };
 222:../libdaisy/Middlewares/Third_Party/FatFs/src/option/ccsbcs.c **** 
 223:../libdaisy/Middlewares/Third_Party/FatFs/src/option/ccsbcs.c **** #elif _CODE_PAGE == 865
 224:../libdaisy/Middlewares/Third_Party/FatFs/src/option/ccsbcs.c **** #define _TBLDEF 1
 225:../libdaisy/Middlewares/Third_Party/FatFs/src/option/ccsbcs.c **** static
 226:../libdaisy/Middlewares/Third_Party/FatFs/src/option/ccsbcs.c **** const WCHAR Tbl[] = {	/*  CP865(0x80-0xFF) to Unicode conversion table */
 227:../libdaisy/Middlewares/Third_Party/FatFs/src/option/ccsbcs.c **** 	0x00C7, 0x00FC, 0x00E9, 0x00E2, 0x00E4, 0x00E0, 0x00E5, 0x00E7, 0x00EA, 0x00EB, 0x00E8, 0x00EF, 0x
 228:../libdaisy/Middlewares/Third_Party/FatFs/src/option/ccsbcs.c **** 	0x00C5, 0x00E6, 0x00C6, 0x00F4, 0x00F6, 0x00F2, 0x00FB, 0x00F9, 0x00FF, 0x00D6, 0x00DC, 0x00F8, 0x
 229:../libdaisy/Middlewares/Third_Party/FatFs/src/option/ccsbcs.c **** 	0x00E1, 0x00ED, 0x00F3, 0x00FA, 0x00F1, 0x00D1, 0x00AA, 0x00BA, 0x00BF, 0x2310, 0x00AC, 0x00BD, 0x
 230:../libdaisy/Middlewares/Third_Party/FatFs/src/option/ccsbcs.c **** 	0x2591, 0x2592, 0x2593, 0x2502, 0x2524, 0x2561, 0x2562, 0x2556, 0x2555, 0x2563, 0x2551, 0x2557, 0x
 231:../libdaisy/Middlewares/Third_Party/FatFs/src/option/ccsbcs.c **** 	0x2514, 0x2534, 0x252C, 0x251C, 0x2500, 0x253C, 0x255E, 0x255F, 0x255A, 0x2554, 0x2569, 0x2566, 0x
 232:../libdaisy/Middlewares/Third_Party/FatFs/src/option/ccsbcs.c **** 	0x2568, 0x2564, 0x2565, 0x2559, 0x2558, 0x2552, 0x2553, 0x256B, 0x256A, 0x2518, 0x250C, 0x2588, 0x
 233:../libdaisy/Middlewares/Third_Party/FatFs/src/option/ccsbcs.c **** 	0x03B1, 0x00DF, 0x0393, 0x03C0, 0x03A3, 0x03C3, 0x00B5, 0x03C4, 0x03A6, 0x0398, 0x03A9, 0x03B4, 0x
 234:../libdaisy/Middlewares/Third_Party/FatFs/src/option/ccsbcs.c **** 	0x2261, 0x00B1, 0x2265, 0x2264, 0x2320, 0x2321, 0x00F7, 0x2248, 0x00B0, 0x2219, 0x00B7, 0x221A, 0x
 235:../libdaisy/Middlewares/Third_Party/FatFs/src/option/ccsbcs.c **** };
 236:../libdaisy/Middlewares/Third_Party/FatFs/src/option/ccsbcs.c **** 
 237:../libdaisy/Middlewares/Third_Party/FatFs/src/option/ccsbcs.c **** #elif _CODE_PAGE == 866
 238:../libdaisy/Middlewares/Third_Party/FatFs/src/option/ccsbcs.c **** #define _TBLDEF 1
 239:../libdaisy/Middlewares/Third_Party/FatFs/src/option/ccsbcs.c **** static
 240:../libdaisy/Middlewares/Third_Party/FatFs/src/option/ccsbcs.c **** const WCHAR Tbl[] = {	/*  CP866(0x80-0xFF) to Unicode conversion table */
 241:../libdaisy/Middlewares/Third_Party/FatFs/src/option/ccsbcs.c **** 	0x0410, 0x0411, 0x0412, 0x0413, 0x0414, 0x0415, 0x0416, 0x0417, 0x0418, 0x0419, 0x041A, 0x041B, 0x
 242:../libdaisy/Middlewares/Third_Party/FatFs/src/option/ccsbcs.c **** 	0x0420, 0x0421, 0x0422, 0x0423, 0x0424, 0x0425, 0x0426, 0x0427, 0x0428, 0x0429, 0x042A, 0x042B, 0x
 243:../libdaisy/Middlewares/Third_Party/FatFs/src/option/ccsbcs.c **** 	0x0430, 0x0431, 0x0432, 0x0433, 0x0434, 0x0435, 0x0436, 0x0437, 0x0438, 0x0439, 0x043A, 0x043B, 0x
 244:../libdaisy/Middlewares/Third_Party/FatFs/src/option/ccsbcs.c **** 	0x2591, 0x2592, 0x2593, 0x2502, 0x2524, 0x2561, 0x2562, 0x2556, 0x2555, 0x2563, 0x2551, 0x2557, 0x
 245:../libdaisy/Middlewares/Third_Party/FatFs/src/option/ccsbcs.c **** 	0x2514, 0x2534, 0x252C, 0x251C, 0x2500, 0x253C, 0x255E, 0x255F, 0x255A, 0x2554, 0x2569, 0x2566, 0x
 246:../libdaisy/Middlewares/Third_Party/FatFs/src/option/ccsbcs.c **** 	0x2568, 0x2564, 0x2565, 0x2559, 0x2558, 0x2552, 0x2553, 0x256B, 0x256A, 0x2518, 0x250C, 0x2588, 0x
 247:../libdaisy/Middlewares/Third_Party/FatFs/src/option/ccsbcs.c **** 	0x0440, 0x0441, 0x0442, 0x0443, 0x0444, 0x0445, 0x0446, 0x0447, 0x0448, 0x0449, 0x044A, 0x044B, 0x
 248:../libdaisy/Middlewares/Third_Party/FatFs/src/option/ccsbcs.c **** 	0x0401, 0x0451, 0x0404, 0x0454, 0x0407, 0x0457, 0x040E, 0x045E, 0x00B0, 0x2219, 0x00B7, 0x221A, 0x
 249:../libdaisy/Middlewares/Third_Party/FatFs/src/option/ccsbcs.c **** };
 250:../libdaisy/Middlewares/Third_Party/FatFs/src/option/ccsbcs.c **** 
 251:../libdaisy/Middlewares/Third_Party/FatFs/src/option/ccsbcs.c **** #elif _CODE_PAGE == 869
 252:../libdaisy/Middlewares/Third_Party/FatFs/src/option/ccsbcs.c **** #define _TBLDEF 1
 253:../libdaisy/Middlewares/Third_Party/FatFs/src/option/ccsbcs.c **** static
 254:../libdaisy/Middlewares/Third_Party/FatFs/src/option/ccsbcs.c **** const WCHAR Tbl[] = {	/*  CP869(0x80-0xFF) to Unicode conversion table */
 255:../libdaisy/Middlewares/Third_Party/FatFs/src/option/ccsbcs.c **** 	0x00B7, 0x00B7, 0x00B7, 0x00B7, 0x00B7, 0x00B7, 0x0386, 0x00B7, 0x00B7, 0x00AC, 0x00A6, 0x2018, 0x
 256:../libdaisy/Middlewares/Third_Party/FatFs/src/option/ccsbcs.c **** 	0x038A, 0x03AA, 0x038C, 0x00B7, 0x00B7, 0x038E, 0x03AB, 0x00A9, 0x038F, 0x00B2, 0x00B3, 0x03AC, 0x
 257:../libdaisy/Middlewares/Third_Party/FatFs/src/option/ccsbcs.c **** 	0x03CA, 0x0390, 0x03CC, 0x03CD, 0x0391, 0x0392, 0x0393, 0x0394, 0x0395, 0x0396, 0x0397, 0x00BD, 0x
ARM GAS  /var/folders/0d/2ntwfkp1791d52chq7d_xwdm0000gn/T//ccwQndaS.s 			page 6


 258:../libdaisy/Middlewares/Third_Party/FatFs/src/option/ccsbcs.c **** 	0x2591, 0x2592, 0x2593, 0x2502, 0x2524, 0x039A, 0x039B, 0x039C, 0x039D, 0x2563, 0x2551, 0x2557, 0x
 259:../libdaisy/Middlewares/Third_Party/FatFs/src/option/ccsbcs.c **** 	0x2514, 0x2534, 0x252C, 0x251C, 0x2500, 0x253C, 0x0A30, 0x03A1, 0x255A, 0x2554, 0x2569, 0x2566, 0x
 260:../libdaisy/Middlewares/Third_Party/FatFs/src/option/ccsbcs.c **** 	0x03A4, 0x03A5, 0x03A6, 0x03A7, 0x03A8, 0x03A9, 0x03B1, 0x03B2, 0x03B3, 0x2518, 0x250C, 0x2588, 0x
 261:../libdaisy/Middlewares/Third_Party/FatFs/src/option/ccsbcs.c **** 	0x03B6, 0x03B7, 0x03B8, 0x03B9, 0x03BA, 0x03BB, 0x03BC, 0x03BD, 0x03BE, 0x03BF, 0x03C0, 0x03C1, 0x
 262:../libdaisy/Middlewares/Third_Party/FatFs/src/option/ccsbcs.c **** 	0x00AD, 0x00B1, 0x03C5, 0x03C6, 0x03C7, 0x00A7, 0x03C8, 0x0385, 0x00B0, 0x00A8, 0x03C9, 0x03CB, 0x
 263:../libdaisy/Middlewares/Third_Party/FatFs/src/option/ccsbcs.c **** };
 264:../libdaisy/Middlewares/Third_Party/FatFs/src/option/ccsbcs.c **** 
 265:../libdaisy/Middlewares/Third_Party/FatFs/src/option/ccsbcs.c **** #endif
 266:../libdaisy/Middlewares/Third_Party/FatFs/src/option/ccsbcs.c **** 
 267:../libdaisy/Middlewares/Third_Party/FatFs/src/option/ccsbcs.c **** 
 268:../libdaisy/Middlewares/Third_Party/FatFs/src/option/ccsbcs.c **** #if !_TBLDEF || !_USE_LFN
 269:../libdaisy/Middlewares/Third_Party/FatFs/src/option/ccsbcs.c **** #error This file is not needed at current configuration. Remove from the project.
 270:../libdaisy/Middlewares/Third_Party/FatFs/src/option/ccsbcs.c **** #endif
 271:../libdaisy/Middlewares/Third_Party/FatFs/src/option/ccsbcs.c **** 
 272:../libdaisy/Middlewares/Third_Party/FatFs/src/option/ccsbcs.c **** 
 273:../libdaisy/Middlewares/Third_Party/FatFs/src/option/ccsbcs.c **** 
 274:../libdaisy/Middlewares/Third_Party/FatFs/src/option/ccsbcs.c **** 
 275:../libdaisy/Middlewares/Third_Party/FatFs/src/option/ccsbcs.c **** WCHAR ff_convert (	/* Converted character, Returns zero on error */
 276:../libdaisy/Middlewares/Third_Party/FatFs/src/option/ccsbcs.c **** 	WCHAR	chr,	/* Character code to be converted */
 277:../libdaisy/Middlewares/Third_Party/FatFs/src/option/ccsbcs.c **** 	UINT	dir		/* 0: Unicode to OEM code, 1: OEM code to Unicode */
 278:../libdaisy/Middlewares/Third_Party/FatFs/src/option/ccsbcs.c **** )
 279:../libdaisy/Middlewares/Third_Party/FatFs/src/option/ccsbcs.c **** {
  30              		.loc 1 279 1 view -0
  31              		.cfi_startproc
  32              		@ args = 0, pretend = 0, frame = 0
  33              		@ frame_needed = 0, uses_anonymous_args = 0
  34              		@ link register save eliminated.
 280:../libdaisy/Middlewares/Third_Party/FatFs/src/option/ccsbcs.c **** 	WCHAR c;
  35              		.loc 1 280 2 view .LVU1
 281:../libdaisy/Middlewares/Third_Party/FatFs/src/option/ccsbcs.c **** 
 282:../libdaisy/Middlewares/Third_Party/FatFs/src/option/ccsbcs.c **** 
 283:../libdaisy/Middlewares/Third_Party/FatFs/src/option/ccsbcs.c **** 	if (chr < 0x80) {	/* ASCII */
  36              		.loc 1 283 2 view .LVU2
  37              		.loc 1 283 5 is_stmt 0 view .LVU3
  38 0000 7F28     		cmp	r0, #127
  39 0002 13D9     		bls	.L11
 284:../libdaisy/Middlewares/Third_Party/FatFs/src/option/ccsbcs.c **** 		c = chr;
 285:../libdaisy/Middlewares/Third_Party/FatFs/src/option/ccsbcs.c **** 
 286:../libdaisy/Middlewares/Third_Party/FatFs/src/option/ccsbcs.c **** 	} else {
 287:../libdaisy/Middlewares/Third_Party/FatFs/src/option/ccsbcs.c **** 		if (dir) {		/* OEM code to Unicode */
  40              		.loc 1 287 3 is_stmt 1 view .LVU4
  41              		.loc 1 287 6 is_stmt 0 view .LVU5
  42 0004 99B9     		cbnz	r1, .L3
  43 0006 0F4A     		ldr	r2, .L16
  44 0008 C723     		movs	r3, #199
 279:../libdaisy/Middlewares/Third_Party/FatFs/src/option/ccsbcs.c **** 	WCHAR c;
  45              		.loc 1 279 1 view .LVU6
  46 000a 10B4     		push	{r4}
  47              		.cfi_def_cfa_offset 4
  48              		.cfi_offset 4, -4
  49 000c 03E0     		b	.L4
  50              	.LVL1:
  51              	.L15:
 288:../libdaisy/Middlewares/Third_Party/FatFs/src/option/ccsbcs.c **** 			c = (chr >= 0x100) ? 0 : Tbl[chr - 0x80];
 289:../libdaisy/Middlewares/Third_Party/FatFs/src/option/ccsbcs.c **** 
 290:../libdaisy/Middlewares/Third_Party/FatFs/src/option/ccsbcs.c **** 		} else {		/* Unicode to OEM code */
 291:../libdaisy/Middlewares/Third_Party/FatFs/src/option/ccsbcs.c **** 			for (c = 0; c < 0x80; c++) {
ARM GAS  /var/folders/0d/2ntwfkp1791d52chq7d_xwdm0000gn/T//ccwQndaS.s 			page 7


  52              		.loc 1 291 4 discriminator 2 view .LVU7
  53 000e 8029     		cmp	r1, #128
  54 0010 16D0     		beq	.L8
  55 0012 32F8023F 		ldrh	r3, [r2, #2]!
  56              	.LVL2:
  57              	.L4:
  58              		.loc 1 291 26 is_stmt 1 view .LVU8
  59              		.loc 1 291 16 view .LVU9
 292:../libdaisy/Middlewares/Third_Party/FatFs/src/option/ccsbcs.c **** 				if (chr == Tbl[c]) break;
  60              		.loc 1 292 8 is_stmt 0 view .LVU10
  61 0016 9842     		cmp	r0, r3
  62 0018 8CB2     		uxth	r4, r1
  63              	.LVL3:
  64              		.loc 1 292 5 is_stmt 1 view .LVU11
  65 001a 01F10101 		add	r1, r1, #1
  66              	.LVL4:
  67              		.loc 1 292 8 is_stmt 0 view .LVU12
  68 001e F6D1     		bne	.L15
  69 0020 04F18000 		add	r0, r4, #128
  70              	.LVL5:
  71              		.loc 1 292 8 view .LVU13
  72 0024 80B2     		uxth	r0, r0
  73              	.LVL6:
  74              	.L2:
 293:../libdaisy/Middlewares/Third_Party/FatFs/src/option/ccsbcs.c **** 			}
 294:../libdaisy/Middlewares/Third_Party/FatFs/src/option/ccsbcs.c **** 			c = (c + 0x80) & 0xFF;
 295:../libdaisy/Middlewares/Third_Party/FatFs/src/option/ccsbcs.c **** 		}
 296:../libdaisy/Middlewares/Third_Party/FatFs/src/option/ccsbcs.c **** 	}
 297:../libdaisy/Middlewares/Third_Party/FatFs/src/option/ccsbcs.c **** 
 298:../libdaisy/Middlewares/Third_Party/FatFs/src/option/ccsbcs.c **** 	return c;
  75              		.loc 1 298 2 is_stmt 1 view .LVU14
 299:../libdaisy/Middlewares/Third_Party/FatFs/src/option/ccsbcs.c **** }
  76              		.loc 1 299 1 is_stmt 0 view .LVU15
  77 0026 5DF8044B 		ldr	r4, [sp], #4
  78              		.cfi_restore 4
  79              		.cfi_def_cfa_offset 0
  80 002a 7047     		bx	lr
  81              	.LVL7:
  82              	.L11:
 298:../libdaisy/Middlewares/Third_Party/FatFs/src/option/ccsbcs.c **** }
  83              		.loc 1 298 2 is_stmt 1 view .LVU16
  84              		.loc 1 299 1 is_stmt 0 view .LVU17
  85 002c 7047     		bx	lr
  86              	.LVL8:
  87              	.L3:
 288:../libdaisy/Middlewares/Third_Party/FatFs/src/option/ccsbcs.c **** 
  88              		.loc 1 288 4 is_stmt 1 view .LVU18
 288:../libdaisy/Middlewares/Third_Party/FatFs/src/option/ccsbcs.c **** 
  89              		.loc 1 288 6 is_stmt 0 view .LVU19
  90 002e FF28     		cmp	r0, #255
  91 0030 04D8     		bhi	.L7
 288:../libdaisy/Middlewares/Third_Party/FatFs/src/option/ccsbcs.c **** 
  92              		.loc 1 288 6 discriminator 1 view .LVU20
  93 0032 044B     		ldr	r3, .L16
  94 0034 8038     		subs	r0, r0, #128
  95              	.LVL9:
 288:../libdaisy/Middlewares/Third_Party/FatFs/src/option/ccsbcs.c **** 
ARM GAS  /var/folders/0d/2ntwfkp1791d52chq7d_xwdm0000gn/T//ccwQndaS.s 			page 8


  96              		.loc 1 288 6 discriminator 1 view .LVU21
  97 0036 33F81000 		ldrh	r0, [r3, r0, lsl #1]
  98 003a 7047     		bx	lr
  99              	.LVL10:
 100              	.L7:
 288:../libdaisy/Middlewares/Third_Party/FatFs/src/option/ccsbcs.c **** 
 101              		.loc 1 288 6 view .LVU22
 102 003c 0020     		movs	r0, #0
 103              	.LVL11:
 288:../libdaisy/Middlewares/Third_Party/FatFs/src/option/ccsbcs.c **** 
 104              		.loc 1 288 6 view .LVU23
 105 003e 7047     		bx	lr
 106              	.LVL12:
 107              	.L8:
 108              		.cfi_def_cfa_offset 4
 109              		.cfi_offset 4, -4
 288:../libdaisy/Middlewares/Third_Party/FatFs/src/option/ccsbcs.c **** 
 110              		.loc 1 288 6 view .LVU24
 111 0040 0020     		movs	r0, #0
 112              	.LVL13:
 294:../libdaisy/Middlewares/Third_Party/FatFs/src/option/ccsbcs.c **** 		}
 113              		.loc 1 294 4 is_stmt 1 view .LVU25
 294:../libdaisy/Middlewares/Third_Party/FatFs/src/option/ccsbcs.c **** 		}
 114              		.loc 1 294 4 is_stmt 0 view .LVU26
 115 0042 F0E7     		b	.L2
 116              	.L17:
 117              		.align	2
 118              	.L16:
 119 0044 00000000 		.word	.LANCHOR0
 120              		.cfi_endproc
 121              	.LFE320:
 123              		.section	.text.ff_wtoupper,"ax",%progbits
 124              		.align	1
 125              		.p2align 2,,3
 126              		.global	ff_wtoupper
 127              		.syntax unified
 128              		.thumb
 129              		.thumb_func
 130              		.fpu fpv5-d16
 132              	ff_wtoupper:
 133              	.LVL14:
 134              	.LFB321:
 300:../libdaisy/Middlewares/Third_Party/FatFs/src/option/ccsbcs.c **** 
 301:../libdaisy/Middlewares/Third_Party/FatFs/src/option/ccsbcs.c **** 
 302:../libdaisy/Middlewares/Third_Party/FatFs/src/option/ccsbcs.c **** 
 303:../libdaisy/Middlewares/Third_Party/FatFs/src/option/ccsbcs.c **** WCHAR ff_wtoupper (	/* Returns upper converted character */
 304:../libdaisy/Middlewares/Third_Party/FatFs/src/option/ccsbcs.c **** 	WCHAR chr		/* Unicode character to be upper converted (BMP only) */
 305:../libdaisy/Middlewares/Third_Party/FatFs/src/option/ccsbcs.c **** )
 306:../libdaisy/Middlewares/Third_Party/FatFs/src/option/ccsbcs.c **** {
 135              		.loc 1 306 1 is_stmt 1 view -0
 136              		.cfi_startproc
 137              		@ args = 0, pretend = 0, frame = 0
 138              		@ frame_needed = 0, uses_anonymous_args = 0
 139              		@ link register save eliminated.
 307:../libdaisy/Middlewares/Third_Party/FatFs/src/option/ccsbcs.c **** 	/* Compressed upper conversion table */
 308:../libdaisy/Middlewares/Third_Party/FatFs/src/option/ccsbcs.c **** 	static const WCHAR cvt1[] = {	/* U+0000 - U+0FFF */
 140              		.loc 1 308 2 view .LVU28
ARM GAS  /var/folders/0d/2ntwfkp1791d52chq7d_xwdm0000gn/T//ccwQndaS.s 			page 9


 309:../libdaisy/Middlewares/Third_Party/FatFs/src/option/ccsbcs.c **** 		/* Basic Latin */
 310:../libdaisy/Middlewares/Third_Party/FatFs/src/option/ccsbcs.c **** 		0x0061,0x031A,
 311:../libdaisy/Middlewares/Third_Party/FatFs/src/option/ccsbcs.c **** 		/* Latin-1 Supplement */
 312:../libdaisy/Middlewares/Third_Party/FatFs/src/option/ccsbcs.c **** 		0x00E0,0x0317,  0x00F8,0x0307,  0x00FF,0x0001,0x0178,
 313:../libdaisy/Middlewares/Third_Party/FatFs/src/option/ccsbcs.c **** 		/* Latin Extended-A */
 314:../libdaisy/Middlewares/Third_Party/FatFs/src/option/ccsbcs.c **** 		0x0100,0x0130,  0x0132,0x0106,  0x0139,0x0110,  0x014A,0x012E,  0x0179,0x0106,
 315:../libdaisy/Middlewares/Third_Party/FatFs/src/option/ccsbcs.c **** 		/* Latin Extended-B */
 316:../libdaisy/Middlewares/Third_Party/FatFs/src/option/ccsbcs.c **** 		0x0180,0x004D,0x0243,0x0181,0x0182,0x0182,0x0184,0x0184,0x0186,0x0187,0x0187,0x0189,0x018A,0x018B
 317:../libdaisy/Middlewares/Third_Party/FatFs/src/option/ccsbcs.c **** 		0x01CD,0x0110,  0x01DD,0x0001,0x018E,  0x01DE,0x0112,  0x01F3,0x0003,0x01F1,0x01F4,0x01F4,  0x01F
 318:../libdaisy/Middlewares/Third_Party/FatFs/src/option/ccsbcs.c **** 		0x0222,0x0112,  0x023A,0x0009,0x2C65,0x023B,0x023B,0x023D,0x2C66,0x023F,0x0240,0x0241,0x0241,  0x
 319:../libdaisy/Middlewares/Third_Party/FatFs/src/option/ccsbcs.c **** 		/* IPA Extensions */
 320:../libdaisy/Middlewares/Third_Party/FatFs/src/option/ccsbcs.c **** 		0x0253,0x0040,0x0181,0x0186,0x0255,0x0189,0x018A,0x0258,0x018F,0x025A,0x0190,0x025C,0x025D,0x025E
 321:../libdaisy/Middlewares/Third_Party/FatFs/src/option/ccsbcs.c **** 		/* Greek, Coptic */
 322:../libdaisy/Middlewares/Third_Party/FatFs/src/option/ccsbcs.c **** 		0x037B,0x0003,0x03FD,0x03FE,0x03FF,  0x03AC,0x0004,0x0386,0x0388,0x0389,0x038A,  0x03B1,0x0311,
 323:../libdaisy/Middlewares/Third_Party/FatFs/src/option/ccsbcs.c **** 		0x03C2,0x0002,0x03A3,0x03A3,  0x03C4,0x0308,  0x03CC,0x0003,0x038C,0x038E,0x038F,  0x03D8,0x0118,
 324:../libdaisy/Middlewares/Third_Party/FatFs/src/option/ccsbcs.c **** 		0x03F2,0x000A,0x03F9,0x03F3,0x03F4,0x03F5,0x03F6,0x03F7,0x03F7,0x03F9,0x03FA,0x03FA,
 325:../libdaisy/Middlewares/Third_Party/FatFs/src/option/ccsbcs.c **** 		/* Cyrillic */
 326:../libdaisy/Middlewares/Third_Party/FatFs/src/option/ccsbcs.c **** 		0x0430,0x0320,  0x0450,0x0710,  0x0460,0x0122,  0x048A,0x0136,  0x04C1,0x010E,  0x04CF,0x0001,0x0
 327:../libdaisy/Middlewares/Third_Party/FatFs/src/option/ccsbcs.c **** 		/* Armenian */
 328:../libdaisy/Middlewares/Third_Party/FatFs/src/option/ccsbcs.c **** 		0x0561,0x0426,
 329:../libdaisy/Middlewares/Third_Party/FatFs/src/option/ccsbcs.c **** 
 330:../libdaisy/Middlewares/Third_Party/FatFs/src/option/ccsbcs.c **** 		0x0000
 331:../libdaisy/Middlewares/Third_Party/FatFs/src/option/ccsbcs.c **** 	};
 332:../libdaisy/Middlewares/Third_Party/FatFs/src/option/ccsbcs.c **** 	static const WCHAR cvt2[] = {	/* U+1000 - U+FFFF */
 141              		.loc 1 332 2 view .LVU29
 333:../libdaisy/Middlewares/Third_Party/FatFs/src/option/ccsbcs.c **** 		/* Phonetic Extensions */
 334:../libdaisy/Middlewares/Third_Party/FatFs/src/option/ccsbcs.c **** 		0x1D7D,0x0001,0x2C63,
 335:../libdaisy/Middlewares/Third_Party/FatFs/src/option/ccsbcs.c **** 		/* Latin Extended Additional */
 336:../libdaisy/Middlewares/Third_Party/FatFs/src/option/ccsbcs.c **** 		0x1E00,0x0196,  0x1EA0,0x015A,
 337:../libdaisy/Middlewares/Third_Party/FatFs/src/option/ccsbcs.c **** 		/* Greek Extended */
 338:../libdaisy/Middlewares/Third_Party/FatFs/src/option/ccsbcs.c **** 		0x1F00,0x0608,  0x1F10,0x0606,  0x1F20,0x0608,  0x1F30,0x0608,  0x1F40,0x0606,
 339:../libdaisy/Middlewares/Third_Party/FatFs/src/option/ccsbcs.c **** 		0x1F51,0x0007,0x1F59,0x1F52,0x1F5B,0x1F54,0x1F5D,0x1F56,0x1F5F,  0x1F60,0x0608,
 340:../libdaisy/Middlewares/Third_Party/FatFs/src/option/ccsbcs.c **** 		0x1F70,0x000E,0x1FBA,0x1FBB,0x1FC8,0x1FC9,0x1FCA,0x1FCB,0x1FDA,0x1FDB,0x1FF8,0x1FF9,0x1FEA,0x1FEB
 341:../libdaisy/Middlewares/Third_Party/FatFs/src/option/ccsbcs.c **** 		0x1F80,0x0608,  0x1F90,0x0608,  0x1FA0,0x0608,  0x1FB0,0x0004,0x1FB8,0x1FB9,0x1FB2,0x1FBC,
 342:../libdaisy/Middlewares/Third_Party/FatFs/src/option/ccsbcs.c **** 		0x1FCC,0x0001,0x1FC3,  0x1FD0,0x0602,  0x1FE0,0x0602,  0x1FE5,0x0001,0x1FEC,  0x1FF2,0x0001,0x1FF
 343:../libdaisy/Middlewares/Third_Party/FatFs/src/option/ccsbcs.c **** 		/* Letterlike Symbols */
 344:../libdaisy/Middlewares/Third_Party/FatFs/src/option/ccsbcs.c **** 		0x214E,0x0001,0x2132,
 345:../libdaisy/Middlewares/Third_Party/FatFs/src/option/ccsbcs.c **** 		/* Number forms */
 346:../libdaisy/Middlewares/Third_Party/FatFs/src/option/ccsbcs.c **** 		0x2170,0x0210,  0x2184,0x0001,0x2183,
 347:../libdaisy/Middlewares/Third_Party/FatFs/src/option/ccsbcs.c **** 		/* Enclosed Alphanumerics */
 348:../libdaisy/Middlewares/Third_Party/FatFs/src/option/ccsbcs.c **** 		0x24D0,0x051A,  0x2C30,0x042F,
 349:../libdaisy/Middlewares/Third_Party/FatFs/src/option/ccsbcs.c **** 		/* Latin Extended-C */
 350:../libdaisy/Middlewares/Third_Party/FatFs/src/option/ccsbcs.c **** 		0x2C60,0x0102,  0x2C67,0x0106, 0x2C75,0x0102,
 351:../libdaisy/Middlewares/Third_Party/FatFs/src/option/ccsbcs.c **** 		/* Coptic */
 352:../libdaisy/Middlewares/Third_Party/FatFs/src/option/ccsbcs.c **** 		0x2C80,0x0164,
 353:../libdaisy/Middlewares/Third_Party/FatFs/src/option/ccsbcs.c **** 		/* Georgian Supplement */
 354:../libdaisy/Middlewares/Third_Party/FatFs/src/option/ccsbcs.c **** 		0x2D00,0x0826,
 355:../libdaisy/Middlewares/Third_Party/FatFs/src/option/ccsbcs.c **** 		/* Full-width */
 356:../libdaisy/Middlewares/Third_Party/FatFs/src/option/ccsbcs.c **** 		0xFF41,0x031A,
 357:../libdaisy/Middlewares/Third_Party/FatFs/src/option/ccsbcs.c **** 
 358:../libdaisy/Middlewares/Third_Party/FatFs/src/option/ccsbcs.c **** 		0x0000
 359:../libdaisy/Middlewares/Third_Party/FatFs/src/option/ccsbcs.c **** 	};
 360:../libdaisy/Middlewares/Third_Party/FatFs/src/option/ccsbcs.c **** 	const WCHAR *p;
 142              		.loc 1 360 2 view .LVU30
 361:../libdaisy/Middlewares/Third_Party/FatFs/src/option/ccsbcs.c **** 	WCHAR bc, nc, cmd;
 143              		.loc 1 361 2 view .LVU31
 362:../libdaisy/Middlewares/Third_Party/FatFs/src/option/ccsbcs.c **** 
ARM GAS  /var/folders/0d/2ntwfkp1791d52chq7d_xwdm0000gn/T//ccwQndaS.s 			page 10


 363:../libdaisy/Middlewares/Third_Party/FatFs/src/option/ccsbcs.c **** 
 364:../libdaisy/Middlewares/Third_Party/FatFs/src/option/ccsbcs.c **** 	p = chr < 0x1000 ? cvt1 : cvt2;
 144              		.loc 1 364 2 view .LVU32
 145              		.loc 1 364 26 is_stmt 0 view .LVU33
 146 0000 B0F5805F 		cmp	r0, #4096
 147 0004 234A     		ldr	r2, .L37
 148 0006 244B     		ldr	r3, .L37+4
 149 0008 41F67D51 		movw	r1, #7549
 150 000c 2CBF     		ite	cs
 151 000e 1346     		movcs	r3, r2
 152 0010 6121     		movcc	r1, #97
 306:../libdaisy/Middlewares/Third_Party/FatFs/src/option/ccsbcs.c **** 	/* Compressed upper conversion table */
 153              		.loc 1 306 1 view .LVU34
 154 0012 70B4     		push	{r4, r5, r6}
 155              		.cfi_def_cfa_offset 12
 156              		.cfi_offset 4, -12
 157              		.cfi_offset 5, -8
 158              		.cfi_offset 6, -4
 159              	.L34:
 160 0014 0433     		adds	r3, r3, #4
 161 0016 03E0     		b	.L33
 162              	.LVL15:
 163              	.L21:
 306:../libdaisy/Middlewares/Third_Party/FatFs/src/option/ccsbcs.c **** 	/* Compressed upper conversion table */
 164              		.loc 1 306 1 view .LVU35
 165 0018 0433     		adds	r3, r3, #4
 166              	.LVL16:
 365:../libdaisy/Middlewares/Third_Party/FatFs/src/option/ccsbcs.c **** 	for (;;) {
 366:../libdaisy/Middlewares/Third_Party/FatFs/src/option/ccsbcs.c **** 		bc = *p++;								/* Get block base */
 367:../libdaisy/Middlewares/Third_Party/FatFs/src/option/ccsbcs.c **** 		if (!bc || chr < bc) break;
 368:../libdaisy/Middlewares/Third_Party/FatFs/src/option/ccsbcs.c **** 		nc = *p++; cmd = nc >> 8; nc &= 0xFF;	/* Get processing command and block size */
 369:../libdaisy/Middlewares/Third_Party/FatFs/src/option/ccsbcs.c **** 		if (chr < bc + nc) {	/* In the block? */
 370:../libdaisy/Middlewares/Third_Party/FatFs/src/option/ccsbcs.c **** 			switch (cmd) {
 371:../libdaisy/Middlewares/Third_Party/FatFs/src/option/ccsbcs.c **** 			case 0:	chr = p[chr - bc]; break;		/* Table conversion */
 372:../libdaisy/Middlewares/Third_Party/FatFs/src/option/ccsbcs.c **** 			case 1:	chr -= (chr - bc) & 1; break;	/* Case pairs */
 373:../libdaisy/Middlewares/Third_Party/FatFs/src/option/ccsbcs.c **** 			case 2: chr -= 16; break;				/* Shift -16 */
 374:../libdaisy/Middlewares/Third_Party/FatFs/src/option/ccsbcs.c **** 			case 3:	chr -= 32; break;				/* Shift -32 */
 375:../libdaisy/Middlewares/Third_Party/FatFs/src/option/ccsbcs.c **** 			case 4:	chr -= 48; break;				/* Shift -48 */
 376:../libdaisy/Middlewares/Third_Party/FatFs/src/option/ccsbcs.c **** 			case 5:	chr -= 26; break;				/* Shift -26 */
 377:../libdaisy/Middlewares/Third_Party/FatFs/src/option/ccsbcs.c **** 			case 6:	chr += 8; break;				/* Shift +8 */
 378:../libdaisy/Middlewares/Third_Party/FatFs/src/option/ccsbcs.c **** 			case 7: chr -= 80; break;				/* Shift -80 */
 379:../libdaisy/Middlewares/Third_Party/FatFs/src/option/ccsbcs.c **** 			case 8:	chr -= 0x1C60; break;			/* Shift -0x1C60 */
 380:../libdaisy/Middlewares/Third_Party/FatFs/src/option/ccsbcs.c **** 			}
 381:../libdaisy/Middlewares/Third_Party/FatFs/src/option/ccsbcs.c **** 			break;
 382:../libdaisy/Middlewares/Third_Party/FatFs/src/option/ccsbcs.c **** 		}
 383:../libdaisy/Middlewares/Third_Party/FatFs/src/option/ccsbcs.c **** 		if (!cmd) p += nc;
 167              		.loc 1 383 6 view .LVU36
 168 001a D2B1     		cbz	r2, .L32
 169              		.loc 1 383 6 view .LVU37
 170 001c 33F8041C 		ldrh	r1, [r3, #-4]
 171              	.LVL17:
 172              	.L33:
 365:../libdaisy/Middlewares/Third_Party/FatFs/src/option/ccsbcs.c **** 	for (;;) {
 173              		.loc 1 365 2 is_stmt 1 view .LVU38
 366:../libdaisy/Middlewares/Third_Party/FatFs/src/option/ccsbcs.c **** 		if (!bc || chr < bc) break;
 174              		.loc 1 366 3 view .LVU39
 367:../libdaisy/Middlewares/Third_Party/FatFs/src/option/ccsbcs.c **** 		nc = *p++; cmd = nc >> 8; nc &= 0xFF;	/* Get processing command and block size */
ARM GAS  /var/folders/0d/2ntwfkp1791d52chq7d_xwdm0000gn/T//ccwQndaS.s 			page 11


 175              		.loc 1 367 3 view .LVU40
 368:../libdaisy/Middlewares/Third_Party/FatFs/src/option/ccsbcs.c **** 		if (chr < bc + nc) {	/* In the block? */
 176              		.loc 1 368 3 view .LVU41
 177              		.loc 1 383 3 view .LVU42
 368:../libdaisy/Middlewares/Third_Party/FatFs/src/option/ccsbcs.c **** 		if (chr < bc + nc) {	/* In the block? */
 178              		.loc 1 368 10 is_stmt 0 view .LVU43
 179 0020 1E46     		mov	r6, r3
 180              	.LVL18:
 367:../libdaisy/Middlewares/Third_Party/FatFs/src/option/ccsbcs.c **** 		nc = *p++; cmd = nc >> 8; nc &= 0xFF;	/* Get processing command and block size */
 181              		.loc 1 367 6 view .LVU44
 182 0022 A1B1     		cbz	r1, .L20
 183 0024 8842     		cmp	r0, r1
 184 0026 12D3     		bcc	.L20
 368:../libdaisy/Middlewares/Third_Party/FatFs/src/option/ccsbcs.c **** 		if (chr < bc + nc) {	/* In the block? */
 185              		.loc 1 368 6 view .LVU45
 186 0028 33F8022C 		ldrh	r2, [r3, #-2]
 187              	.LVL19:
 368:../libdaisy/Middlewares/Third_Party/FatFs/src/option/ccsbcs.c **** 		if (chr < bc + nc) {	/* In the block? */
 188              		.loc 1 368 14 is_stmt 1 view .LVU46
 368:../libdaisy/Middlewares/Third_Party/FatFs/src/option/ccsbcs.c **** 		if (chr < bc + nc) {	/* In the block? */
 189              		.loc 1 368 32 is_stmt 0 view .LVU47
 190 002c D4B2     		uxtb	r4, r2
 368:../libdaisy/Middlewares/Third_Party/FatFs/src/option/ccsbcs.c **** 		if (chr < bc + nc) {	/* In the block? */
 191              		.loc 1 368 18 view .LVU48
 192 002e 120A     		lsrs	r2, r2, #8
 193              	.LVL20:
 368:../libdaisy/Middlewares/Third_Party/FatFs/src/option/ccsbcs.c **** 		if (chr < bc + nc) {	/* In the block? */
 194              		.loc 1 368 29 is_stmt 1 view .LVU49
 369:../libdaisy/Middlewares/Third_Party/FatFs/src/option/ccsbcs.c **** 			switch (cmd) {
 195              		.loc 1 369 3 view .LVU50
 369:../libdaisy/Middlewares/Third_Party/FatFs/src/option/ccsbcs.c **** 			switch (cmd) {
 196              		.loc 1 369 16 is_stmt 0 view .LVU51
 197 0030 6518     		adds	r5, r4, r1
 369:../libdaisy/Middlewares/Third_Party/FatFs/src/option/ccsbcs.c **** 			switch (cmd) {
 198              		.loc 1 369 6 view .LVU52
 199 0032 A842     		cmp	r0, r5
 200 0034 F0DA     		bge	.L21
 370:../libdaisy/Middlewares/Third_Party/FatFs/src/option/ccsbcs.c **** 			case 0:	chr = p[chr - bc]; break;		/* Table conversion */
 201              		.loc 1 370 4 is_stmt 1 view .LVU53
 202 0036 082A     		cmp	r2, #8
 203 0038 09D8     		bhi	.L20
 204 003a DFE802F0 		tbb	[pc, r2]
 205              	.LVL21:
 206              	.L23:
 207 003e 05       		.byte	(.L31-.L23)/2
 208 003f 13       		.byte	(.L30-.L23)/2
 209 0040 19       		.byte	(.L29-.L23)/2
 210 0041 1C       		.byte	(.L28-.L23)/2
 211 0042 1F       		.byte	(.L27-.L23)/2
 212 0043 22       		.byte	(.L26-.L23)/2
 213 0044 25       		.byte	(.L25-.L23)/2
 214 0045 28       		.byte	(.L24-.L23)/2
 215 0046 0F       		.byte	(.L22-.L23)/2
 216 0047 00       		.p2align 1
 217              	.L31:
 371:../libdaisy/Middlewares/Third_Party/FatFs/src/option/ccsbcs.c **** 			case 1:	chr -= (chr - bc) & 1; break;	/* Case pairs */
 218              		.loc 1 371 12 view .LVU54
ARM GAS  /var/folders/0d/2ntwfkp1791d52chq7d_xwdm0000gn/T//ccwQndaS.s 			page 12


 371:../libdaisy/Middlewares/Third_Party/FatFs/src/option/ccsbcs.c **** 			case 1:	chr -= (chr - bc) & 1; break;	/* Case pairs */
 219              		.loc 1 371 24 is_stmt 0 view .LVU55
 220 0048 411A     		subs	r1, r0, r1
 371:../libdaisy/Middlewares/Third_Party/FatFs/src/option/ccsbcs.c **** 			case 1:	chr -= (chr - bc) & 1; break;	/* Case pairs */
 221              		.loc 1 371 16 view .LVU56
 222 004a 33F81100 		ldrh	r0, [r3, r1, lsl #1]
 223              	.LVL22:
 371:../libdaisy/Middlewares/Third_Party/FatFs/src/option/ccsbcs.c **** 			case 1:	chr -= (chr - bc) & 1; break;	/* Case pairs */
 224              		.loc 1 371 31 is_stmt 1 view .LVU57
 225              	.L20:
 384:../libdaisy/Middlewares/Third_Party/FatFs/src/option/ccsbcs.c **** 	}
 385:../libdaisy/Middlewares/Third_Party/FatFs/src/option/ccsbcs.c **** 
 386:../libdaisy/Middlewares/Third_Party/FatFs/src/option/ccsbcs.c **** 	return chr;
 226              		.loc 1 386 2 view .LVU58
 387:../libdaisy/Middlewares/Third_Party/FatFs/src/option/ccsbcs.c **** }
 227              		.loc 1 387 1 is_stmt 0 view .LVU59
 228 004e 70BC     		pop	{r4, r5, r6}
 229              		.cfi_remember_state
 230              		.cfi_restore 6
 231              		.cfi_restore 5
 232              		.cfi_restore 4
 233              		.cfi_def_cfa_offset 0
 234              	.LVL23:
 235              		.loc 1 387 1 view .LVU60
 236 0050 7047     		bx	lr
 237              	.LVL24:
 238              	.L32:
 239              		.cfi_restore_state
 383:../libdaisy/Middlewares/Third_Party/FatFs/src/option/ccsbcs.c **** 	}
 240              		.loc 1 383 13 is_stmt 1 discriminator 1 view .LVU61
 383:../libdaisy/Middlewares/Third_Party/FatFs/src/option/ccsbcs.c **** 	}
 241              		.loc 1 383 15 is_stmt 0 discriminator 1 view .LVU62
 242 0052 06EB4403 		add	r3, r6, r4, lsl #1
 243              	.LVL25:
 383:../libdaisy/Middlewares/Third_Party/FatFs/src/option/ccsbcs.c **** 	}
 244              		.loc 1 383 15 discriminator 1 view .LVU63
 245 0056 36F81410 		ldrh	r1, [r6, r4, lsl #1]
 246 005a DBE7     		b	.L34
 247              	.LVL26:
 248              	.L22:
 379:../libdaisy/Middlewares/Third_Party/FatFs/src/option/ccsbcs.c **** 			}
 249              		.loc 1 379 12 is_stmt 1 view .LVU64
 379:../libdaisy/Middlewares/Third_Party/FatFs/src/option/ccsbcs.c **** 			}
 250              		.loc 1 379 16 is_stmt 0 view .LVU65
 251 005c A0F5E350 		sub	r0, r0, #7264
 252              	.LVL27:
 379:../libdaisy/Middlewares/Third_Party/FatFs/src/option/ccsbcs.c **** 			}
 253              		.loc 1 379 16 view .LVU66
 254 0060 80B2     		uxth	r0, r0
 255              	.LVL28:
 379:../libdaisy/Middlewares/Third_Party/FatFs/src/option/ccsbcs.c **** 			}
 256              		.loc 1 379 27 is_stmt 1 view .LVU67
 379:../libdaisy/Middlewares/Third_Party/FatFs/src/option/ccsbcs.c **** 			}
 257              		.loc 1 379 4 is_stmt 0 view .LVU68
 258 0062 F4E7     		b	.L20
 259              	.L30:
 372:../libdaisy/Middlewares/Third_Party/FatFs/src/option/ccsbcs.c **** 			case 2: chr -= 16; break;				/* Shift -16 */
ARM GAS  /var/folders/0d/2ntwfkp1791d52chq7d_xwdm0000gn/T//ccwQndaS.s 			page 13


 260              		.loc 1 372 12 is_stmt 1 view .LVU69
 372:../libdaisy/Middlewares/Third_Party/FatFs/src/option/ccsbcs.c **** 			case 2: chr -= 16; break;				/* Shift -16 */
 261              		.loc 1 372 30 is_stmt 0 view .LVU70
 262 0064 411A     		subs	r1, r0, r1
 263 0066 01F00103 		and	r3, r1, #1
 264              	.LVL29:
 372:../libdaisy/Middlewares/Third_Party/FatFs/src/option/ccsbcs.c **** 			case 2: chr -= 16; break;				/* Shift -16 */
 265              		.loc 1 372 16 view .LVU71
 266 006a C01A     		subs	r0, r0, r3
 267              	.LVL30:
 372:../libdaisy/Middlewares/Third_Party/FatFs/src/option/ccsbcs.c **** 			case 2: chr -= 16; break;				/* Shift -16 */
 268              		.loc 1 372 16 view .LVU72
 269 006c 80B2     		uxth	r0, r0
 270              	.LVL31:
 372:../libdaisy/Middlewares/Third_Party/FatFs/src/option/ccsbcs.c **** 			case 2: chr -= 16; break;				/* Shift -16 */
 271              		.loc 1 372 35 is_stmt 1 view .LVU73
 372:../libdaisy/Middlewares/Third_Party/FatFs/src/option/ccsbcs.c **** 			case 2: chr -= 16; break;				/* Shift -16 */
 272              		.loc 1 372 4 is_stmt 0 view .LVU74
 273 006e EEE7     		b	.L20
 274              	.LVL32:
 275              	.L29:
 373:../libdaisy/Middlewares/Third_Party/FatFs/src/option/ccsbcs.c **** 			case 3:	chr -= 32; break;				/* Shift -32 */
 276              		.loc 1 373 12 is_stmt 1 view .LVU75
 373:../libdaisy/Middlewares/Third_Party/FatFs/src/option/ccsbcs.c **** 			case 3:	chr -= 32; break;				/* Shift -32 */
 277              		.loc 1 373 16 is_stmt 0 view .LVU76
 278 0070 1038     		subs	r0, r0, #16
 279              	.LVL33:
 373:../libdaisy/Middlewares/Third_Party/FatFs/src/option/ccsbcs.c **** 			case 3:	chr -= 32; break;				/* Shift -32 */
 280              		.loc 1 373 16 view .LVU77
 281 0072 80B2     		uxth	r0, r0
 282              	.LVL34:
 373:../libdaisy/Middlewares/Third_Party/FatFs/src/option/ccsbcs.c **** 			case 3:	chr -= 32; break;				/* Shift -32 */
 283              		.loc 1 373 23 is_stmt 1 view .LVU78
 373:../libdaisy/Middlewares/Third_Party/FatFs/src/option/ccsbcs.c **** 			case 3:	chr -= 32; break;				/* Shift -32 */
 284              		.loc 1 373 4 is_stmt 0 view .LVU79
 285 0074 EBE7     		b	.L20
 286              	.L28:
 374:../libdaisy/Middlewares/Third_Party/FatFs/src/option/ccsbcs.c **** 			case 4:	chr -= 48; break;				/* Shift -48 */
 287              		.loc 1 374 12 is_stmt 1 view .LVU80
 374:../libdaisy/Middlewares/Third_Party/FatFs/src/option/ccsbcs.c **** 			case 4:	chr -= 48; break;				/* Shift -48 */
 288              		.loc 1 374 16 is_stmt 0 view .LVU81
 289 0076 2038     		subs	r0, r0, #32
 290              	.LVL35:
 374:../libdaisy/Middlewares/Third_Party/FatFs/src/option/ccsbcs.c **** 			case 4:	chr -= 48; break;				/* Shift -48 */
 291              		.loc 1 374 16 view .LVU82
 292 0078 80B2     		uxth	r0, r0
 293              	.LVL36:
 374:../libdaisy/Middlewares/Third_Party/FatFs/src/option/ccsbcs.c **** 			case 4:	chr -= 48; break;				/* Shift -48 */
 294              		.loc 1 374 23 is_stmt 1 view .LVU83
 374:../libdaisy/Middlewares/Third_Party/FatFs/src/option/ccsbcs.c **** 			case 4:	chr -= 48; break;				/* Shift -48 */
 295              		.loc 1 374 4 is_stmt 0 view .LVU84
 296 007a E8E7     		b	.L20
 297              	.L27:
 375:../libdaisy/Middlewares/Third_Party/FatFs/src/option/ccsbcs.c **** 			case 5:	chr -= 26; break;				/* Shift -26 */
 298              		.loc 1 375 12 is_stmt 1 view .LVU85
 375:../libdaisy/Middlewares/Third_Party/FatFs/src/option/ccsbcs.c **** 			case 5:	chr -= 26; break;				/* Shift -26 */
 299              		.loc 1 375 16 is_stmt 0 view .LVU86
ARM GAS  /var/folders/0d/2ntwfkp1791d52chq7d_xwdm0000gn/T//ccwQndaS.s 			page 14


 300 007c 3038     		subs	r0, r0, #48
 301              	.LVL37:
 375:../libdaisy/Middlewares/Third_Party/FatFs/src/option/ccsbcs.c **** 			case 5:	chr -= 26; break;				/* Shift -26 */
 302              		.loc 1 375 16 view .LVU87
 303 007e 80B2     		uxth	r0, r0
 304              	.LVL38:
 375:../libdaisy/Middlewares/Third_Party/FatFs/src/option/ccsbcs.c **** 			case 5:	chr -= 26; break;				/* Shift -26 */
 305              		.loc 1 375 23 is_stmt 1 view .LVU88
 375:../libdaisy/Middlewares/Third_Party/FatFs/src/option/ccsbcs.c **** 			case 5:	chr -= 26; break;				/* Shift -26 */
 306              		.loc 1 375 4 is_stmt 0 view .LVU89
 307 0080 E5E7     		b	.L20
 308              	.L26:
 376:../libdaisy/Middlewares/Third_Party/FatFs/src/option/ccsbcs.c **** 			case 6:	chr += 8; break;				/* Shift +8 */
 309              		.loc 1 376 12 is_stmt 1 view .LVU90
 376:../libdaisy/Middlewares/Third_Party/FatFs/src/option/ccsbcs.c **** 			case 6:	chr += 8; break;				/* Shift +8 */
 310              		.loc 1 376 16 is_stmt 0 view .LVU91
 311 0082 1A38     		subs	r0, r0, #26
 312              	.LVL39:
 376:../libdaisy/Middlewares/Third_Party/FatFs/src/option/ccsbcs.c **** 			case 6:	chr += 8; break;				/* Shift +8 */
 313              		.loc 1 376 16 view .LVU92
 314 0084 80B2     		uxth	r0, r0
 315              	.LVL40:
 376:../libdaisy/Middlewares/Third_Party/FatFs/src/option/ccsbcs.c **** 			case 6:	chr += 8; break;				/* Shift +8 */
 316              		.loc 1 376 23 is_stmt 1 view .LVU93
 376:../libdaisy/Middlewares/Third_Party/FatFs/src/option/ccsbcs.c **** 			case 6:	chr += 8; break;				/* Shift +8 */
 317              		.loc 1 376 4 is_stmt 0 view .LVU94
 318 0086 E2E7     		b	.L20
 319              	.L25:
 377:../libdaisy/Middlewares/Third_Party/FatFs/src/option/ccsbcs.c **** 			case 7: chr -= 80; break;				/* Shift -80 */
 320              		.loc 1 377 12 is_stmt 1 view .LVU95
 377:../libdaisy/Middlewares/Third_Party/FatFs/src/option/ccsbcs.c **** 			case 7: chr -= 80; break;				/* Shift -80 */
 321              		.loc 1 377 16 is_stmt 0 view .LVU96
 322 0088 0830     		adds	r0, r0, #8
 323              	.LVL41:
 377:../libdaisy/Middlewares/Third_Party/FatFs/src/option/ccsbcs.c **** 			case 7: chr -= 80; break;				/* Shift -80 */
 324              		.loc 1 377 16 view .LVU97
 325 008a 80B2     		uxth	r0, r0
 326              	.LVL42:
 377:../libdaisy/Middlewares/Third_Party/FatFs/src/option/ccsbcs.c **** 			case 7: chr -= 80; break;				/* Shift -80 */
 327              		.loc 1 377 22 is_stmt 1 view .LVU98
 377:../libdaisy/Middlewares/Third_Party/FatFs/src/option/ccsbcs.c **** 			case 7: chr -= 80; break;				/* Shift -80 */
 328              		.loc 1 377 4 is_stmt 0 view .LVU99
 329 008c DFE7     		b	.L20
 330              	.L24:
 378:../libdaisy/Middlewares/Third_Party/FatFs/src/option/ccsbcs.c **** 			case 8:	chr -= 0x1C60; break;			/* Shift -0x1C60 */
 331              		.loc 1 378 12 is_stmt 1 view .LVU100
 378:../libdaisy/Middlewares/Third_Party/FatFs/src/option/ccsbcs.c **** 			case 8:	chr -= 0x1C60; break;			/* Shift -0x1C60 */
 332              		.loc 1 378 16 is_stmt 0 view .LVU101
 333 008e 5038     		subs	r0, r0, #80
 334              	.LVL43:
 378:../libdaisy/Middlewares/Third_Party/FatFs/src/option/ccsbcs.c **** 			case 8:	chr -= 0x1C60; break;			/* Shift -0x1C60 */
 335              		.loc 1 378 16 view .LVU102
 336 0090 80B2     		uxth	r0, r0
 337              	.LVL44:
 378:../libdaisy/Middlewares/Third_Party/FatFs/src/option/ccsbcs.c **** 			case 8:	chr -= 0x1C60; break;			/* Shift -0x1C60 */
 338              		.loc 1 378 23 is_stmt 1 view .LVU103
 378:../libdaisy/Middlewares/Third_Party/FatFs/src/option/ccsbcs.c **** 			case 8:	chr -= 0x1C60; break;			/* Shift -0x1C60 */
ARM GAS  /var/folders/0d/2ntwfkp1791d52chq7d_xwdm0000gn/T//ccwQndaS.s 			page 15


 339              		.loc 1 378 4 is_stmt 0 view .LVU104
 340 0092 DCE7     		b	.L20
 341              	.L38:
 342              		.align	2
 343              	.L37:
 344 0094 00000000 		.word	.LANCHOR2
 345 0098 00000000 		.word	.LANCHOR1
 346              		.cfi_endproc
 347              	.LFE321:
 349              		.section	.rodata.Tbl,"a"
 350              		.align	2
 351              		.set	.LANCHOR0,. + 0
 354              	Tbl:
 355 0000 C700     		.short	199
 356 0002 FC00     		.short	252
 357 0004 E900     		.short	233
 358 0006 E200     		.short	226
 359 0008 E400     		.short	228
 360 000a E000     		.short	224
 361 000c E500     		.short	229
 362 000e E700     		.short	231
 363 0010 EA00     		.short	234
 364 0012 EB00     		.short	235
 365 0014 E800     		.short	232
 366 0016 EF00     		.short	239
 367 0018 EE00     		.short	238
 368 001a EC00     		.short	236
 369 001c C400     		.short	196
 370 001e C500     		.short	197
 371 0020 C900     		.short	201
 372 0022 E600     		.short	230
 373 0024 C600     		.short	198
 374 0026 F400     		.short	244
 375 0028 F600     		.short	246
 376 002a F200     		.short	242
 377 002c FB00     		.short	251
 378 002e F900     		.short	249
 379 0030 FF00     		.short	255
 380 0032 D600     		.short	214
 381 0034 DC00     		.short	220
 382 0036 F800     		.short	248
 383 0038 A300     		.short	163
 384 003a D800     		.short	216
 385 003c D700     		.short	215
 386 003e 9201     		.short	402
 387 0040 E100     		.short	225
 388 0042 ED00     		.short	237
 389 0044 F300     		.short	243
 390 0046 FA00     		.short	250
 391 0048 F100     		.short	241
 392 004a D100     		.short	209
 393 004c AA00     		.short	170
 394 004e BA00     		.short	186
 395 0050 BF00     		.short	191
 396 0052 AE00     		.short	174
 397 0054 AC00     		.short	172
 398 0056 BD00     		.short	189
ARM GAS  /var/folders/0d/2ntwfkp1791d52chq7d_xwdm0000gn/T//ccwQndaS.s 			page 16


 399 0058 BC00     		.short	188
 400 005a A100     		.short	161
 401 005c AB00     		.short	171
 402 005e BB00     		.short	187
 403 0060 9125     		.short	9617
 404 0062 9225     		.short	9618
 405 0064 9325     		.short	9619
 406 0066 0225     		.short	9474
 407 0068 2425     		.short	9508
 408 006a C100     		.short	193
 409 006c C200     		.short	194
 410 006e C000     		.short	192
 411 0070 A900     		.short	169
 412 0072 6325     		.short	9571
 413 0074 5125     		.short	9553
 414 0076 5725     		.short	9559
 415 0078 5D25     		.short	9565
 416 007a A200     		.short	162
 417 007c A500     		.short	165
 418 007e 1025     		.short	9488
 419 0080 1425     		.short	9492
 420 0082 3425     		.short	9524
 421 0084 2C25     		.short	9516
 422 0086 1C25     		.short	9500
 423 0088 0025     		.short	9472
 424 008a 3C25     		.short	9532
 425 008c E300     		.short	227
 426 008e C300     		.short	195
 427 0090 5A25     		.short	9562
 428 0092 5425     		.short	9556
 429 0094 6925     		.short	9577
 430 0096 6625     		.short	9574
 431 0098 6025     		.short	9568
 432 009a 5025     		.short	9552
 433 009c 6C25     		.short	9580
 434 009e A400     		.short	164
 435 00a0 F000     		.short	240
 436 00a2 D000     		.short	208
 437 00a4 CA00     		.short	202
 438 00a6 CB00     		.short	203
 439 00a8 C800     		.short	200
 440 00aa 3101     		.short	305
 441 00ac CD00     		.short	205
 442 00ae CE00     		.short	206
 443 00b0 CF00     		.short	207
 444 00b2 1825     		.short	9496
 445 00b4 0C25     		.short	9484
 446 00b6 8825     		.short	9608
 447 00b8 8425     		.short	9604
 448 00ba A600     		.short	166
 449 00bc CC00     		.short	204
 450 00be 8025     		.short	9600
 451 00c0 D300     		.short	211
 452 00c2 DF00     		.short	223
 453 00c4 D400     		.short	212
 454 00c6 D200     		.short	210
 455 00c8 F500     		.short	245
ARM GAS  /var/folders/0d/2ntwfkp1791d52chq7d_xwdm0000gn/T//ccwQndaS.s 			page 17


 456 00ca D500     		.short	213
 457 00cc B500     		.short	181
 458 00ce FE00     		.short	254
 459 00d0 DE00     		.short	222
 460 00d2 DA00     		.short	218
 461 00d4 DB00     		.short	219
 462 00d6 D900     		.short	217
 463 00d8 FD00     		.short	253
 464 00da DD00     		.short	221
 465 00dc AF00     		.short	175
 466 00de B400     		.short	180
 467 00e0 AD00     		.short	173
 468 00e2 B100     		.short	177
 469 00e4 1720     		.short	8215
 470 00e6 BE00     		.short	190
 471 00e8 B600     		.short	182
 472 00ea A700     		.short	167
 473 00ec F700     		.short	247
 474 00ee B800     		.short	184
 475 00f0 B000     		.short	176
 476 00f2 A800     		.short	168
 477 00f4 B700     		.short	183
 478 00f6 B900     		.short	185
 479 00f8 B300     		.short	179
 480 00fa B200     		.short	178
 481 00fc A025     		.short	9632
 482 00fe A000     		.short	160
 483              		.section	.rodata.cvt1.18446,"a"
 484              		.align	2
 485              		.set	.LANCHOR1,. + 0
 488              	cvt1.18446:
 489 0000 6100     		.short	97
 490 0002 1A03     		.short	794
 491 0004 E000     		.short	224
 492 0006 1703     		.short	791
 493 0008 F800     		.short	248
 494 000a 0703     		.short	775
 495 000c FF00     		.short	255
 496 000e 0100     		.short	1
 497 0010 7801     		.short	376
 498 0012 0001     		.short	256
 499 0014 3001     		.short	304
 500 0016 3201     		.short	306
 501 0018 0601     		.short	262
 502 001a 3901     		.short	313
 503 001c 1001     		.short	272
 504 001e 4A01     		.short	330
 505 0020 2E01     		.short	302
 506 0022 7901     		.short	377
 507 0024 0601     		.short	262
 508 0026 8001     		.short	384
 509 0028 4D00     		.short	77
 510 002a 4302     		.short	579
 511 002c 8101     		.short	385
 512 002e 8201     		.short	386
 513 0030 8201     		.short	386
 514 0032 8401     		.short	388
ARM GAS  /var/folders/0d/2ntwfkp1791d52chq7d_xwdm0000gn/T//ccwQndaS.s 			page 18


 515 0034 8401     		.short	388
 516 0036 8601     		.short	390
 517 0038 8701     		.short	391
 518 003a 8701     		.short	391
 519 003c 8901     		.short	393
 520 003e 8A01     		.short	394
 521 0040 8B01     		.short	395
 522 0042 8B01     		.short	395
 523 0044 8D01     		.short	397
 524 0046 8E01     		.short	398
 525 0048 8F01     		.short	399
 526 004a 9001     		.short	400
 527 004c 9101     		.short	401
 528 004e 9101     		.short	401
 529 0050 9301     		.short	403
 530 0052 9401     		.short	404
 531 0054 F601     		.short	502
 532 0056 9601     		.short	406
 533 0058 9701     		.short	407
 534 005a 9801     		.short	408
 535 005c 9801     		.short	408
 536 005e 3D02     		.short	573
 537 0060 9B01     		.short	411
 538 0062 9C01     		.short	412
 539 0064 9D01     		.short	413
 540 0066 2002     		.short	544
 541 0068 9F01     		.short	415
 542 006a A001     		.short	416
 543 006c A001     		.short	416
 544 006e A201     		.short	418
 545 0070 A201     		.short	418
 546 0072 A401     		.short	420
 547 0074 A401     		.short	420
 548 0076 A601     		.short	422
 549 0078 A701     		.short	423
 550 007a A701     		.short	423
 551 007c A901     		.short	425
 552 007e AA01     		.short	426
 553 0080 AB01     		.short	427
 554 0082 AC01     		.short	428
 555 0084 AC01     		.short	428
 556 0086 AE01     		.short	430
 557 0088 AF01     		.short	431
 558 008a AF01     		.short	431
 559 008c B101     		.short	433
 560 008e B201     		.short	434
 561 0090 B301     		.short	435
 562 0092 B301     		.short	435
 563 0094 B501     		.short	437
 564 0096 B501     		.short	437
 565 0098 B701     		.short	439
 566 009a B801     		.short	440
 567 009c B801     		.short	440
 568 009e BA01     		.short	442
 569 00a0 BB01     		.short	443
 570 00a2 BC01     		.short	444
 571 00a4 BC01     		.short	444
ARM GAS  /var/folders/0d/2ntwfkp1791d52chq7d_xwdm0000gn/T//ccwQndaS.s 			page 19


 572 00a6 BE01     		.short	446
 573 00a8 F701     		.short	503
 574 00aa C001     		.short	448
 575 00ac C101     		.short	449
 576 00ae C201     		.short	450
 577 00b0 C301     		.short	451
 578 00b2 C401     		.short	452
 579 00b4 C501     		.short	453
 580 00b6 C401     		.short	452
 581 00b8 C701     		.short	455
 582 00ba C801     		.short	456
 583 00bc C701     		.short	455
 584 00be CA01     		.short	458
 585 00c0 CB01     		.short	459
 586 00c2 CA01     		.short	458
 587 00c4 CD01     		.short	461
 588 00c6 1001     		.short	272
 589 00c8 DD01     		.short	477
 590 00ca 0100     		.short	1
 591 00cc 8E01     		.short	398
 592 00ce DE01     		.short	478
 593 00d0 1201     		.short	274
 594 00d2 F301     		.short	499
 595 00d4 0300     		.short	3
 596 00d6 F101     		.short	497
 597 00d8 F401     		.short	500
 598 00da F401     		.short	500
 599 00dc F801     		.short	504
 600 00de 2801     		.short	296
 601 00e0 2202     		.short	546
 602 00e2 1201     		.short	274
 603 00e4 3A02     		.short	570
 604 00e6 0900     		.short	9
 605 00e8 652C     		.short	11365
 606 00ea 3B02     		.short	571
 607 00ec 3B02     		.short	571
 608 00ee 3D02     		.short	573
 609 00f0 662C     		.short	11366
 610 00f2 3F02     		.short	575
 611 00f4 4002     		.short	576
 612 00f6 4102     		.short	577
 613 00f8 4102     		.short	577
 614 00fa 4602     		.short	582
 615 00fc 0A01     		.short	266
 616 00fe 5302     		.short	595
 617 0100 4000     		.short	64
 618 0102 8101     		.short	385
 619 0104 8601     		.short	390
 620 0106 5502     		.short	597
 621 0108 8901     		.short	393
 622 010a 8A01     		.short	394
 623 010c 5802     		.short	600
 624 010e 8F01     		.short	399
 625 0110 5A02     		.short	602
 626 0112 9001     		.short	400
 627 0114 5C02     		.short	604
 628 0116 5D02     		.short	605
ARM GAS  /var/folders/0d/2ntwfkp1791d52chq7d_xwdm0000gn/T//ccwQndaS.s 			page 20


 629 0118 5E02     		.short	606
 630 011a 5F02     		.short	607
 631 011c 9301     		.short	403
 632 011e 6102     		.short	609
 633 0120 6202     		.short	610
 634 0122 9401     		.short	404
 635 0124 6402     		.short	612
 636 0126 6502     		.short	613
 637 0128 6602     		.short	614
 638 012a 6702     		.short	615
 639 012c 9701     		.short	407
 640 012e 9601     		.short	406
 641 0130 6A02     		.short	618
 642 0132 622C     		.short	11362
 643 0134 6C02     		.short	620
 644 0136 6D02     		.short	621
 645 0138 6E02     		.short	622
 646 013a 9C01     		.short	412
 647 013c 7002     		.short	624
 648 013e 7102     		.short	625
 649 0140 9D01     		.short	413
 650 0142 7302     		.short	627
 651 0144 7402     		.short	628
 652 0146 9F01     		.short	415
 653 0148 7602     		.short	630
 654 014a 7702     		.short	631
 655 014c 7802     		.short	632
 656 014e 7902     		.short	633
 657 0150 7A02     		.short	634
 658 0152 7B02     		.short	635
 659 0154 7C02     		.short	636
 660 0156 642C     		.short	11364
 661 0158 7E02     		.short	638
 662 015a 7F02     		.short	639
 663 015c A601     		.short	422
 664 015e 8102     		.short	641
 665 0160 8202     		.short	642
 666 0162 A901     		.short	425
 667 0164 8402     		.short	644
 668 0166 8502     		.short	645
 669 0168 8602     		.short	646
 670 016a 8702     		.short	647
 671 016c AE01     		.short	430
 672 016e 4402     		.short	580
 673 0170 B101     		.short	433
 674 0172 B201     		.short	434
 675 0174 4502     		.short	581
 676 0176 8D02     		.short	653
 677 0178 8E02     		.short	654
 678 017a 8F02     		.short	655
 679 017c 9002     		.short	656
 680 017e 9102     		.short	657
 681 0180 B701     		.short	439
 682 0182 7B03     		.short	891
 683 0184 0300     		.short	3
 684 0186 FD03     		.short	1021
 685 0188 FE03     		.short	1022
ARM GAS  /var/folders/0d/2ntwfkp1791d52chq7d_xwdm0000gn/T//ccwQndaS.s 			page 21


 686 018a FF03     		.short	1023
 687 018c AC03     		.short	940
 688 018e 0400     		.short	4
 689 0190 8603     		.short	902
 690 0192 8803     		.short	904
 691 0194 8903     		.short	905
 692 0196 8A03     		.short	906
 693 0198 B103     		.short	945
 694 019a 1103     		.short	785
 695 019c C203     		.short	962
 696 019e 0200     		.short	2
 697 01a0 A303     		.short	931
 698 01a2 A303     		.short	931
 699 01a4 C403     		.short	964
 700 01a6 0803     		.short	776
 701 01a8 CC03     		.short	972
 702 01aa 0300     		.short	3
 703 01ac 8C03     		.short	908
 704 01ae 8E03     		.short	910
 705 01b0 8F03     		.short	911
 706 01b2 D803     		.short	984
 707 01b4 1801     		.short	280
 708 01b6 F203     		.short	1010
 709 01b8 0A00     		.short	10
 710 01ba F903     		.short	1017
 711 01bc F303     		.short	1011
 712 01be F403     		.short	1012
 713 01c0 F503     		.short	1013
 714 01c2 F603     		.short	1014
 715 01c4 F703     		.short	1015
 716 01c6 F703     		.short	1015
 717 01c8 F903     		.short	1017
 718 01ca FA03     		.short	1018
 719 01cc FA03     		.short	1018
 720 01ce 3004     		.short	1072
 721 01d0 2003     		.short	800
 722 01d2 5004     		.short	1104
 723 01d4 1007     		.short	1808
 724 01d6 6004     		.short	1120
 725 01d8 2201     		.short	290
 726 01da 8A04     		.short	1162
 727 01dc 3601     		.short	310
 728 01de C104     		.short	1217
 729 01e0 0E01     		.short	270
 730 01e2 CF04     		.short	1231
 731 01e4 0100     		.short	1
 732 01e6 C004     		.short	1216
 733 01e8 D004     		.short	1232
 734 01ea 4401     		.short	324
 735 01ec 6105     		.short	1377
 736 01ee 2604     		.short	1062
 737 01f0 0000     		.short	0
 738              		.section	.rodata.cvt2.18447,"a"
 739              		.align	2
 740              		.set	.LANCHOR2,. + 0
 743              	cvt2.18447:
 744 0000 7D1D     		.short	7549
ARM GAS  /var/folders/0d/2ntwfkp1791d52chq7d_xwdm0000gn/T//ccwQndaS.s 			page 22


 745 0002 0100     		.short	1
 746 0004 632C     		.short	11363
 747 0006 001E     		.short	7680
 748 0008 9601     		.short	406
 749 000a A01E     		.short	7840
 750 000c 5A01     		.short	346
 751 000e 001F     		.short	7936
 752 0010 0806     		.short	1544
 753 0012 101F     		.short	7952
 754 0014 0606     		.short	1542
 755 0016 201F     		.short	7968
 756 0018 0806     		.short	1544
 757 001a 301F     		.short	7984
 758 001c 0806     		.short	1544
 759 001e 401F     		.short	8000
 760 0020 0606     		.short	1542
 761 0022 511F     		.short	8017
 762 0024 0700     		.short	7
 763 0026 591F     		.short	8025
 764 0028 521F     		.short	8018
 765 002a 5B1F     		.short	8027
 766 002c 541F     		.short	8020
 767 002e 5D1F     		.short	8029
 768 0030 561F     		.short	8022
 769 0032 5F1F     		.short	8031
 770 0034 601F     		.short	8032
 771 0036 0806     		.short	1544
 772 0038 701F     		.short	8048
 773 003a 0E00     		.short	14
 774 003c BA1F     		.short	8122
 775 003e BB1F     		.short	8123
 776 0040 C81F     		.short	8136
 777 0042 C91F     		.short	8137
 778 0044 CA1F     		.short	8138
 779 0046 CB1F     		.short	8139
 780 0048 DA1F     		.short	8154
 781 004a DB1F     		.short	8155
 782 004c F81F     		.short	8184
 783 004e F91F     		.short	8185
 784 0050 EA1F     		.short	8170
 785 0052 EB1F     		.short	8171
 786 0054 FA1F     		.short	8186
 787 0056 FB1F     		.short	8187
 788 0058 801F     		.short	8064
 789 005a 0806     		.short	1544
 790 005c 901F     		.short	8080
 791 005e 0806     		.short	1544
 792 0060 A01F     		.short	8096
 793 0062 0806     		.short	1544
 794 0064 B01F     		.short	8112
 795 0066 0400     		.short	4
 796 0068 B81F     		.short	8120
 797 006a B91F     		.short	8121
 798 006c B21F     		.short	8114
 799 006e BC1F     		.short	8124
 800 0070 CC1F     		.short	8140
 801 0072 0100     		.short	1
ARM GAS  /var/folders/0d/2ntwfkp1791d52chq7d_xwdm0000gn/T//ccwQndaS.s 			page 23


 802 0074 C31F     		.short	8131
 803 0076 D01F     		.short	8144
 804 0078 0206     		.short	1538
 805 007a E01F     		.short	8160
 806 007c 0206     		.short	1538
 807 007e E51F     		.short	8165
 808 0080 0100     		.short	1
 809 0082 EC1F     		.short	8172
 810 0084 F21F     		.short	8178
 811 0086 0100     		.short	1
 812 0088 FC1F     		.short	8188
 813 008a 4E21     		.short	8526
 814 008c 0100     		.short	1
 815 008e 3221     		.short	8498
 816 0090 7021     		.short	8560
 817 0092 1002     		.short	528
 818 0094 8421     		.short	8580
 819 0096 0100     		.short	1
 820 0098 8321     		.short	8579
 821 009a D024     		.short	9424
 822 009c 1A05     		.short	1306
 823 009e 302C     		.short	11312
 824 00a0 2F04     		.short	1071
 825 00a2 602C     		.short	11360
 826 00a4 0201     		.short	258
 827 00a6 672C     		.short	11367
 828 00a8 0601     		.short	262
 829 00aa 752C     		.short	11381
 830 00ac 0201     		.short	258
 831 00ae 802C     		.short	11392
 832 00b0 6401     		.short	356
 833 00b2 002D     		.short	11520
 834 00b4 2608     		.short	2086
 835 00b6 41FF     		.short	-191
 836 00b8 1A03     		.short	794
 837 00ba 0000     		.short	0
 838              		.text
 839              	.Letext0:
 840              		.file 2 "/usr/local/Cellar/arm-none-eabi-gcc/9-2019-q4-major/gcc/arm-none-eabi/include/machine/_de
 841              		.file 3 "/usr/local/Cellar/arm-none-eabi-gcc/9-2019-q4-major/gcc/arm-none-eabi/include/sys/_stdint
 842              		.file 4 "../libdaisy/Drivers/CMSIS/Include/core_cm7.h"
 843              		.file 5 "../libdaisy/Drivers/CMSIS/Device/ST/STM32H7xx/Include/system_stm32h7xx.h"
 844              		.file 6 "/usr/local/Cellar/arm-none-eabi-gcc/9-2019-q4-major/gcc/arm-none-eabi/include/sys/lock.h"
 845              		.file 7 "/usr/local/Cellar/arm-none-eabi-gcc/9-2019-q4-major/gcc/arm-none-eabi/include/sys/_types.
 846              		.file 8 "/usr/local/Cellar/arm-none-eabi-gcc/9-2019-q4-major/gcc/lib/gcc/arm-none-eabi/9.2.1/inclu
 847              		.file 9 "/usr/local/Cellar/arm-none-eabi-gcc/9-2019-q4-major/gcc/arm-none-eabi/include/sys/reent.h
 848              		.file 10 "/usr/local/Cellar/arm-none-eabi-gcc/9-2019-q4-major/gcc/arm-none-eabi/include/math.h"
 849              		.file 11 "../libdaisy/Drivers/STM32H7xx_HAL_Driver/Inc/stm32h7xx_hal_def.h"
 850              		.file 12 "../libdaisy/Drivers/STM32H7xx_HAL_Driver/Inc/stm32h7xx_hal_flash.h"
 851              		.file 13 "../libdaisy/Middlewares/Third_Party/FatFs/src/option/../integer.h"
 852              		.file 14 "/usr/local/Cellar/arm-none-eabi-gcc/9-2019-q4-major/gcc/arm-none-eabi/include/stdlib.h"
ARM GAS  /var/folders/0d/2ntwfkp1791d52chq7d_xwdm0000gn/T//ccwQndaS.s 			page 24

