ARM GAS  /var/folders/0d/2ntwfkp1791d52chq7d_xwdm0000gn/T//ccvLIGwf.s 			page 1


   1              		.cpu cortex-m7
   2              		.eabi_attribute 28, 1
   3              		.eabi_attribute 20, 1
   4              		.eabi_attribute 21, 1
   5              		.eabi_attribute 23, 3
   6              		.eabi_attribute 24, 1
   7              		.eabi_attribute 25, 1
   8              		.eabi_attribute 26, 1
   9              		.eabi_attribute 30, 2
  10              		.eabi_attribute 34, 1
  11              		.eabi_attribute 18, 4
  12              		.file	"DelayMulti.cpp"
  13              		.text
  14              	.Ltext0:
  15              		.cfi_sections	.debug_frame
  16              		.section	.text._ZN10DelayMulti4initE12dsy_gpio_pinf,"ax",%progbits
  17              		.align	1
  18              		.p2align 2,,3
  19              		.global	_ZN10DelayMulti4initE12dsy_gpio_pinf
  20              		.arch armv7e-m
  21              		.syntax unified
  22              		.thumb
  23              		.thumb_func
  24              		.fpu fpv5-d16
  26              	_ZN10DelayMulti4initE12dsy_gpio_pinf:
  27              	.LVL0:
  28              	.LFB3966:
  29              		.file 1 "DelayMulti.cpp"
   1:DelayMulti.cpp **** // Copyright 2021 Adam Fulford
   2:DelayMulti.cpp **** // 
   3:DelayMulti.cpp **** // Permission is hereby granted, free of charge, to any person obtaining a copy
   4:DelayMulti.cpp **** // of this software and associated documentation files (the "Software"), to deal
   5:DelayMulti.cpp **** // in the Software without restriction, including without limitation the rights
   6:DelayMulti.cpp **** // to use, copy, modify, merge, publish, distribute, sublicense, and/or sell
   7:DelayMulti.cpp **** // copies of the Software, and to permit persons to whom the Software is
   8:DelayMulti.cpp **** // furnished to do so, subject to the following conditions:
   9:DelayMulti.cpp **** // 
  10:DelayMulti.cpp **** // The above copyright notice and this permission notice shall be included in
  11:DelayMulti.cpp **** // all copies or substantial portions of the Software.
  12:DelayMulti.cpp **** // 
  13:DelayMulti.cpp **** // THE SOFTWARE IS PROVIDED "AS IS", WITHOUT WARRANTY OF ANY KIND, EXPRESS OR
  14:DelayMulti.cpp **** // IMPLIED, INCLUDING BUT NOT LIMITED TO THE WARRANTIES OF MERCHANTABILITY,
  15:DelayMulti.cpp **** // FITNESS FOR A PARTICULAR PURPOSE AND NONINFRINGEMENT. IN NO EVENT SHALL THE
  16:DelayMulti.cpp **** // AUTHORS OR COPYRIGHT HOLDERS BE LIABLE FOR ANY CLAIM, DAMAGES OR OTHER
  17:DelayMulti.cpp **** // LIABILITY, WHETHER IN AN ACTION OF CONTRACT, TORT OR OTHERWISE, ARISING FROM,
  18:DelayMulti.cpp **** // OUT OF OR IN CONNECTION WITH THE SOFTWARE OR THE USE OR OTHER DEALINGS IN
  19:DelayMulti.cpp **** // THE SOFTWARE.
  20:DelayMulti.cpp **** // 
  21:DelayMulti.cpp **** // See http://creativecommons.org/licenses/MIT/ for more information.
  22:DelayMulti.cpp **** 
  23:DelayMulti.cpp **** #include "DelayMulti.h"
  24:DelayMulti.cpp **** 
  25:DelayMulti.cpp **** //initialises delay class
  26:DelayMulti.cpp **** void DelayMulti::init(dsy_gpio_pin ledpin,float samplerate)
  27:DelayMulti.cpp **** {
  30              		.loc 1 27 1 view -0
  31              		.cfi_startproc
ARM GAS  /var/folders/0d/2ntwfkp1791d52chq7d_xwdm0000gn/T//ccvLIGwf.s 			page 2


  32              		@ args = 0, pretend = 0, frame = 8
  33              		@ frame_needed = 0, uses_anonymous_args = 0
  28:DelayMulti.cpp ****     samplerate_ = samplerate;
  34              		.loc 1 28 5 view .LVU1
  27:DelayMulti.cpp ****     samplerate_ = samplerate;
  35              		.loc 1 27 1 is_stmt 0 view .LVU2
  36 0000 2DE9F047 		push	{r4, r5, r6, r7, r8, r9, r10, lr}
  37              		.cfi_def_cfa_offset 32
  38              		.cfi_offset 4, -32
  39              		.cfi_offset 5, -28
  40              		.cfi_offset 6, -24
  41              		.cfi_offset 7, -20
  42              		.cfi_offset 8, -16
  43              		.cfi_offset 9, -12
  44              		.cfi_offset 10, -8
  45              		.cfi_offset 14, -4
  46 0004 82B0     		sub	sp, sp, #8
  47              		.cfi_def_cfa_offset 40
  48 0006 3B4C     		ldr	r4, .L8
  27:DelayMulti.cpp ****     samplerate_ = samplerate;
  49              		.loc 1 27 1 view .LVU3
  50 0008 0546     		mov	r5, r0
  51 000a ADF80410 		strh	r1, [sp, #4]	@ movhi
  29:DelayMulti.cpp ****     del -> Init(totalNumHeads);
  52              		.loc 1 29 5 view .LVU4
  53 000e 0168     		ldr	r1, [r0]
  28:DelayMulti.cpp ****     samplerate_ = samplerate;
  54              		.loc 1 28 17 view .LVU5
  55 0010 80ED430A 		vstr.32	s0, [r0, #268]
  56              		.loc 1 29 5 is_stmt 1 view .LVU6
  57              	.LVL1:
  58              	.LBB103:
  59              	.LBI103:
  60              		.file 2 "delayline_multitap.h"
   1:delayline_multitap.h **** // Copyright 2021 Adam Fulford
   2:delayline_multitap.h **** // 
   3:delayline_multitap.h **** // Permission is hereby granted, free of charge, to any person obtaining a copy
   4:delayline_multitap.h **** // of this software and associated documentation files (the "Software"), to deal
   5:delayline_multitap.h **** // in the Software without restriction, including without limitation the rights
   6:delayline_multitap.h **** // to use, copy, modify, merge, publish, distribute, sublicense, and/or sell
   7:delayline_multitap.h **** // copies of the Software, and to permit persons to whom the Software is
   8:delayline_multitap.h **** // furnished to do so, subject to the following conditions:
   9:delayline_multitap.h **** // 
  10:delayline_multitap.h **** // The above copyright notice and this permission notice shall be included in
  11:delayline_multitap.h **** // all copies or substantial portions of the Software.
  12:delayline_multitap.h **** // 
  13:delayline_multitap.h **** // THE SOFTWARE IS PROVIDED "AS IS", WITHOUT WARRANTY OF ANY KIND, EXPRESS OR
  14:delayline_multitap.h **** // IMPLIED, INCLUDING BUT NOT LIMITED TO THE WARRANTIES OF MERCHANTABILITY,
  15:delayline_multitap.h **** // FITNESS FOR A PARTICULAR PURPOSE AND NONINFRINGEMENT. IN NO EVENT SHALL THE
  16:delayline_multitap.h **** // AUTHORS OR COPYRIGHT HOLDERS BE LIABLE FOR ANY CLAIM, DAMAGES OR OTHER
  17:delayline_multitap.h **** // LIABILITY, WHETHER IN AN ACTION OF CONTRACT, TORT OR OTHERWISE, ARISING FROM,
  18:delayline_multitap.h **** // OUT OF OR IN CONNECTION WITH THE SOFTWARE OR THE USE OR OTHER DEALINGS IN
  19:delayline_multitap.h **** // THE SOFTWARE.
  20:delayline_multitap.h **** // 
  21:delayline_multitap.h **** // See http://creativecommons.org/licenses/MIT/ for more information.
  22:delayline_multitap.h **** 
  23:delayline_multitap.h **** #pragma once
ARM GAS  /var/folders/0d/2ntwfkp1791d52chq7d_xwdm0000gn/T//ccvLIGwf.s 			page 3


  24:delayline_multitap.h **** #ifndef DSY_DELAY_MULTITAP_H
  25:delayline_multitap.h **** #define DSY_DELAY_MULTITAP_H
  26:delayline_multitap.h **** #include <stdlib.h>
  27:delayline_multitap.h **** #include <stdint.h>
  28:delayline_multitap.h **** #include <array>
  29:delayline_multitap.h **** namespace daisysp
  30:delayline_multitap.h **** {
  31:delayline_multitap.h **** /** Mulitap Delay line.
  32:delayline_multitap.h **** 
  33:delayline_multitap.h **** DelayLine<float, SAMPLE_RATE> del;
  34:delayline_multitap.h **** 
  35:delayline_multitap.h **** By: Adam Fulford
  36:delayline_multitap.h **** */
  37:delayline_multitap.h **** template <typename T, size_t max_size>
  38:delayline_multitap.h **** class DelayLineMultiTap
  39:delayline_multitap.h **** {
  40:delayline_multitap.h **** private:
  41:delayline_multitap.h ****     size_t write_ptr_;
  42:delayline_multitap.h ****     std::array<size_t, 16> delay_;    //array to hold delay times for upto 16 read heads.
  43:delayline_multitap.h ****     std::array<float, 16> frac_;
  44:delayline_multitap.h ****     T      line_[max_size];
  45:delayline_multitap.h ****     size_t num_heads_;
  46:delayline_multitap.h **** 
  47:delayline_multitap.h ****   public:
  48:delayline_multitap.h ****     DelayLineMultiTap() 
  49:delayline_multitap.h ****     {
  50:delayline_multitap.h ****        // num_heads_ = 16; //Why can't I do this in the default constructor?! Compiles but does not
  51:delayline_multitap.h ****     }
  52:delayline_multitap.h ****     ~DelayLineMultiTap() {}
  53:delayline_multitap.h ****     
  54:delayline_multitap.h ****     /** initializes the delay line by clearing the values within, and setting delay head times to 0
  55:delayline_multitap.h ****     */
  56:delayline_multitap.h ****     void Init( size_t num_heads) 
  61              		.loc 2 56 10 view .LVU7
  62              	.LBB104:
  63              	.LBB105:
  57:delayline_multitap.h ****     {
  58:delayline_multitap.h ****         for(size_t i = 0; i < max_size; i++)
  64              		.loc 2 58 29 view .LVU8
  65 0014 01F18403 		add	r3, r1, #132
  66 0018 0C44     		add	r4, r4, r1
  67              	.LVL2:
  68              	.L2:
  59:delayline_multitap.h ****         {
  60:delayline_multitap.h ****             line_[i] = T(0);
  69              		.loc 2 60 13 is_stmt 0 view .LVU9
  70 001a 0022     		movs	r2, #0
  71 001c 43F8042B 		str	r2, [r3], #4	@ float
  58:delayline_multitap.h ****         {
  72              		.loc 2 58 9 is_stmt 1 view .LVU10
  58:delayline_multitap.h ****         {
  73              		.loc 2 58 29 view .LVU11
  74 0020 A342     		cmp	r3, r4
  75 0022 FAD1     		bne	.L2
  76              	.LBE105:
  61:delayline_multitap.h ****         }
  62:delayline_multitap.h **** 
ARM GAS  /var/folders/0d/2ntwfkp1791d52chq7d_xwdm0000gn/T//ccvLIGwf.s 			page 4


  63:delayline_multitap.h ****         write_ptr_ = 0;
  77              		.loc 2 63 9 is_stmt 0 view .LVU12
  78 0024 0020     		movs	r0, #0
  79              	.LVL3:
  64:delayline_multitap.h ****         num_heads_ = num_heads;
  80              		.loc 2 64 9 view .LVU13
  81 0026 334E     		ldr	r6, .L8
  82 0028 0227     		movs	r7, #2
  83 002a 0A46     		mov	r2, r1
  84              	.LBB106:
  65:delayline_multitap.h **** 
  66:delayline_multitap.h ****         for (size_t i{ 0 }; i < num_heads_; ++i)
  85              		.loc 2 66 21 view .LVU14
  86 002c 0346     		mov	r3, r0
  87              	.LBE106:
  63:delayline_multitap.h ****         num_heads_ = num_heads;
  88              		.loc 2 63 9 view .LVU15
  89 002e 0860     		str	r0, [r1]
  64:delayline_multitap.h ****         num_heads_ = num_heads;
  90              		.loc 2 64 9 view .LVU16
  91 0030 8F51     		str	r7, [r1, r6]
  92              	.LVL4:
  93              	.LBB107:
  94              		.loc 2 66 31 is_stmt 1 view .LVU17
  95              	.L3:
  67:delayline_multitap.h ****         {
  68:delayline_multitap.h ****             delay_[i] = 0;  //set all delay heads to 0 (no delay)
  96              		.loc 2 68 13 is_stmt 0 view .LVU18
  97 0032 0026     		movs	r6, #0
  66:delayline_multitap.h ****         {
  98              		.loc 2 66 9 view .LVU19
  99 0034 0133     		adds	r3, r3, #1
 100              	.LVL5:
  69:delayline_multitap.h ****             frac_[i] = 0;
 101              		.loc 2 69 13 view .LVU20
 102 0036 0027     		movs	r7, #0
  68:delayline_multitap.h ****             frac_[i] = 0;
 103              		.loc 2 68 13 view .LVU21
 104 0038 42F8046F 		str	r6, [r2, #4]!
  66:delayline_multitap.h ****         {
 105              		.loc 2 66 31 view .LVU22
 106 003c 2168     		ldr	r1, [r4]
 107              		.loc 2 69 13 view .LVU23
 108 003e 1764     		str	r7, [r2, #64]	@ float
  66:delayline_multitap.h ****         {
 109              		.loc 2 66 9 is_stmt 1 view .LVU24
 110              	.LVL6:
  66:delayline_multitap.h ****         {
 111              		.loc 2 66 31 view .LVU25
 112 0040 9942     		cmp	r1, r3
 113 0042 F6D8     		bhi	.L3
 114              	.LVL7:
  66:delayline_multitap.h ****         {
 115              		.loc 2 66 31 is_stmt 0 view .LVU26
 116              	.LBE107:
 117              	.LBE104:
 118              	.LBE103:
ARM GAS  /var/folders/0d/2ntwfkp1791d52chq7d_xwdm0000gn/T//ccvLIGwf.s 			page 5


  30:DelayMulti.cpp ****     tempoled.init(ledpin,samplerate_/static_cast<float> (updateDiv));
 119              		.loc 1 30 5 is_stmt 1 view .LVU27
 120              		.loc 1 30 18 is_stmt 0 view .LVU28
 121 0044 F2EE0E7A 		vmov.f32	s15, #1.5e+1
 122 0048 95ED430A 		vldr.32	s0, [r5, #268]
 123              	.LVL8:
 124              		.loc 1 30 18 view .LVU29
 125 004c 0199     		ldr	r1, [sp, #4]
 126 004e 281D     		adds	r0, r5, #4
  31:DelayMulti.cpp ****     //dsy_tim_init(); //start timer
  32:DelayMulti.cpp ****     //dsy_tim_start();
  33:DelayMulti.cpp **** 
  34:DelayMulti.cpp ****     XfadeGate_[0] = true;
  35:DelayMulti.cpp ****     XfadeGate_[1] = false;
  36:DelayMulti.cpp **** 
  37:DelayMulti.cpp ****     Gain_[0] = 1.0f;
 127              		.loc 1 37 14 view .LVU30
 128 0050 4FF07E54 		mov	r4, #1065353216
  34:DelayMulti.cpp ****     XfadeGate_[1] = false;
 129              		.loc 1 34 19 view .LVU31
 130 0054 4FF00109 		mov	r9, #1
  30:DelayMulti.cpp ****     tempoled.init(ledpin,samplerate_/static_cast<float> (updateDiv));
 131              		.loc 1 30 18 view .LVU32
 132 0058 80EE270A 		vdiv.f32	s0, s0, s15
 133              	.LBB108:
 134              	.LBB109:
 135              	.LBB110:
 136              	.LBB111:
 137              		.file 3 "../DaisySP/Source/Dynamics/crossfade.h"
   1:../DaisySP/Source/Dynamics/crossfade.h **** #pragma once
   2:../DaisySP/Source/Dynamics/crossfade.h **** #ifndef DSY_CROSSFADE_H
   3:../DaisySP/Source/Dynamics/crossfade.h **** #define DSY_CROSSFADE_H
   4:../DaisySP/Source/Dynamics/crossfade.h **** #include <stdint.h>
   5:../DaisySP/Source/Dynamics/crossfade.h **** #ifdef __cplusplus
   6:../DaisySP/Source/Dynamics/crossfade.h **** 
   7:../DaisySP/Source/Dynamics/crossfade.h **** namespace daisysp
   8:../DaisySP/Source/Dynamics/crossfade.h **** {
   9:../DaisySP/Source/Dynamics/crossfade.h **** /** Curve applied to the CrossFade
  10:../DaisySP/Source/Dynamics/crossfade.h **** - LIN = linear
  11:../DaisySP/Source/Dynamics/crossfade.h **** - CPOW = constant power
  12:../DaisySP/Source/Dynamics/crossfade.h **** - LOG = logarithmic
  13:../DaisySP/Source/Dynamics/crossfade.h **** - EXP  exponential
  14:../DaisySP/Source/Dynamics/crossfade.h **** - LAST = end of enum (used for array indexing)
  15:../DaisySP/Source/Dynamics/crossfade.h **** */
  16:../DaisySP/Source/Dynamics/crossfade.h **** enum
  17:../DaisySP/Source/Dynamics/crossfade.h **** {
  18:../DaisySP/Source/Dynamics/crossfade.h ****     CROSSFADE_LIN,
  19:../DaisySP/Source/Dynamics/crossfade.h ****     CROSSFADE_CPOW,
  20:../DaisySP/Source/Dynamics/crossfade.h ****     CROSSFADE_LOG,
  21:../DaisySP/Source/Dynamics/crossfade.h ****     CROSSFADE_EXP,
  22:../DaisySP/Source/Dynamics/crossfade.h ****     CROSSFADE_LAST,
  23:../DaisySP/Source/Dynamics/crossfade.h **** };
  24:../DaisySP/Source/Dynamics/crossfade.h **** 
  25:../DaisySP/Source/Dynamics/crossfade.h **** /** Performs a CrossFade between two signals
  26:../DaisySP/Source/Dynamics/crossfade.h **** 
  27:../DaisySP/Source/Dynamics/crossfade.h ****     Original author: Paul Batchelor
  28:../DaisySP/Source/Dynamics/crossfade.h **** 
ARM GAS  /var/folders/0d/2ntwfkp1791d52chq7d_xwdm0000gn/T//ccvLIGwf.s 			page 6


  29:../DaisySP/Source/Dynamics/crossfade.h ****     Ported from Soundpipe by Andrew Ikenberry
  30:../DaisySP/Source/Dynamics/crossfade.h **** 
  31:../DaisySP/Source/Dynamics/crossfade.h ****     added curve option for constant power, etc.
  32:../DaisySP/Source/Dynamics/crossfade.h **** */
  33:../DaisySP/Source/Dynamics/crossfade.h **** class CrossFade
  34:../DaisySP/Source/Dynamics/crossfade.h **** {
  35:../DaisySP/Source/Dynamics/crossfade.h ****   public:
  36:../DaisySP/Source/Dynamics/crossfade.h ****     CrossFade() {}
  37:../DaisySP/Source/Dynamics/crossfade.h ****     ~CrossFade() {}
  38:../DaisySP/Source/Dynamics/crossfade.h ****     /** Initializes CrossFade module
  39:../DaisySP/Source/Dynamics/crossfade.h ****         Defaults
  40:../DaisySP/Source/Dynamics/crossfade.h ****         - current position = .5
  41:../DaisySP/Source/Dynamics/crossfade.h ****         - curve = linear
  42:../DaisySP/Source/Dynamics/crossfade.h ****     */
  43:../DaisySP/Source/Dynamics/crossfade.h ****     inline void Init(int curve)
  44:../DaisySP/Source/Dynamics/crossfade.h ****     {
  45:../DaisySP/Source/Dynamics/crossfade.h ****         pos_   = 0.5f;
 138              		.loc 3 45 16 view .LVU33
 139 005c 4FF07C5A 		mov	r10, #1056964608
 140              	.LBE111:
 141              	.LBE110:
 142              	.LBE109:
 143              	.LBE108:
  30:DelayMulti.cpp ****     //dsy_tim_init(); //start timer
 144              		.loc 1 30 18 view .LVU34
 145 0060 FFF7FEFF 		bl	_ZN8TempoLED4initE12dsy_gpio_pinf
 146              	.LVL9:
  34:DelayMulti.cpp ****     XfadeGate_[1] = false;
 147              		.loc 1 34 5 is_stmt 1 view .LVU35
  35:DelayMulti.cpp **** 
 148              		.loc 1 35 5 view .LVU36
  38:DelayMulti.cpp ****     Gain_[1] = 1.0f;
  39:DelayMulti.cpp **** 
  40:DelayMulti.cpp ****     delayLast_ = 1;
 149              		.loc 1 40 16 is_stmt 0 view .LVU37
 150 0064 0022     		movs	r2, #0
 151 0066 244B     		ldr	r3, .L8+4
  34:DelayMulti.cpp ****     XfadeGate_[1] = false;
 152              		.loc 1 34 19 view .LVU38
 153 0068 A5F8CC90 		strh	r9, [r5, #204]	@ movhi
  37:DelayMulti.cpp ****     Gain_[1] = 1.0f;
 154              		.loc 1 37 5 is_stmt 1 view .LVU39
  37:DelayMulti.cpp ****     Gain_[1] = 1.0f;
 155              		.loc 1 37 14 is_stmt 0 view .LVU40
 156 006c C5F8D840 		str	r4, [r5, #216]	@ float
  38:DelayMulti.cpp ****     Gain_[1] = 1.0f;
 157              		.loc 1 38 5 is_stmt 1 view .LVU41
  38:DelayMulti.cpp ****     Gain_[1] = 1.0f;
 158              		.loc 1 38 14 is_stmt 0 view .LVU42
 159 0070 C5F8DC40 		str	r4, [r5, #220]	@ float
 160              		.loc 1 40 5 is_stmt 1 view .LVU43
 161              	.LBB159:
 162              	.LBB118:
 163              	.LBB119:
 164              		.file 4 "../DaisySP/Source/Control/adsr.h"
   1:../DaisySP/Source/Control/adsr.h **** #pragma once
   2:../DaisySP/Source/Control/adsr.h **** #ifndef DSY_ADSR_H
ARM GAS  /var/folders/0d/2ntwfkp1791d52chq7d_xwdm0000gn/T//ccvLIGwf.s 			page 7


   3:../DaisySP/Source/Control/adsr.h **** #define DSY_ADSR_H
   4:../DaisySP/Source/Control/adsr.h **** 
   5:../DaisySP/Source/Control/adsr.h **** #include <stdint.h>
   6:../DaisySP/Source/Control/adsr.h **** #ifdef __cplusplus
   7:../DaisySP/Source/Control/adsr.h **** 
   8:../DaisySP/Source/Control/adsr.h **** namespace daisysp
   9:../DaisySP/Source/Control/adsr.h **** {
  10:../DaisySP/Source/Control/adsr.h **** /** Distinct stages that the phase of the envelope can be located in.
  11:../DaisySP/Source/Control/adsr.h **** - IDLE   = located at phase location 0, and not currently running
  12:../DaisySP/Source/Control/adsr.h **** - ATTACK  = First segment of envelope where phase moves from 0 to 1
  13:../DaisySP/Source/Control/adsr.h **** - DECAY   = Second segment of envelope where phase moves from 1 to SUSTAIN value
  14:../DaisySP/Source/Control/adsr.h **** - SUSTAIN = Third segment of envelope, stays at SUSTAIN level until GATE is released
  15:../DaisySP/Source/Control/adsr.h **** - RELEASE =     Fourth segment of envelop where phase moves from SUSTAIN to 0
  16:../DaisySP/Source/Control/adsr.h **** - LAST    =  Last segment, aka release
  17:../DaisySP/Source/Control/adsr.h **** */
  18:../DaisySP/Source/Control/adsr.h **** enum
  19:../DaisySP/Source/Control/adsr.h **** {
  20:../DaisySP/Source/Control/adsr.h ****     ADSR_SEG_IDLE,
  21:../DaisySP/Source/Control/adsr.h ****     ADSR_SEG_ATTACK,
  22:../DaisySP/Source/Control/adsr.h ****     ADSR_SEG_DECAY,
  23:../DaisySP/Source/Control/adsr.h ****     ADSR_SEG_SUSTAIN,
  24:../DaisySP/Source/Control/adsr.h ****     ADSR_SEG_RELEASE,
  25:../DaisySP/Source/Control/adsr.h ****     ADSR_SEG_LAST,
  26:../DaisySP/Source/Control/adsr.h **** };
  27:../DaisySP/Source/Control/adsr.h **** 
  28:../DaisySP/Source/Control/adsr.h **** 
  29:../DaisySP/Source/Control/adsr.h **** /** adsr envelope module
  30:../DaisySP/Source/Control/adsr.h **** 
  31:../DaisySP/Source/Control/adsr.h **** Original author(s) : Paul Batchelor
  32:../DaisySP/Source/Control/adsr.h **** 
  33:../DaisySP/Source/Control/adsr.h **** Ported from Soundpipe by Ben Sergentanis, May 2020
  34:../DaisySP/Source/Control/adsr.h **** */
  35:../DaisySP/Source/Control/adsr.h **** class Adsr
  36:../DaisySP/Source/Control/adsr.h **** {
  37:../DaisySP/Source/Control/adsr.h ****   public:
  38:../DaisySP/Source/Control/adsr.h ****     Adsr() {}
  39:../DaisySP/Source/Control/adsr.h ****     ~Adsr() {}
  40:../DaisySP/Source/Control/adsr.h ****     /** Initializes the Adsr module.
  41:../DaisySP/Source/Control/adsr.h ****         \param sample_rate - The sample rate of the audio engine being run. 
  42:../DaisySP/Source/Control/adsr.h ****     */
  43:../DaisySP/Source/Control/adsr.h ****     void Init(float sample_rate);
  44:../DaisySP/Source/Control/adsr.h **** 
  45:../DaisySP/Source/Control/adsr.h **** 
  46:../DaisySP/Source/Control/adsr.h ****     /** Processes one sample through the filter and returns one sample.
  47:../DaisySP/Source/Control/adsr.h ****         \param gate - trigger the envelope, hold it to sustain 
  48:../DaisySP/Source/Control/adsr.h ****     */
  49:../DaisySP/Source/Control/adsr.h ****     float Process(bool gate);
  50:../DaisySP/Source/Control/adsr.h **** 
  51:../DaisySP/Source/Control/adsr.h ****     /** Sets time
  52:../DaisySP/Source/Control/adsr.h ****         Set time per segment in seconds
  53:../DaisySP/Source/Control/adsr.h ****     */
  54:../DaisySP/Source/Control/adsr.h ****     inline void SetTime(int seg, float time) { seg_time_[seg] = time; }
 165              		.loc 4 54 63 is_stmt 0 view .LVU44
 166 0074 DFF88880 		ldr	r8, .L8+12
 167              	.LBE119:
 168              	.LBE118:
 169              	.LBE159:
ARM GAS  /var/folders/0d/2ntwfkp1791d52chq7d_xwdm0000gn/T//ccvLIGwf.s 			page 8


 170              		.loc 1 40 16 view .LVU45
 171 0078 C5E94A23 		strd	r2, [r5, #296]
  41:DelayMulti.cpp ****     timer_ = System::GetNow();
 172              		.loc 1 41 5 is_stmt 1 view .LVU46
 173              		.loc 1 41 28 is_stmt 0 view .LVU47
 174 007c FFF7FEFF 		bl	_ZN5daisy6System6GetNowEv
 175              	.LVL10:
 176              	.LBB160:
  42:DelayMulti.cpp ****     active_head_set_ = true;    //set 1 active
  43:DelayMulti.cpp ****     waiting_flag_ = false;
  44:DelayMulti.cpp ****     mod_ = 0.0f;
  45:DelayMulti.cpp ****     //timethresh_ = 5;    //length of wait before triggering xfade
  46:DelayMulti.cpp ****     output_ = 0.0f;
  47:DelayMulti.cpp ****     TimeChange_ = false;
  48:DelayMulti.cpp ****     for(size_t i{0}; i < totalNumHeads; i++)
  49:DelayMulti.cpp ****     {
  50:DelayMulti.cpp ****         Xfade_[i].Init();
  51:DelayMulti.cpp ****         Xfade_[i].SetCurve(CROSSFADE_CPOW);
  52:DelayMulti.cpp ****         
  53:DelayMulti.cpp ****         XfadeEnv_[i].Init(samplerate_);
 177              		.loc 1 53 26 view .LVU48
 178 0080 95ED430A 		vldr.32	s0, [r5, #268]
 179              	.LBE160:
  41:DelayMulti.cpp ****     timer_ = System::GetNow();
 180              		.loc 1 41 12 view .LVU49
 181 0084 C5F8FC00 		str	r0, [r5, #252]
  42:DelayMulti.cpp ****     active_head_set_ = true;    //set 1 active
 182              		.loc 1 42 5 is_stmt 1 view .LVU50
  43:DelayMulti.cpp ****     mod_ = 0.0f;
 183              		.loc 1 43 5 view .LVU51
 184              	.LBB161:
 185              		.loc 1 53 26 is_stmt 0 view .LVU52
 186 0088 05F15C00 		add	r0, r5, #92
 187              	.LBE161:
  43:DelayMulti.cpp ****     mod_ = 0.0f;
 188              		.loc 1 43 19 view .LVU53
 189 008c 85F80861 		strb	r6, [r5, #264]
  44:DelayMulti.cpp ****     //timethresh_ = 5;    //length of wait before triggering xfade
 190              		.loc 1 44 5 is_stmt 1 view .LVU54
  47:DelayMulti.cpp ****     for(size_t i{0}; i < totalNumHeads; i++)
 191              		.loc 1 47 17 is_stmt 0 view .LVU55
 192 0090 85F81861 		strb	r6, [r5, #280]
  42:DelayMulti.cpp ****     waiting_flag_ = false;
 193              		.loc 1 42 22 view .LVU56
 194 0094 85F80091 		strb	r9, [r5, #256]
 195              	.LBB162:
 196              	.LBB123:
 197              	.LBB124:
 198              		.loc 4 54 63 view .LVU57
 199 0098 184E     		ldr	r6, .L8+8
 200              	.LBE124:
 201              	.LBE123:
 202              	.LBB128:
 203              	.LBB129:
  46:../DaisySP/Source/Dynamics/crossfade.h ****         curve_ = curve < CROSSFADE_LAST ? curve : CROSSFADE_LIN;
  47:../DaisySP/Source/Dynamics/crossfade.h ****     }
  48:../DaisySP/Source/Dynamics/crossfade.h **** 
ARM GAS  /var/folders/0d/2ntwfkp1791d52chq7d_xwdm0000gn/T//ccvLIGwf.s 			page 9


  49:../DaisySP/Source/Dynamics/crossfade.h ****     /** Initialize with default linear curve 
  50:../DaisySP/Source/Dynamics/crossfade.h ****     */
  51:../DaisySP/Source/Dynamics/crossfade.h ****     inline void Init() { Init(CROSSFADE_LIN); }
  52:../DaisySP/Source/Dynamics/crossfade.h ****     /** processes CrossFade and returns single sample
  53:../DaisySP/Source/Dynamics/crossfade.h ****     */
  54:../DaisySP/Source/Dynamics/crossfade.h ****     float Process(float &in1, float &in2);
  55:../DaisySP/Source/Dynamics/crossfade.h **** 
  56:../DaisySP/Source/Dynamics/crossfade.h **** 
  57:../DaisySP/Source/Dynamics/crossfade.h ****     /** Sets position of CrossFade between two input signals
  58:../DaisySP/Source/Dynamics/crossfade.h ****         Input range: 0 to 1
  59:../DaisySP/Source/Dynamics/crossfade.h ****     */
  60:../DaisySP/Source/Dynamics/crossfade.h ****     inline void SetPos(float pos) { pos_ = pos; }
  61:../DaisySP/Source/Dynamics/crossfade.h ****     /** Sets current curve applied to CrossFade 
  62:../DaisySP/Source/Dynamics/crossfade.h ****     Expected input: See [Curve Options](##curve-options)
  63:../DaisySP/Source/Dynamics/crossfade.h ****     */
  64:../DaisySP/Source/Dynamics/crossfade.h ****     inline void SetCurve(uint8_t curve) { curve_ = curve; }
 204              		.loc 3 64 50 view .LVU58
 205 009a 85F85090 		strb	r9, [r5, #80]
 206              	.LBE129:
 207              	.LBE128:
 208              	.LBE162:
  44:DelayMulti.cpp ****     //timethresh_ = 5;    //length of wait before triggering xfade
 209              		.loc 1 44 10 view .LVU59
 210 009e C5F8F870 		str	r7, [r5, #248]	@ float
  46:DelayMulti.cpp ****     TimeChange_ = false;
 211              		.loc 1 46 5 is_stmt 1 view .LVU60
  46:DelayMulti.cpp ****     TimeChange_ = false;
 212              		.loc 1 46 13 is_stmt 0 view .LVU61
 213 00a2 C5F81471 		str	r7, [r5, #276]	@ float
  47:DelayMulti.cpp ****     for(size_t i{0}; i < totalNumHeads; i++)
 214              		.loc 1 47 5 is_stmt 1 view .LVU62
  48:DelayMulti.cpp ****     {
 215              		.loc 1 48 5 view .LVU63
 216              	.LVL11:
 217              	.LBB163:
  48:DelayMulti.cpp ****     {
 218              		.loc 1 48 24 view .LVU64
  50:DelayMulti.cpp ****         Xfade_[i].SetCurve(CROSSFADE_CPOW);
 219              		.loc 1 50 9 view .LVU65
 220              	.LBB133:
 221              	.LBI109:
  51:../DaisySP/Source/Dynamics/crossfade.h ****     /** processes CrossFade and returns single sample
 222              		.loc 3 51 17 view .LVU66
 223              	.LBE133:
 224              	.LBE163:
  51:../DaisySP/Source/Dynamics/crossfade.h ****     /** processes CrossFade and returns single sample
 225              		.loc 3 51 26 view .LVU67
 226              	.LBB164:
 227              	.LBB134:
 228              	.LBB115:
 229              	.LBI110:
  43:../DaisySP/Source/Dynamics/crossfade.h ****     {
 230              		.loc 3 43 17 view .LVU68
 231              	.LBB112:
  45:../DaisySP/Source/Dynamics/crossfade.h ****         curve_ = curve < CROSSFADE_LAST ? curve : CROSSFADE_LIN;
 232              		.loc 3 45 9 view .LVU69
  45:../DaisySP/Source/Dynamics/crossfade.h ****         curve_ = curve < CROSSFADE_LAST ? curve : CROSSFADE_LIN;
ARM GAS  /var/folders/0d/2ntwfkp1791d52chq7d_xwdm0000gn/T//ccvLIGwf.s 			page 10


 233              		.loc 3 45 16 is_stmt 0 view .LVU70
 234 00a6 C5F84CA0 		str	r10, [r5, #76]	@ float
  46:../DaisySP/Source/Dynamics/crossfade.h ****     }
 235              		.loc 3 46 9 is_stmt 1 view .LVU71
 236              	.LVL12:
  46:../DaisySP/Source/Dynamics/crossfade.h ****     }
 237              		.loc 3 46 9 is_stmt 0 view .LVU72
 238              	.LBE112:
 239              	.LBE115:
 240              	.LBE134:
  51:DelayMulti.cpp ****         
 241              		.loc 1 51 9 is_stmt 1 view .LVU73
 242              	.LBB135:
 243              	.LBI128:
 244              		.loc 3 64 17 view .LVU74
 245              	.LBB130:
 246              		.loc 3 64 43 view .LVU75
 247              		.loc 3 64 43 is_stmt 0 view .LVU76
 248              	.LBE130:
 249              	.LBE135:
 250              		.loc 1 53 9 is_stmt 1 view .LVU77
 251              		.loc 1 53 26 is_stmt 0 view .LVU78
 252 00aa FFF7FEFF 		bl	_ZN7daisysp4Adsr4InitEf
 253              	.LVL13:
  54:DelayMulti.cpp ****         //Head envelope attack and decay times:
  55:DelayMulti.cpp ****         XfadeEnv_[i].SetTime(ADENV_SEG_ATTACK, XFadeTime);
 254              		.loc 1 55 9 is_stmt 1 view .LVU79
 255              	.LBB136:
 256              	.LBI118:
 257              		.loc 4 54 17 view .LVU80
 258              	.LBB120:
 259              		.loc 4 54 48 view .LVU81
 260              	.LBE120:
 261              	.LBE136:
  53:DelayMulti.cpp ****         //Head envelope attack and decay times:
 262              		.loc 1 53 26 is_stmt 0 view .LVU82
 263 00ae 05F19400 		add	r0, r5, #148
 264 00b2 95ED430A 		vldr.32	s0, [r5, #268]
 265              	.LBB137:
 266              	.LBB138:
  55:../DaisySP/Source/Control/adsr.h ****     /** Sustain level
  56:../DaisySP/Source/Control/adsr.h ****         \param sus_level - sets sustain level
  57:../DaisySP/Source/Control/adsr.h ****     */
  58:../DaisySP/Source/Control/adsr.h ****     inline void SetSustainLevel(float sus_level) { sus_ = sus_level; }
 267              		.loc 4 58 57 view .LVU83
 268 00b6 EC65     		str	r4, [r5, #92]	@ float
 269              	.LBE138:
 270              	.LBE137:
  56:DelayMulti.cpp ****         XfadeEnv_[i].SetTime(ADENV_SEG_DECAY, 0.00001f);
  57:DelayMulti.cpp ****         XfadeEnv_[i].SetTime(ADSR_SEG_RELEASE, XFadeTime);
  58:DelayMulti.cpp ****         XfadeEnv_[i].SetSustainLevel(1.0);
  59:DelayMulti.cpp **** 
  60:DelayMulti.cpp ****         delayTime_[i] = 1.0f;
 271              		.loc 1 60 23 view .LVU84
 272 00b8 C5F8E040 		str	r4, [r5, #224]	@ float
  61:DelayMulti.cpp ****         delayTarget_[i] = 1.0f;
 273              		.loc 1 61 25 view .LVU85
ARM GAS  /var/folders/0d/2ntwfkp1791d52chq7d_xwdm0000gn/T//ccvLIGwf.s 			page 11


 274 00bc C5F8E840 		str	r4, [r5, #232]	@ float
 275              	.LBB141:
 276              	.LBB116:
 277              	.LBB113:
  45:../DaisySP/Source/Dynamics/crossfade.h ****         curve_ = curve < CROSSFADE_LAST ? curve : CROSSFADE_LIN;
 278              		.loc 3 45 16 view .LVU86
 279 00c0 C5F854A0 		str	r10, [r5, #84]	@ float
 280              	.LBE113:
 281              	.LBE116:
 282              	.LBE141:
 283              	.LBB142:
 284              	.LBB131:
 285              		.loc 3 64 50 view .LVU87
 286 00c4 85F85890 		strb	r9, [r5, #88]
 287              	.LBE131:
 288              	.LBE142:
 289              	.LBB143:
 290              	.LBB121:
  54:../DaisySP/Source/Control/adsr.h ****     /** Sustain level
 291              		.loc 4 54 63 view .LVU88
 292 00c8 C5F86480 		str	r8, [r5, #100]	@ float
 293              	.LVL14:
  54:../DaisySP/Source/Control/adsr.h ****     /** Sustain level
 294              		.loc 4 54 63 view .LVU89
 295              	.LBE121:
 296              	.LBE143:
  56:DelayMulti.cpp ****         XfadeEnv_[i].SetTime(ADSR_SEG_RELEASE, XFadeTime);
 297              		.loc 1 56 9 is_stmt 1 view .LVU90
 298              	.LBB144:
 299              	.LBI123:
  54:../DaisySP/Source/Control/adsr.h ****     /** Sustain level
 300              		.loc 4 54 17 view .LVU91
 301              	.LBB125:
  54:../DaisySP/Source/Control/adsr.h ****     /** Sustain level
 302              		.loc 4 54 48 view .LVU92
 303              	.LBE125:
 304              	.LBE144:
 305              	.LBB145:
 306              	.LBB146:
  54:../DaisySP/Source/Control/adsr.h ****     /** Sustain level
 307              		.loc 4 54 63 is_stmt 0 view .LVU93
 308 00cc C5F87080 		str	r8, [r5, #112]	@ float
 309              	.LBE146:
 310              	.LBE145:
 311              	.LBB149:
 312              	.LBB126:
 313 00d0 AE66     		str	r6, [r5, #104]	@ float
 314              	.LVL15:
  54:../DaisySP/Source/Control/adsr.h ****     /** Sustain level
 315              		.loc 4 54 63 view .LVU94
 316              	.LBE126:
 317              	.LBE149:
  57:DelayMulti.cpp ****         XfadeEnv_[i].SetSustainLevel(1.0);
 318              		.loc 1 57 9 is_stmt 1 view .LVU95
 319              	.LBB150:
 320              	.LBI145:
  54:../DaisySP/Source/Control/adsr.h ****     /** Sustain level
ARM GAS  /var/folders/0d/2ntwfkp1791d52chq7d_xwdm0000gn/T//ccvLIGwf.s 			page 12


 321              		.loc 4 54 17 view .LVU96
 322              	.LBB147:
  54:../DaisySP/Source/Control/adsr.h ****     /** Sustain level
 323              		.loc 4 54 48 view .LVU97
  54:../DaisySP/Source/Control/adsr.h ****     /** Sustain level
 324              		.loc 4 54 48 is_stmt 0 view .LVU98
 325              	.LBE147:
 326              	.LBE150:
  58:DelayMulti.cpp **** 
 327              		.loc 1 58 9 is_stmt 1 view .LVU99
 328              	.LBB151:
 329              	.LBI137:
 330              		.loc 4 58 17 view .LVU100
 331              	.LBB139:
 332              		.loc 4 58 52 view .LVU101
 333              		.loc 4 58 52 is_stmt 0 view .LVU102
 334              	.LBE139:
 335              	.LBE151:
  60:DelayMulti.cpp ****         delayTarget_[i] = 1.0f;
 336              		.loc 1 60 9 is_stmt 1 view .LVU103
 337              		.loc 1 61 9 view .LVU104
  48:DelayMulti.cpp ****     {
 338              		.loc 1 48 5 view .LVU105
  48:DelayMulti.cpp ****     {
 339              		.loc 1 48 24 view .LVU106
  50:DelayMulti.cpp ****         Xfade_[i].SetCurve(CROSSFADE_CPOW);
 340              		.loc 1 50 9 view .LVU107
 341              	.LBB152:
  51:../DaisySP/Source/Dynamics/crossfade.h ****     /** processes CrossFade and returns single sample
 342              		.loc 3 51 17 view .LVU108
 343              	.LBE152:
 344              	.LBE164:
  51:../DaisySP/Source/Dynamics/crossfade.h ****     /** processes CrossFade and returns single sample
 345              		.loc 3 51 26 view .LVU109
 346              	.LBB165:
 347              	.LBB153:
 348              	.LBB117:
  43:../DaisySP/Source/Dynamics/crossfade.h ****     {
 349              		.loc 3 43 17 view .LVU110
 350              	.LBB114:
  45:../DaisySP/Source/Dynamics/crossfade.h ****         curve_ = curve < CROSSFADE_LAST ? curve : CROSSFADE_LIN;
 351              		.loc 3 45 9 view .LVU111
  46:../DaisySP/Source/Dynamics/crossfade.h ****     }
 352              		.loc 3 46 9 view .LVU112
  46:../DaisySP/Source/Dynamics/crossfade.h ****     }
 353              		.loc 3 46 9 is_stmt 0 view .LVU113
 354              	.LBE114:
 355              	.LBE117:
 356              	.LBE153:
  51:DelayMulti.cpp ****         
 357              		.loc 1 51 9 is_stmt 1 view .LVU114
 358              	.LBB154:
 359              		.loc 3 64 17 view .LVU115
 360              	.LBB132:
 361              		.loc 3 64 43 view .LVU116
 362              		.loc 3 64 43 is_stmt 0 view .LVU117
 363              	.LBE132:
ARM GAS  /var/folders/0d/2ntwfkp1791d52chq7d_xwdm0000gn/T//ccvLIGwf.s 			page 13


 364              	.LBE154:
  53:DelayMulti.cpp ****         //Head envelope attack and decay times:
 365              		.loc 1 53 9 is_stmt 1 view .LVU118
  53:DelayMulti.cpp ****         //Head envelope attack and decay times:
 366              		.loc 1 53 26 is_stmt 0 view .LVU119
 367 00d2 FFF7FEFF 		bl	_ZN7daisysp4Adsr4InitEf
 368              	.LVL16:
  55:DelayMulti.cpp ****         XfadeEnv_[i].SetTime(ADENV_SEG_DECAY, 0.00001f);
 369              		.loc 1 55 9 is_stmt 1 view .LVU120
 370              	.LBB155:
  54:../DaisySP/Source/Control/adsr.h ****     /** Sustain level
 371              		.loc 4 54 17 view .LVU121
 372              	.LBB122:
  54:../DaisySP/Source/Control/adsr.h ****     /** Sustain level
 373              		.loc 4 54 48 view .LVU122
  54:../DaisySP/Source/Control/adsr.h ****     /** Sustain level
 374              		.loc 4 54 63 is_stmt 0 view .LVU123
 375 00d6 C5F89C80 		str	r8, [r5, #156]	@ float
 376              	.LVL17:
  54:../DaisySP/Source/Control/adsr.h ****     /** Sustain level
 377              		.loc 4 54 63 view .LVU124
 378              	.LBE122:
 379              	.LBE155:
  56:DelayMulti.cpp ****         XfadeEnv_[i].SetTime(ADSR_SEG_RELEASE, XFadeTime);
 380              		.loc 1 56 9 is_stmt 1 view .LVU125
 381              	.LBB156:
  54:../DaisySP/Source/Control/adsr.h ****     /** Sustain level
 382              		.loc 4 54 17 view .LVU126
 383              	.LBB127:
  54:../DaisySP/Source/Control/adsr.h ****     /** Sustain level
 384              		.loc 4 54 48 view .LVU127
  54:../DaisySP/Source/Control/adsr.h ****     /** Sustain level
 385              		.loc 4 54 63 is_stmt 0 view .LVU128
 386 00da C5F8A060 		str	r6, [r5, #160]	@ float
 387              	.LVL18:
  54:../DaisySP/Source/Control/adsr.h ****     /** Sustain level
 388              		.loc 4 54 63 view .LVU129
 389              	.LBE127:
 390              	.LBE156:
  57:DelayMulti.cpp ****         XfadeEnv_[i].SetSustainLevel(1.0);
 391              		.loc 1 57 9 is_stmt 1 view .LVU130
 392              	.LBB157:
  54:../DaisySP/Source/Control/adsr.h ****     /** Sustain level
 393              		.loc 4 54 17 view .LVU131
 394              	.LBB148:
  54:../DaisySP/Source/Control/adsr.h ****     /** Sustain level
 395              		.loc 4 54 48 view .LVU132
  54:../DaisySP/Source/Control/adsr.h ****     /** Sustain level
 396              		.loc 4 54 63 is_stmt 0 view .LVU133
 397 00de C5F8A880 		str	r8, [r5, #168]	@ float
 398              	.LVL19:
  54:../DaisySP/Source/Control/adsr.h ****     /** Sustain level
 399              		.loc 4 54 63 view .LVU134
 400              	.LBE148:
 401              	.LBE157:
  58:DelayMulti.cpp **** 
 402              		.loc 1 58 9 is_stmt 1 view .LVU135
ARM GAS  /var/folders/0d/2ntwfkp1791d52chq7d_xwdm0000gn/T//ccvLIGwf.s 			page 14


 403              	.LBB158:
 404              		.loc 4 58 17 view .LVU136
 405              	.LBB140:
 406              		.loc 4 58 52 view .LVU137
 407              		.loc 4 58 57 is_stmt 0 view .LVU138
 408 00e2 C5F89440 		str	r4, [r5, #148]	@ float
 409              	.LVL20:
 410              		.loc 4 58 57 view .LVU139
 411              	.LBE140:
 412              	.LBE158:
  60:DelayMulti.cpp ****         delayTarget_[i] = 1.0f;
 413              		.loc 1 60 9 is_stmt 1 view .LVU140
  60:DelayMulti.cpp ****         delayTarget_[i] = 1.0f;
 414              		.loc 1 60 23 is_stmt 0 view .LVU141
 415 00e6 C5F8E440 		str	r4, [r5, #228]	@ float
 416              		.loc 1 61 9 is_stmt 1 view .LVU142
 417              		.loc 1 61 25 is_stmt 0 view .LVU143
 418 00ea C5F8EC40 		str	r4, [r5, #236]	@ float
  48:DelayMulti.cpp ****     {
 419              		.loc 1 48 5 is_stmt 1 view .LVU144
 420              	.LVL21:
  48:DelayMulti.cpp ****     {
 421              		.loc 1 48 24 view .LVU145
 422              	.LBE165:
  62:DelayMulti.cpp ****     }
  63:DelayMulti.cpp **** 
  64:DelayMulti.cpp **** }
 423              		.loc 1 64 1 is_stmt 0 view .LVU146
 424 00ee 02B0     		add	sp, sp, #8
 425              		.cfi_def_cfa_offset 32
 426              		@ sp needed
 427 00f0 BDE8F087 		pop	{r4, r5, r6, r7, r8, r9, r10, pc}
 428              	.LVL22:
 429              	.L9:
 430              		.loc 1 64 1 view .LVU147
 431              		.align	2
 432              	.L8:
 433 00f4 84786900 		.word	6912132
 434 00f8 0000F03F 		.word	1072693248
 435 00fc ACC52737 		.word	925353388
 436 0100 0AD7233C 		.word	1008981770
 437              		.cfi_endproc
 438              	.LFE3966:
 440              		.section	.text._ZN10DelayMulti9GetOutputEv,"ax",%progbits
 441              		.align	1
 442              		.p2align 2,,3
 443              		.global	_ZN10DelayMulti9GetOutputEv
 444              		.syntax unified
 445              		.thumb
 446              		.thumb_func
 447              		.fpu fpv5-d16
 449              	_ZN10DelayMulti9GetOutputEv:
 450              	.LVL23:
 451              	.LFB3968:
  65:DelayMulti.cpp **** 
  66:DelayMulti.cpp **** //Updates delay time in samples. Returns high if tempo was updated
  67:DelayMulti.cpp **** bool DelayMulti::SetDelayTime(float delaytime_pot, bool syncMode)
ARM GAS  /var/folders/0d/2ntwfkp1791d52chq7d_xwdm0000gn/T//ccvLIGwf.s 			page 15


  68:DelayMulti.cpp **** {
  69:DelayMulti.cpp **** 
  70:DelayMulti.cpp **** double delaytime{};
  71:DelayMulti.cpp **** 
  72:DelayMulti.cpp **** if(syncMode)
  73:DelayMulti.cpp **** {
  74:DelayMulti.cpp ****     //double precision
  75:DelayMulti.cpp ****     delaytime = GetDiv(delaytime_pot) * baseTempo_ * 48.0;
  76:DelayMulti.cpp **** }
  77:DelayMulti.cpp **** 
  78:DelayMulti.cpp **** else
  79:DelayMulti.cpp **** {
  80:DelayMulti.cpp ****     delaytime = scale(delaytime_pot,minDelay,maxDelay,LOGARITHMIC);
  81:DelayMulti.cpp **** }
  82:DelayMulti.cpp ****     
  83:DelayMulti.cpp **** //If change in delaytime exceeds 0.5% of last value
  84:DelayMulti.cpp **** if( abs( delaytime - delayLast_)> (0.005 * delayLast_)) 
  85:DelayMulti.cpp **** {
  86:DelayMulti.cpp ****     timer_ = System::GetNow(); //reset timer
  87:DelayMulti.cpp ****     waiting_flag_ = true;
  88:DelayMulti.cpp ****     TimeChange_ = true;
  89:DelayMulti.cpp ****     delayLast_ = delaytime;
  90:DelayMulti.cpp ****     return false;
  91:DelayMulti.cpp **** }
  92:DelayMulti.cpp **** 
  93:DelayMulti.cpp **** else    //change in delaytime smaller than threshold (I.e. stopped moving)
  94:DelayMulti.cpp **** {
  95:DelayMulti.cpp ****     if(TimeChange_)
  96:DelayMulti.cpp ****     {
  97:DelayMulti.cpp **** 
  98:DelayMulti.cpp ****      //set delaytime of next head set
  99:DelayMulti.cpp ****     if(active_head_set_)    //if set 1 active
 100:DelayMulti.cpp ****     {
 101:DelayMulti.cpp ****         for (size_t j=0; j < numHeads; j++)
 102:DelayMulti.cpp ****         {
 103:DelayMulti.cpp ****             //set delaytime for set 2
 104:DelayMulti.cpp ****             delayTarget_[numHeads + j] = static_cast<float> (delaytime);
 105:DelayMulti.cpp ****         }
 106:DelayMulti.cpp ****     }
 107:DelayMulti.cpp ****     else
 108:DelayMulti.cpp ****     {
 109:DelayMulti.cpp ****         for (size_t j=0; j < numHeads; j++) //set 2 active
 110:DelayMulti.cpp ****         {
 111:DelayMulti.cpp ****             //set delay time for set 1
 112:DelayMulti.cpp ****             delayTarget_[j] = static_cast<float> (delaytime);
 113:DelayMulti.cpp ****         }
 114:DelayMulti.cpp ****     }
 115:DelayMulti.cpp **** 
 116:DelayMulti.cpp ****     TimeChange_ = false;    //reset timechange flag so it only happens once
 117:DelayMulti.cpp **** 
 118:DelayMulti.cpp ****     }
 119:DelayMulti.cpp ****     //if timer has exceeded threshold and waiting flag is on:
 120:DelayMulti.cpp ****     if ((System::GetNow() - timer_) > timethresh && waiting_flag_ == true)  
 121:DelayMulti.cpp ****     {
 122:DelayMulti.cpp ****         //flip all gates
 123:DelayMulti.cpp ****             for (size_t j=0; j < totalNumHeads; j++)
 124:DelayMulti.cpp ****             {
ARM GAS  /var/folders/0d/2ntwfkp1791d52chq7d_xwdm0000gn/T//ccvLIGwf.s 			page 16


 125:DelayMulti.cpp ****                 XfadeGate_[j] = !XfadeGate_[j];
 126:DelayMulti.cpp ****             }
 127:DelayMulti.cpp **** 
 128:DelayMulti.cpp ****         //flip active head
 129:DelayMulti.cpp ****         active_head_set_ = !active_head_set_;
 130:DelayMulti.cpp **** 
 131:DelayMulti.cpp ****         timer_ = System::GetNow(); //reset timer
 132:DelayMulti.cpp ****         waiting_flag_ = false;  //reset wait flag
 133:DelayMulti.cpp **** 
 134:DelayMulti.cpp ****         //update freq of tempo LED oscillator
 135:DelayMulti.cpp ****         tempoled.setTempo(1.0f / (delaytime / samplerate_ ));
 136:DelayMulti.cpp ****         return true;
 137:DelayMulti.cpp ****     }
 138:DelayMulti.cpp ****     else //still waiting for (System::GetNow() - timer_) to exceed timethresh
 139:DelayMulti.cpp ****     {
 140:DelayMulti.cpp ****         return false;
 141:DelayMulti.cpp ****     }  
 142:DelayMulti.cpp **** }
 143:DelayMulti.cpp **** 
 144:DelayMulti.cpp **** }
 145:DelayMulti.cpp **** 
 146:DelayMulti.cpp **** //Updates xfades, updates delayline with delayTime[] + modulation and 
 147:DelayMulti.cpp **** //returns combined output from delay heads, and updates LEDs. 
 148:DelayMulti.cpp **** //Call at audio samplerate
 149:DelayMulti.cpp **** const float& DelayMulti::GetOutput()
 150:DelayMulti.cpp **** {
 452              		.loc 1 150 1 is_stmt 1 view -0
 453              		.cfi_startproc
 454              		@ args = 0, pretend = 0, frame = 8
 455              		@ frame_needed = 0, uses_anonymous_args = 0
 151:DelayMulti.cpp ****     //float output{};    
 152:DelayMulti.cpp ****     output_ = 0.0f;
 456              		.loc 1 152 5 view .LVU149
 150:DelayMulti.cpp ****     //float output{};    
 457              		.loc 1 150 1 is_stmt 0 view .LVU150
 458 0000 2DE9F04F 		push	{r4, r5, r6, r7, r8, r9, r10, fp, lr}
 459              		.cfi_def_cfa_offset 36
 460              		.cfi_offset 4, -36
 461              		.cfi_offset 5, -32
 462              		.cfi_offset 6, -28
 463              		.cfi_offset 7, -24
 464              		.cfi_offset 8, -20
 465              		.cfi_offset 9, -16
 466              		.cfi_offset 10, -12
 467              		.cfi_offset 11, -8
 468              		.cfi_offset 14, -4
 469              		.loc 1 152 13 view .LVU151
 470 0004 0023     		movs	r3, #0
 471              	.LBB191:
 153:DelayMulti.cpp ****     float zero{};
 154:DelayMulti.cpp ****     //for (size_t i=0; i < numDelayHeads;i++)
 155:DelayMulti.cpp ****     for (size_t i=0; i < totalNumHeads; i++)
 472              		.loc 1 155 17 view .LVU152
 473 0006 0027     		movs	r7, #0
 474              	.LBE191:
 150:DelayMulti.cpp ****     //float output{};    
 475              		.loc 1 150 1 view .LVU153
ARM GAS  /var/folders/0d/2ntwfkp1791d52chq7d_xwdm0000gn/T//ccvLIGwf.s 			page 17


 476 0008 0446     		mov	r4, r0
 477 000a 00F1D005 		add	r5, r0, #208
 478 000e 00F1CC09 		add	r9, r0, #204
 479 0012 00F15C08 		add	r8, r0, #92
 480 0016 00F14C06 		add	r6, r0, #76
 481 001a 2DED028B 		vpush.64	{d8}
 482              		.cfi_def_cfa_offset 44
 483              		.cfi_offset 80, -44
 484              		.cfi_offset 81, -40
 485 001e 83B0     		sub	sp, sp, #12
 486              		.cfi_def_cfa_offset 56
 152:DelayMulti.cpp ****     float zero{};
 487              		.loc 1 152 13 view .LVU154
 488 0020 C0F81431 		str	r3, [r0, #276]	@ float
 153:DelayMulti.cpp ****     float zero{};
 489              		.loc 1 153 5 is_stmt 1 view .LVU155
 490              		.loc 1 155 5 view .LVU156
 491              	.LVL24:
 492              	.LBB217:
 493              		.loc 1 155 24 view .LVU157
 494              	.LBE217:
 153:DelayMulti.cpp ****     float zero{};
 495              		.loc 1 153 11 is_stmt 0 view .LVU158
 496 0024 0193     		str	r3, [sp, #4]	@ float
 497              	.LVL25:
 498              	.L12:
 499              	.LBB218:
 156:DelayMulti.cpp ****     {   
 157:DelayMulti.cpp ****         delayTime_[i] = delayTarget_[i] + mod_;
 500              		.loc 1 157 9 is_stmt 1 discriminator 2 view .LVU159
 158:DelayMulti.cpp ****         del-> SetDelay( delayTime_[i],i); //set delaytime
 501              		.loc 1 158 9 is_stmt 0 discriminator 2 view .LVU160
 502 0026 2368     		ldr	r3, [r4]
 503              	.LBB192:
 504              	.LBB193:
  70:delayline_multitap.h ****         }
  71:delayline_multitap.h **** 
  72:delayline_multitap.h ****     }
  73:delayline_multitap.h **** 
  74:delayline_multitap.h ****     /** sets the delay time in samples for a given head
  75:delayline_multitap.h ****     */
  76:delayline_multitap.h ****     inline void SetDelay(size_t delay, size_t head)
  77:delayline_multitap.h ****     {
  78:delayline_multitap.h ****         if (head >= num_heads_)
  79:delayline_multitap.h ****             return; //return without setting delay time as not valid head index
  80:delayline_multitap.h **** 
  81:delayline_multitap.h ****         delay_[head] = delay < max_size ? delay : max_size - 1;
  82:delayline_multitap.h ****         frac_[head] = 0.0f;
  83:delayline_multitap.h ****     }
  84:delayline_multitap.h **** 
  85:delayline_multitap.h ****     /** sets the delay time in samples for a given head
  86:delayline_multitap.h ****     */
  87:delayline_multitap.h ****     inline void SetDelay(const float &delay, size_t head)   //passing by reference
  88:delayline_multitap.h ****     {
  89:delayline_multitap.h ****         if (head >= num_heads_)
 505              		.loc 2 89 21 discriminator 2 view .LVU161
 506 0028 DFF8DCE0 		ldr	lr, .L16+8
ARM GAS  /var/folders/0d/2ntwfkp1791d52chq7d_xwdm0000gn/T//ccvLIGwf.s 			page 18


 507              	.LBE193:
 508              	.LBE192:
 157:DelayMulti.cpp ****         del-> SetDelay( delayTime_[i],i); //set delaytime
 509              		.loc 1 157 41 discriminator 2 view .LVU162
 510 002c 94ED3E7A 		vldr.32	s14, [r4, #248]
 511 0030 03EB8701 		add	r1, r3, r7, lsl #2
 512 0034 D5ED067A 		vldr.32	s15, [r5, #24]
 513              	.LBB198:
 514              	.LBB194:
 515              		.loc 2 89 9 discriminator 2 view .LVU163
 516 0038 53F80EE0 		ldr	lr, [r3, lr]
 517              	.LBE194:
 518              	.LBE198:
 157:DelayMulti.cpp ****         del-> SetDelay( delayTime_[i],i); //set delaytime
 519              		.loc 1 157 41 discriminator 2 view .LVU164
 520 003c 77EE877A 		vadd.f32	s15, s15, s14
 521              	.LBB199:
 522              	.LBB195:
  90:delayline_multitap.h ****             return; //return without setting delay time as not valid head index
  91:delayline_multitap.h **** 
  92:delayline_multitap.h ****         int32_t int_delay = static_cast<int32_t>(delay);
  93:delayline_multitap.h ****         frac_[head] = delay - static_cast<float>(int_delay);
  94:delayline_multitap.h ****         delay_[head] = static_cast<size_t>(int_delay) < max_size ? int_delay
 523              		.loc 2 94 9 discriminator 2 view .LVU165
 524 0040 2F4A     		ldr	r2, .L16
  89:delayline_multitap.h ****             return; //return without setting delay time as not valid head index
 525              		.loc 2 89 9 discriminator 2 view .LVU166
 526 0042 BE45     		cmp	lr, r7
 527              	.LBE195:
 528              	.LBE199:
 529              	.LBB200:
 530              	.LBB201:
 531              	.LBB202:
  95:delayline_multitap.h ****                                                         : max_size - 1;  
  96:delayline_multitap.h ****     }
  97:delayline_multitap.h **** 
  98:delayline_multitap.h ****      /*   
  99:delayline_multitap.h ****     //Sets the delay time in samples for a given head. Int for base time, float for modulation
 100:delayline_multitap.h ****     
 101:delayline_multitap.h ****     inline void SetDelay(const size_t &delay, const float &mod,size_t head)   //passing by referenc
 102:delayline_multitap.h ****     {
 103:delayline_multitap.h ****         if (head >= num_heads_)
 104:delayline_multitap.h ****             return; //return without setting delay time as not valid head index
 105:delayline_multitap.h **** 
 106:delayline_multitap.h ****         int32_t int_mod = static_cast<int32_t>(mod);
 107:delayline_multitap.h ****         int32_t int_delay = delay + int_mod;
 108:delayline_multitap.h ****         frac_[head] = mod - static_cast<float>(int_mod);
 109:delayline_multitap.h ****         delay_[head] = static_cast<size_t>(int_delay)  < max_size ? int_delay
 110:delayline_multitap.h ****                                                         : max_size - 1;  
 111:delayline_multitap.h ****     }
 112:delayline_multitap.h **** 
 113:delayline_multitap.h ****     */
 114:delayline_multitap.h **** 
 115:delayline_multitap.h **** 
 116:delayline_multitap.h ****     /** writes the sample of type T to the delay line, and advances the write ptr
 117:delayline_multitap.h ****     */
 118:delayline_multitap.h ****     inline void Write(const T& sample)
ARM GAS  /var/folders/0d/2ntwfkp1791d52chq7d_xwdm0000gn/T//ccvLIGwf.s 			page 19


 119:delayline_multitap.h ****     {
 120:delayline_multitap.h ****         line_[write_ptr_] = sample;
 121:delayline_multitap.h ****         write_ptr_        = (write_ptr_ - 1 + max_size) % max_size;
 122:delayline_multitap.h ****     }
 123:delayline_multitap.h **** 
 124:delayline_multitap.h ****     /** returns the next sample of type T in the delay line, interpolated if necessary.
 125:delayline_multitap.h ****     */
 126:delayline_multitap.h ****    //final const means this function can't change any variables.
 127:delayline_multitap.h ****     inline const T Read(size_t head) const 
 128:delayline_multitap.h ****     {
 129:delayline_multitap.h ****         if(head >= num_heads_)
 130:delayline_multitap.h ****         {
 131:delayline_multitap.h ****             return 0.0f; //not a valid head index
 132:delayline_multitap.h ****         }
 133:delayline_multitap.h ****         else
 134:delayline_multitap.h ****         {
 135:delayline_multitap.h ****             T  a = line_[(write_ptr_ + delay_[head]) % max_size];
 532              		.loc 2 135 54 discriminator 2 view .LVU167
 533 0044 DFF8C4B0 		ldr	fp, .L16+12
 534 0048 DFF8C4C0 		ldr	ip, .L16+16
 535              	.LBE202:
 536              	.LBE201:
 537              	.LBE200:
 157:DelayMulti.cpp ****         del-> SetDelay( delayTime_[i],i); //set delaytime
 538              		.loc 1 157 23 discriminator 2 view .LVU168
 539 004c C5ED047A 		vstr.32	s15, [r5, #16]
 540              		.loc 1 158 9 is_stmt 1 discriminator 2 view .LVU169
 541              	.LVL26:
 542              	.LBB208:
 543              	.LBI192:
  87:delayline_multitap.h ****     {
 544              		.loc 2 87 17 discriminator 2 view .LVU170
 545              	.LBB196:
  89:delayline_multitap.h ****             return; //return without setting delay time as not valid head index
 546              		.loc 2 89 9 is_stmt 0 discriminator 2 view .LVU171
 547 0050 52D9     		bls	.L13
  92:delayline_multitap.h ****         frac_[head] = delay - static_cast<float>(int_delay);
 548              		.loc 2 92 17 view .LVU172
 549 0052 BDEEE77A 		vcvt.s32.f32	s14, s15
 550              	.LVL27:
  94:delayline_multitap.h ****                                                         : max_size - 1;  
 551              		.loc 2 94 9 view .LVU173
 552 0056 17EE100A 		vmov	r0, s14	@ int
  93:delayline_multitap.h ****         delay_[head] = static_cast<size_t>(int_delay) < max_size ? int_delay
 553              		.loc 2 93 29 view .LVU174
 554 005a B8EEC77A 		vcvt.f32.s32	s14, s14
 555              	.LVL28:
  94:delayline_multitap.h ****                                                         : max_size - 1;  
 556              		.loc 2 94 9 view .LVU175
 557 005e 8242     		cmp	r2, r0
  93:delayline_multitap.h ****         delay_[head] = static_cast<size_t>(int_delay) < max_size ? int_delay
 558              		.loc 2 93 29 view .LVU176
 559 0060 77EEC77A 		vsub.f32	s15, s15, s14
  94:delayline_multitap.h ****                                                         : max_size - 1;  
 560              		.loc 2 94 9 view .LVU177
 561 0064 28BF     		it	cs
 562 0066 0246     		movcs	r2, r0
ARM GAS  /var/folders/0d/2ntwfkp1791d52chq7d_xwdm0000gn/T//ccvLIGwf.s 			page 20


 563 0068 4A60     		str	r2, [r1, #4]
 564              	.LBE196:
 565              	.LBE208:
 566              	.LBB209:
 567              	.LBB205:
 568              	.LBB203:
 569              		.loc 2 135 38 view .LVU178
 570 006a 1868     		ldr	r0, [r3]
 571              	.LVL29:
 572              		.loc 2 135 38 view .LVU179
 573              	.LBE203:
 574              	.LBE205:
 575              	.LBE209:
 576              	.LBB210:
 577              	.LBB197:
  93:delayline_multitap.h ****         delay_[head] = static_cast<size_t>(int_delay) < max_size ? int_delay
 578              		.loc 2 93 9 view .LVU180
 579 006c C1ED117A 		vstr.32	s15, [r1, #68]
 580              	.LVL30:
  93:delayline_multitap.h ****         delay_[head] = static_cast<size_t>(int_delay) < max_size ? int_delay
 581              		.loc 2 93 9 view .LVU181
 582              	.LBE197:
 583              	.LBE210:
 159:DelayMulti.cpp ****         delayOutput_[i] = del->Read(i); //read head
 584              		.loc 1 159 9 is_stmt 1 view .LVU182
 585              	.LBB211:
 586              	.LBI200:
 127:delayline_multitap.h ****     {
 587              		.loc 2 127 20 view .LVU183
 588              	.LBB206:
 589              	.LBI201:
 127:delayline_multitap.h ****     {
 590              		.loc 2 127 20 view .LVU184
 591              	.LBB204:
 592              		.loc 2 135 38 is_stmt 0 view .LVU185
 593 0070 0244     		add	r2, r2, r0
 136:delayline_multitap.h ****             T b = line_[(write_ptr_ + delay_[head] + 1) % max_size];
 594              		.loc 2 136 52 view .LVU186
 595 0072 02F1010E 		add	lr, r2, #1
 135:delayline_multitap.h ****             T b = line_[(write_ptr_ + delay_[head] + 1) % max_size];
 596              		.loc 2 135 54 view .LVU187
 597 0076 510A     		lsrs	r1, r2, #9
 598              		.loc 2 136 57 view .LVU188
 599 0078 4FEA5E2A 		lsr	r10, lr, #9
 135:delayline_multitap.h ****             T b = line_[(write_ptr_ + delay_[head] + 1) % max_size];
 600              		.loc 2 135 54 view .LVU189
 601 007c ABFB0101 		umull	r0, r1, fp, r1
 602              		.loc 2 136 57 view .LVU190
 603 0080 ABFB0AA0 		umull	r10, r0, fp, r10
 135:delayline_multitap.h ****             T b = line_[(write_ptr_ + delay_[head] + 1) % max_size];
 604              		.loc 2 135 54 view .LVU191
 605 0084 0CFB1122 		mls	r2, ip, r1, r2
 606              		.loc 2 136 57 view .LVU192
 607 0088 0CFB10E1 		mls	r1, ip, r0, lr
 135:delayline_multitap.h ****             T b = line_[(write_ptr_ + delay_[head] + 1) % max_size];
 608              		.loc 2 135 16 view .LVU193
 609 008c 03EB8202 		add	r2, r3, r2, lsl #2
ARM GAS  /var/folders/0d/2ntwfkp1791d52chq7d_xwdm0000gn/T//ccvLIGwf.s 			page 21


 610              		.loc 2 136 15 view .LVU194
 611 0090 03EB8103 		add	r3, r3, r1, lsl #2
 612              	.LVL31:
 135:delayline_multitap.h ****             T b = line_[(write_ptr_ + delay_[head] + 1) % max_size];
 613              		.loc 2 135 16 view .LVU195
 614 0094 92ED217A 		vldr.32	s14, [r2, #132]
 615              	.LVL32:
 137:delayline_multitap.h ****             return a + (b-a) * frac_[head];
 616              		.loc 2 137 26 view .LVU196
 617 0098 D3ED216A 		vldr.32	s13, [r3, #132]
 618 009c 76EEC76A 		vsub.f32	s13, s13, s14
 619              		.loc 2 137 42 view .LVU197
 620 00a0 A6EEA77A 		vfma.f32	s14, s13, s15
 621              	.LVL33:
 622              		.loc 2 137 42 view .LVU198
 623 00a4 F0EE477A 		vmov.f32	s15, s14
 624              	.LVL34:
 625              	.L11:
 626              		.loc 2 137 42 view .LVU199
 627              	.LBE204:
 628              	.LBE206:
 629              	.LBE211:
 160:DelayMulti.cpp ****         //update xfade
 161:DelayMulti.cpp ****         XfadePos_[i] = XfadeEnv_[i].Process(XfadeGate_[i]);
 630              		.loc 1 161 22 view .LVU200
 631 00a8 AA46     		mov	r10, r5
 632              		.loc 1 161 44 view .LVU201
 633 00aa 19F8011B 		ldrb	r1, [r9], #1	@ zero_extendqisi2
 634 00ae 4046     		mov	r0, r8
 159:DelayMulti.cpp ****         //update xfade
 635              		.loc 1 159 25 view .LVU202
 636 00b0 C5ED087A 		vstr.32	s15, [r5, #32]
 637              		.loc 1 161 9 is_stmt 1 view .LVU203
 638              		.loc 1 161 44 is_stmt 0 view .LVU204
 639 00b4 FFF7FEFF 		bl	_ZN7daisysp4Adsr7ProcessEb
 640              	.LVL35:
 162:DelayMulti.cpp ****         Xfade_[i].SetPos(XfadePos_[i]);
 163:DelayMulti.cpp **** 
 164:DelayMulti.cpp ****         //sum all head outputs * gains
 165:DelayMulti.cpp ****         output_ +=  Gain_[i] * Xfade_[i].Process(zero,delayOutput_[i]);
 641              		.loc 1 165 49 view .LVU205
 642 00b8 05F12002 		add	r2, r5, #32
 161:DelayMulti.cpp ****         Xfade_[i].SetPos(XfadePos_[i]);
 643              		.loc 1 161 22 view .LVU206
 644 00bc AAEC010A 		vstmia.32	r10!, {s0}
 162:DelayMulti.cpp ****         Xfade_[i].SetPos(XfadePos_[i]);
 645              		.loc 1 162 9 is_stmt 1 view .LVU207
 646              	.LVL36:
 647              	.LBB212:
 648              	.LBI212:
  60:../DaisySP/Source/Dynamics/crossfade.h ****     /** Sets current curve applied to CrossFade 
 649              		.loc 3 60 17 view .LVU208
 650              	.LBB213:
  60:../DaisySP/Source/Dynamics/crossfade.h ****     /** Sets current curve applied to CrossFade 
 651              		.loc 3 60 37 view .LVU209
 652              	.LBE213:
 653              	.LBE212:
ARM GAS  /var/folders/0d/2ntwfkp1791d52chq7d_xwdm0000gn/T//ccvLIGwf.s 			page 22


 654              		.loc 1 165 49 is_stmt 0 view .LVU210
 655 00c0 3046     		mov	r0, r6
 656              	.LBB215:
 657              	.LBB214:
  60:../DaisySP/Source/Dynamics/crossfade.h ****     /** Sets current curve applied to CrossFade 
 658              		.loc 3 60 42 view .LVU211
 659 00c2 86ED000A 		vstr.32	s0, [r6]
 660              	.LVL37:
  60:../DaisySP/Source/Dynamics/crossfade.h ****     /** Sets current curve applied to CrossFade 
 661              		.loc 3 60 42 view .LVU212
 662              	.LBE214:
 663              	.LBE215:
 664              		.loc 1 165 9 is_stmt 1 view .LVU213
 665              		.loc 1 165 49 is_stmt 0 view .LVU214
 666 00c6 01A9     		add	r1, sp, #4
 667              		.loc 1 165 28 view .LVU215
 668 00c8 9AED018A 		vldr.32	s16, [r10, #4]
 669              		.loc 1 165 49 view .LVU216
 670 00cc FFF7FEFF 		bl	_ZN7daisysp9CrossFade7ProcessERfS1_
 671              	.LVL38:
 672              		.loc 1 165 17 view .LVU217
 673 00d0 D4ED457A 		vldr.32	s15, [r4, #276]
 674 00d4 08F13808 		add	r8, r8, #56
 675 00d8 5546     		mov	r5, r10
 676 00da 0836     		adds	r6, r6, #8
 677              	.LVL39:
 678              		.loc 1 165 17 view .LVU218
 679 00dc E8EE007A 		vfma.f32	s15, s16, s0
 680 00e0 C4ED457A 		vstr.32	s15, [r4, #276]
 155:DelayMulti.cpp ****     {   
 681              		.loc 1 155 5 is_stmt 1 view .LVU219
 682              	.LVL40:
 155:DelayMulti.cpp ****     {   
 683              		.loc 1 155 24 view .LVU220
 684 00e4 37B1     		cbz	r7, .L14
 685              	.LBE218:
 166:DelayMulti.cpp ****     }
 167:DelayMulti.cpp **** 
 168:DelayMulti.cpp ****     return output_;
 686              		.loc 1 168 5 view .LVU221
 169:DelayMulti.cpp **** }
 687              		.loc 1 169 1 is_stmt 0 view .LVU222
 688 00e6 04F58A70 		add	r0, r4, #276
 689 00ea 03B0     		add	sp, sp, #12
 690              		.cfi_remember_state
 691              		.cfi_def_cfa_offset 44
 692              		@ sp needed
 693 00ec BDEC028B 		vldm	sp!, {d8}
 694              		.cfi_restore 80
 695              		.cfi_restore 81
 696              		.cfi_def_cfa_offset 36
 697 00f0 BDE8F08F 		pop	{r4, r5, r6, r7, r8, r9, r10, fp, pc}
 698              	.LVL41:
 699              	.L14:
 700              		.cfi_restore_state
 701              	.LBB219:
 702              		.loc 1 169 1 view .LVU223
ARM GAS  /var/folders/0d/2ntwfkp1791d52chq7d_xwdm0000gn/T//ccvLIGwf.s 			page 23


 703 00f4 0127     		movs	r7, #1
 704              	.LVL42:
 705              		.loc 1 169 1 view .LVU224
 706 00f6 96E7     		b	.L12
 707              	.LVL43:
 708              	.L13:
 709              	.LBB216:
 710              	.LBB207:
 131:delayline_multitap.h ****         }
 711              		.loc 2 131 20 view .LVU225
 712 00f8 DFED027A 		vldr.32	s15, .L16+4
 713 00fc D4E7     		b	.L11
 714              	.L17:
 715 00fe 00BF     		.align	2
 716              	.L16:
 717 0100 FF5D1A00 		.word	1727999
 718 0104 00000000 		.word	0
 719 0108 84786900 		.word	6912132
 720 010c 076B1300 		.word	1272583
 721 0110 005E1A00 		.word	1728000
 722              	.LBE207:
 723              	.LBE216:
 724              	.LBE219:
 725              		.cfi_endproc
 726              	.LFE3968:
 728              		.section	.text._ZN10DelayMulti14updateTempoLEDEb,"ax",%progbits
 729              		.align	1
 730              		.p2align 2,,3
 731              		.global	_ZN10DelayMulti14updateTempoLEDEb
 732              		.syntax unified
 733              		.thumb
 734              		.thumb_func
 735              		.fpu fpv5-d16
 737              	_ZN10DelayMulti14updateTempoLEDEb:
 738              	.LVL44:
 739              	.LFB3969:
 170:DelayMulti.cpp **** 
 171:DelayMulti.cpp **** void DelayMulti::updateTempoLED(bool syncMode)
 172:DelayMulti.cpp **** {
 740              		.loc 1 172 1 is_stmt 1 view -0
 741              		.cfi_startproc
 742              		@ args = 0, pretend = 0, frame = 0
 743              		@ frame_needed = 0, uses_anonymous_args = 0
 744              		@ link register save eliminated.
 173:DelayMulti.cpp ****     if(syncMode)
 745              		.loc 1 173 5 view .LVU227
 172:DelayMulti.cpp ****     if(syncMode)
 746              		.loc 1 172 1 is_stmt 0 view .LVU228
 747 0000 0346     		mov	r3, r0
 748              		.loc 1 173 5 view .LVU229
 749 0002 31B1     		cbz	r1, .L19
 174:DelayMulti.cpp ****     {
 175:DelayMulti.cpp ****         tempoled.update(div_,basePhase_);
 750              		.loc 1 175 9 is_stmt 1 view .LVU230
 751              		.loc 1 175 24 is_stmt 0 view .LVU231
 752 0004 90ED470A 		vldr.32	s0, [r0, #284]
 753 0008 0430     		adds	r0, r0, #4
ARM GAS  /var/folders/0d/2ntwfkp1791d52chq7d_xwdm0000gn/T//ccvLIGwf.s 			page 24


 754              	.LVL45:
 755              		.loc 1 175 24 view .LVU232
 756 000a 93F81911 		ldrb	r1, [r3, #281]	@ zero_extendqisi2
 757              	.LVL46:
 758              		.loc 1 175 24 view .LVU233
 759 000e FFF7FEBF 		b	_ZN8TempoLED6updateE9TempoDivsf
 760              	.LVL47:
 761              	.L19:
 176:DelayMulti.cpp ****     }
 177:DelayMulti.cpp ****     else
 178:DelayMulti.cpp ****     {
 179:DelayMulti.cpp ****         tempoled.update();
 762              		.loc 1 179 9 is_stmt 1 view .LVU234
 763              		.loc 1 179 24 is_stmt 0 view .LVU235
 764 0012 0430     		adds	r0, r0, #4
 765              	.LVL48:
 766              		.loc 1 179 24 view .LVU236
 767 0014 FFF7FEBF 		b	_ZN8TempoLED6updateEv
 768              	.LVL49:
 769              		.loc 1 179 24 view .LVU237
 770              		.cfi_endproc
 771              	.LFE3969:
 773              		.section	.text._ZN10DelayMulti5WriteERKf,"ax",%progbits
 774              		.align	1
 775              		.p2align 2,,3
 776              		.global	_ZN10DelayMulti5WriteERKf
 777              		.syntax unified
 778              		.thumb
 779              		.thumb_func
 780              		.fpu fpv5-d16
 782              	_ZN10DelayMulti5WriteERKf:
 783              	.LVL50:
 784              	.LFB3970:
 180:DelayMulti.cpp ****     }
 181:DelayMulti.cpp **** }
 182:DelayMulti.cpp **** 
 183:DelayMulti.cpp **** //Writes to delayline
 184:DelayMulti.cpp **** void DelayMulti::Write(const float& in)
 185:DelayMulti.cpp **** {
 785              		.loc 1 185 1 is_stmt 1 view -0
 786              		.cfi_startproc
 787              		@ args = 0, pretend = 0, frame = 0
 788              		@ frame_needed = 0, uses_anonymous_args = 0
 789              		@ link register save eliminated.
 186:DelayMulti.cpp ****     del->Write(in);
 790              		.loc 1 186 5 is_stmt 0 view .LVU239
 791 0000 0068     		ldr	r0, [r0]
 792              	.LVL51:
 793              	.LBB220:
 794              	.LBB221:
 121:delayline_multitap.h ****     }
 795              		.loc 2 121 45 view .LVU240
 796 0002 094A     		ldr	r2, .L22
 797              	.LBE221:
 798              	.LBE220:
 799              		.loc 1 186 5 is_stmt 1 view .LVU241
 185:DelayMulti.cpp ****     del->Write(in);
ARM GAS  /var/folders/0d/2ntwfkp1791d52chq7d_xwdm0000gn/T//ccvLIGwf.s 			page 25


 800              		.loc 1 185 1 is_stmt 0 view .LVU242
 801 0004 70B4     		push	{r4, r5, r6}
 802              		.cfi_def_cfa_offset 12
 803              		.cfi_offset 4, -12
 804              		.cfi_offset 5, -8
 805              		.cfi_offset 6, -4
 806              		.loc 1 186 15 view .LVU243
 807 0006 0E68     		ldr	r6, [r1]	@ float
 808              	.LVL52:
 809              	.LBB224:
 810              	.LBI220:
 118:delayline_multitap.h ****     {
 811              		.loc 2 118 17 is_stmt 1 view .LVU244
 812              	.LBB222:
 120:delayline_multitap.h ****         write_ptr_        = (write_ptr_ - 1 + max_size) % max_size;
 813              		.loc 2 120 15 is_stmt 0 view .LVU245
 814 0008 0168     		ldr	r1, [r0]
 815              	.LVL53:
 121:delayline_multitap.h ****     }
 816              		.loc 2 121 57 view .LVU246
 817 000a 084D     		ldr	r5, .L22+4
 121:delayline_multitap.h ****     }
 818              		.loc 2 121 45 view .LVU247
 819 000c 0A44     		add	r2, r2, r1
 120:delayline_multitap.h ****         write_ptr_        = (write_ptr_ - 1 + max_size) % max_size;
 820              		.loc 2 120 9 view .LVU248
 821 000e 00EB8101 		add	r1, r0, r1, lsl #2
 121:delayline_multitap.h ****     }
 822              		.loc 2 121 57 view .LVU249
 823 0012 074C     		ldr	r4, .L22+8
 824 0014 530A     		lsrs	r3, r2, #9
 120:delayline_multitap.h ****         write_ptr_        = (write_ptr_ - 1 + max_size) % max_size;
 825              		.loc 2 120 9 view .LVU250
 826 0016 C1F88460 		str	r6, [r1, #132]	@ float
 121:delayline_multitap.h ****     }
 827              		.loc 2 121 57 view .LVU251
 828 001a A5FB0313 		umull	r1, r3, r5, r3
 829 001e 04FB1323 		mls	r3, r4, r3, r2
 830              	.LBE222:
 831              	.LBE224:
 187:DelayMulti.cpp **** }
 832              		.loc 1 187 1 view .LVU252
 833 0022 70BC     		pop	{r4, r5, r6}
 834              		.cfi_restore 6
 835              		.cfi_restore 5
 836              		.cfi_restore 4
 837              		.cfi_def_cfa_offset 0
 838              	.LBB225:
 839              	.LBB223:
 121:delayline_multitap.h ****     }
 840              		.loc 2 121 9 view .LVU253
 841 0024 0360     		str	r3, [r0]
 842              	.LVL54:
 121:delayline_multitap.h ****     }
 843              		.loc 2 121 9 view .LVU254
 844              	.LBE223:
 845              	.LBE225:
ARM GAS  /var/folders/0d/2ntwfkp1791d52chq7d_xwdm0000gn/T//ccvLIGwf.s 			page 26


 846              		.loc 1 187 1 view .LVU255
 847 0026 7047     		bx	lr
 848              	.L23:
 849              		.align	2
 850              	.L22:
 851 0028 FF5D1A00 		.word	1727999
 852 002c 076B1300 		.word	1272583
 853 0030 005E1A00 		.word	1728000
 854              		.cfi_endproc
 855              	.LFE3970:
 857              		.section	.text._ZN10DelayMulti6GetDivEf,"ax",%progbits
 858              		.align	1
 859              		.p2align 2,,3
 860              		.global	_ZN10DelayMulti6GetDivEf
 861              		.syntax unified
 862              		.thumb
 863              		.thumb_func
 864              		.fpu fpv5-d16
 866              	_ZN10DelayMulti6GetDivEf:
 867              	.LVL55:
 868              	.LFB3971:
 188:DelayMulti.cpp **** 
 189:DelayMulti.cpp **** double DelayMulti::GetDiv(float potValue)
 190:DelayMulti.cpp **** {
 869              		.loc 1 190 1 is_stmt 1 view -0
 870              		.cfi_startproc
 871              		@ args = 0, pretend = 0, frame = 0
 872              		@ frame_needed = 0, uses_anonymous_args = 0
 873              		@ link register save eliminated.
 191:DelayMulti.cpp ****     float retVal{};
 874              		.loc 1 191 5 view .LVU257
 192:DelayMulti.cpp **** 
 193:DelayMulti.cpp ****     if (potValue < 0.0909f)
 875              		.loc 1 193 5 view .LVU258
 876 0000 DFED4D7A 		vldr.32	s15, .L70+24
 877 0004 B4EEE70A 		vcmpe.f32	s0, s15
 878 0008 F1EE10FA 		vmrs	APSR_nzcv, FPSCR
 879 000c 05D5     		bpl	.L58
 194:DelayMulti.cpp ****     {
 195:DelayMulti.cpp ****         retVal = (1.0 / 6.0);
 880              		.loc 1 195 9 view .LVU259
 881              	.LVL56:
 196:DelayMulti.cpp ****         div_ = DIV6;
 882              		.loc 1 196 9 view .LVU260
 883              		.loc 1 196 14 is_stmt 0 view .LVU261
 884 000e 0023     		movs	r3, #0
 885 0010 9FED430B 		vldr.64	d0, .L70
 886              	.LVL57:
 887              		.loc 1 196 14 view .LVU262
 888 0014 80F81931 		strb	r3, [r0, #281]
 889 0018 7047     		bx	lr
 890              	.LVL58:
 891              	.L58:
 197:DelayMulti.cpp ****     }
 198:DelayMulti.cpp **** 
 199:DelayMulti.cpp ****     else if (potValue < 0.1818f)
 892              		.loc 1 199 10 is_stmt 1 view .LVU263
ARM GAS  /var/folders/0d/2ntwfkp1791d52chq7d_xwdm0000gn/T//ccvLIGwf.s 			page 27


 893 001a DFED487A 		vldr.32	s15, .L70+28
 894 001e B4EEE70A 		vcmpe.f32	s0, s15
 895 0022 F1EE10FA 		vmrs	APSR_nzcv, FPSCR
 896 0026 05D5     		bpl	.L59
 200:DelayMulti.cpp ****     {
 201:DelayMulti.cpp ****        retVal = (1.0 / 5.0);
 897              		.loc 1 201 8 view .LVU264
 898              	.LVL59:
 202:DelayMulti.cpp ****        div_ = DIV5;
 899              		.loc 1 202 8 view .LVU265
 900              		.loc 1 202 13 is_stmt 0 view .LVU266
 901 0028 0123     		movs	r3, #1
 902 002a 9FED3F0B 		vldr.64	d0, .L70+8
 903              	.LVL60:
 904              		.loc 1 202 13 view .LVU267
 905 002e 80F81931 		strb	r3, [r0, #281]
 906 0032 7047     		bx	lr
 907              	.LVL61:
 908              	.L59:
 203:DelayMulti.cpp ****     }
 204:DelayMulti.cpp **** 
 205:DelayMulti.cpp ****     else if (potValue < 0.2727f)
 909              		.loc 1 205 10 is_stmt 1 view .LVU268
 910 0034 DFED427A 		vldr.32	s15, .L70+32
 911 0038 B4EEE70A 		vcmpe.f32	s0, s15
 912 003c F1EE10FA 		vmrs	APSR_nzcv, FPSCR
 913 0040 0CD4     		bmi	.L68
 206:DelayMulti.cpp ****     {
 207:DelayMulti.cpp ****         retVal = (1.0 / 4.0);
 208:DelayMulti.cpp ****         div_ = DIV4;
 209:DelayMulti.cpp ****     }
 210:DelayMulti.cpp **** 
 211:DelayMulti.cpp ****     else if (potValue < 0.3636f)
 914              		.loc 1 211 10 view .LVU269
 915 0042 DFED407A 		vldr.32	s15, .L70+36
 916 0046 B4EEE70A 		vcmpe.f32	s0, s15
 917 004a F1EE10FA 		vmrs	APSR_nzcv, FPSCR
 918 004e 0BD5     		bpl	.L61
 212:DelayMulti.cpp ****     {
 213:DelayMulti.cpp ****         retVal = (1.0 / 3.0);
 919              		.loc 1 213 9 view .LVU270
 920              	.LVL62:
 214:DelayMulti.cpp ****         div_ = DIV3;
 921              		.loc 1 214 9 view .LVU271
 922              		.loc 1 214 14 is_stmt 0 view .LVU272
 923 0050 0323     		movs	r3, #3
 924 0052 9FED370B 		vldr.64	d0, .L70+16
 925              	.LVL63:
 926              		.loc 1 214 14 view .LVU273
 927 0056 80F81931 		strb	r3, [r0, #281]
 928 005a 7047     		bx	lr
 929              	.LVL64:
 930              	.L68:
 207:DelayMulti.cpp ****         div_ = DIV4;
 931              		.loc 1 207 9 is_stmt 1 view .LVU274
 208:DelayMulti.cpp ****     }
 932              		.loc 1 208 9 view .LVU275
ARM GAS  /var/folders/0d/2ntwfkp1791d52chq7d_xwdm0000gn/T//ccvLIGwf.s 			page 28


 208:DelayMulti.cpp ****     }
 933              		.loc 1 208 14 is_stmt 0 view .LVU276
 934 005c 0223     		movs	r3, #2
 935 005e B5EE000B 		vmov.f64	d0, #2.5e-1
 936              	.LVL65:
 208:DelayMulti.cpp ****     }
 937              		.loc 1 208 14 view .LVU277
 938 0062 80F81931 		strb	r3, [r0, #281]
 939 0066 7047     		bx	lr
 940              	.LVL66:
 941              	.L61:
 215:DelayMulti.cpp ****     }
 216:DelayMulti.cpp **** 
 217:DelayMulti.cpp ****     else if (potValue < 0.4545f)
 942              		.loc 1 217 10 is_stmt 1 view .LVU278
 943 0068 DFED377A 		vldr.32	s15, .L70+40
 944 006c B4EEE70A 		vcmpe.f32	s0, s15
 945 0070 F1EE10FA 		vmrs	APSR_nzcv, FPSCR
 946 0074 0CD4     		bmi	.L69
 218:DelayMulti.cpp ****     {
 219:DelayMulti.cpp ****         retVal = (1.0 / 2.0);
 220:DelayMulti.cpp ****         div_ = DIV2;
 221:DelayMulti.cpp ****     }
 222:DelayMulti.cpp **** 
 223:DelayMulti.cpp ****     else if (potValue <  0.5455f)
 947              		.loc 1 223 10 view .LVU279
 948 0076 DFED357A 		vldr.32	s15, .L70+44
 949 007a B4EEE70A 		vcmpe.f32	s0, s15
 950 007e F1EE10FA 		vmrs	APSR_nzcv, FPSCR
 951 0082 0BD5     		bpl	.L63
 952              	.L46:
 224:DelayMulti.cpp ****     {
 225:DelayMulti.cpp ****         retVal = 1.0;
 953              		.loc 1 225 9 view .LVU280
 954              	.LVL67:
 226:DelayMulti.cpp ****         div_ = UNITY;
 955              		.loc 1 226 9 view .LVU281
 956              		.loc 1 226 14 is_stmt 0 view .LVU282
 957 0084 0523     		movs	r3, #5
 958 0086 B7EE000B 		vmov.f64	d0, #1.0e+0
 959              	.LVL68:
 960              		.loc 1 226 14 view .LVU283
 961 008a 80F81931 		strb	r3, [r0, #281]
 962 008e 7047     		bx	lr
 963              	.LVL69:
 964              	.L69:
 219:DelayMulti.cpp ****         div_ = DIV2;
 965              		.loc 1 219 9 is_stmt 1 view .LVU284
 220:DelayMulti.cpp ****     }
 966              		.loc 1 220 9 view .LVU285
 220:DelayMulti.cpp ****     }
 967              		.loc 1 220 14 is_stmt 0 view .LVU286
 968 0090 0423     		movs	r3, #4
 969 0092 B6EE000B 		vmov.f64	d0, #5.0e-1
 970              	.LVL70:
 220:DelayMulti.cpp ****     }
 971              		.loc 1 220 14 view .LVU287
ARM GAS  /var/folders/0d/2ntwfkp1791d52chq7d_xwdm0000gn/T//ccvLIGwf.s 			page 29


 972 0096 80F81931 		strb	r3, [r0, #281]
 973 009a 7047     		bx	lr
 974              	.LVL71:
 975              	.L63:
 227:DelayMulti.cpp ****     }
 228:DelayMulti.cpp **** 
 229:DelayMulti.cpp ****     else if (potValue < 0.6364f)
 976              		.loc 1 229 10 is_stmt 1 view .LVU288
 977 009c DFED2C7A 		vldr.32	s15, .L70+48
 978 00a0 B4EEE70A 		vcmpe.f32	s0, s15
 979 00a4 F1EE10FA 		vmrs	APSR_nzcv, FPSCR
 980 00a8 05D5     		bpl	.L64
 230:DelayMulti.cpp ****     {
 231:DelayMulti.cpp ****         retVal = 2.0;
 981              		.loc 1 231 9 view .LVU289
 982              	.LVL72:
 232:DelayMulti.cpp ****         div_ = MULT2;
 983              		.loc 1 232 9 view .LVU290
 984              		.loc 1 232 14 is_stmt 0 view .LVU291
 985 00aa 0623     		movs	r3, #6
 986 00ac B0EE000B 		vmov.f64	d0, #2.0e+0
 987              	.LVL73:
 988              		.loc 1 232 14 view .LVU292
 989 00b0 80F81931 		strb	r3, [r0, #281]
 990 00b4 7047     		bx	lr
 991              	.LVL74:
 992              	.L64:
 233:DelayMulti.cpp ****     }
 234:DelayMulti.cpp **** 
 235:DelayMulti.cpp ****     else if (potValue < 0.7273f)
 993              		.loc 1 235 10 is_stmt 1 view .LVU293
 994 00b6 DFED277A 		vldr.32	s15, .L70+52
 995 00ba B4EEE70A 		vcmpe.f32	s0, s15
 996 00be F1EE10FA 		vmrs	APSR_nzcv, FPSCR
 997 00c2 05D5     		bpl	.L65
 236:DelayMulti.cpp ****     {
 237:DelayMulti.cpp ****         retVal = 3.0;
 998              		.loc 1 237 9 view .LVU294
 999              	.LVL75:
 238:DelayMulti.cpp ****         div_ = MULT3;
 1000              		.loc 1 238 9 view .LVU295
 1001              		.loc 1 238 14 is_stmt 0 view .LVU296
 1002 00c4 0723     		movs	r3, #7
 1003 00c6 B0EE080B 		vmov.f64	d0, #3.0e+0
 1004              	.LVL76:
 1005              		.loc 1 238 14 view .LVU297
 1006 00ca 80F81931 		strb	r3, [r0, #281]
 1007 00ce 7047     		bx	lr
 1008              	.LVL77:
 1009              	.L65:
 239:DelayMulti.cpp ****     }
 240:DelayMulti.cpp **** 
 241:DelayMulti.cpp ****     else if (potValue < 0.8182f)
 1010              		.loc 1 241 10 is_stmt 1 view .LVU298
 1011 00d0 DFED217A 		vldr.32	s15, .L70+56
 1012 00d4 B4EEE70A 		vcmpe.f32	s0, s15
 1013 00d8 F1EE10FA 		vmrs	APSR_nzcv, FPSCR
ARM GAS  /var/folders/0d/2ntwfkp1791d52chq7d_xwdm0000gn/T//ccvLIGwf.s 			page 30


 1014 00dc 05D5     		bpl	.L66
 242:DelayMulti.cpp ****     {
 243:DelayMulti.cpp ****         retVal = 4.0;
 1015              		.loc 1 243 9 view .LVU299
 1016              	.LVL78:
 244:DelayMulti.cpp ****         div_ = MULT4;
 1017              		.loc 1 244 9 view .LVU300
 1018              		.loc 1 244 14 is_stmt 0 view .LVU301
 1019 00de 0823     		movs	r3, #8
 1020 00e0 B1EE000B 		vmov.f64	d0, #4.0e+0
 1021              	.LVL79:
 1022              		.loc 1 244 14 view .LVU302
 1023 00e4 80F81931 		strb	r3, [r0, #281]
 1024 00e8 7047     		bx	lr
 1025              	.LVL80:
 1026              	.L66:
 245:DelayMulti.cpp ****     }
 246:DelayMulti.cpp ****     
 247:DelayMulti.cpp ****     else if (potValue < 0.9091f)
 1027              		.loc 1 247 10 is_stmt 1 view .LVU303
 1028 00ea DFED1C7A 		vldr.32	s15, .L70+60
 1029 00ee B4EEE70A 		vcmpe.f32	s0, s15
 1030 00f2 F1EE10FA 		vmrs	APSR_nzcv, FPSCR
 1031 00f6 05D5     		bpl	.L67
 248:DelayMulti.cpp ****     {
 249:DelayMulti.cpp ****         retVal = 5.0;
 1032              		.loc 1 249 9 view .LVU304
 1033              	.LVL81:
 250:DelayMulti.cpp ****         div_ = MULT5;
 1034              		.loc 1 250 9 view .LVU305
 1035              		.loc 1 250 14 is_stmt 0 view .LVU306
 1036 00f8 0923     		movs	r3, #9
 1037 00fa B1EE040B 		vmov.f64	d0, #5.0e+0
 1038              	.LVL82:
 1039              		.loc 1 250 14 view .LVU307
 1040 00fe 80F81931 		strb	r3, [r0, #281]
 1041 0102 7047     		bx	lr
 1042              	.LVL83:
 1043              	.L67:
 251:DelayMulti.cpp ****     }
 252:DelayMulti.cpp **** 
 253:DelayMulti.cpp ****     else if (potValue <= 1.0f)
 1044              		.loc 1 253 10 is_stmt 1 view .LVU308
 1045 0104 F7EE007A 		vmov.f32	s15, #1.0e+0
 1046 0108 B4EEE70A 		vcmpe.f32	s0, s15
 1047 010c F1EE10FA 		vmrs	APSR_nzcv, FPSCR
 1048 0110 B8D8     		bhi	.L46
 254:DelayMulti.cpp ****     {
 255:DelayMulti.cpp ****        retVal = 6.0; 
 1049              		.loc 1 255 8 view .LVU309
 1050              	.LVL84:
 256:DelayMulti.cpp ****        div_ = MULT6;
 1051              		.loc 1 256 8 view .LVU310
 1052              		.loc 1 256 13 is_stmt 0 view .LVU311
 1053 0112 0A23     		movs	r3, #10
 1054 0114 B1EE080B 		vmov.f64	d0, #6.0e+0
 1055              	.LVL85:
ARM GAS  /var/folders/0d/2ntwfkp1791d52chq7d_xwdm0000gn/T//ccvLIGwf.s 			page 31


 257:DelayMulti.cpp ****     }
 258:DelayMulti.cpp ****     else
 259:DelayMulti.cpp ****     {
 260:DelayMulti.cpp ****         retVal = 1.0; 
 261:DelayMulti.cpp ****        div_ = UNITY;
 262:DelayMulti.cpp ****     }
 263:DelayMulti.cpp **** 
 264:DelayMulti.cpp **** return retVal;
 1056              		.loc 1 264 1 is_stmt 1 view .LVU312
 256:DelayMulti.cpp ****        div_ = MULT6;
 1057              		.loc 1 256 13 is_stmt 0 view .LVU313
 1058 0118 80F81931 		strb	r3, [r0, #281]
 265:DelayMulti.cpp **** }
 1059              		.loc 1 265 1 view .LVU314
 1060 011c 7047     		bx	lr
 1061              	.L71:
 1062 011e 00BF     		.align	3
 1063              	.L70:
 1064 0120 00000060 		.word	1610612736
 1065 0124 5555C53F 		.word	1069897045
 1066 0128 000000A0 		.word	2684354560
 1067 012c 9999C93F 		.word	1070176665
 1068 0130 00000060 		.word	1610612736
 1069 0134 5555D53F 		.word	1070945621
 1070 0138 C729BA3D 		.word	1035610567
 1071 013c C7293A3E 		.word	1043999175
 1072 0140 569F8B3E 		.word	1049337686
 1073 0144 C729BA3E 		.word	1052387783
 1074 0148 39B4E83E 		.word	1055437881
 1075 014c E3A50B3F 		.word	1057727971
 1076 0150 1CEB223F 		.word	1059253020
 1077 0154 55303A3F 		.word	1060778069
 1078 0158 8E75513F 		.word	1062303118
 1079 015c C7BA683F 		.word	1063828167
 1080              		.cfi_endproc
 1081              	.LFE3971:
 1083              		.section	.text._ZN10DelayMulti12SetDelayTimeEfb,"ax",%progbits
 1084              		.align	1
 1085              		.p2align 2,,3
 1086              		.global	_ZN10DelayMulti12SetDelayTimeEfb
 1087              		.syntax unified
 1088              		.thumb
 1089              		.thumb_func
 1090              		.fpu fpv5-d16
 1092              	_ZN10DelayMulti12SetDelayTimeEfb:
 1093              	.LVL86:
 1094              	.LFB3967:
  68:DelayMulti.cpp **** 
 1095              		.loc 1 68 1 is_stmt 1 view -0
 1096              		.cfi_startproc
 1097              		@ args = 0, pretend = 0, frame = 0
 1098              		@ frame_needed = 0, uses_anonymous_args = 0
  70:DelayMulti.cpp **** 
 1099              		.loc 1 70 1 view .LVU316
  72:DelayMulti.cpp **** {
 1100              		.loc 1 72 1 view .LVU317
  68:DelayMulti.cpp **** 
ARM GAS  /var/folders/0d/2ntwfkp1791d52chq7d_xwdm0000gn/T//ccvLIGwf.s 			page 32


 1101              		.loc 1 68 1 is_stmt 0 view .LVU318
 1102 0000 38B5     		push	{r3, r4, r5, lr}
 1103              		.cfi_def_cfa_offset 16
 1104              		.cfi_offset 3, -16
 1105              		.cfi_offset 4, -12
 1106              		.cfi_offset 5, -8
 1107              		.cfi_offset 14, -4
 1108 0002 0446     		mov	r4, r0
 1109 0004 2DED028B 		vpush.64	{d8}
 1110              		.cfi_def_cfa_offset 24
 1111              		.cfi_offset 80, -24
 1112              		.cfi_offset 81, -20
  72:DelayMulti.cpp **** {
 1113              		.loc 1 72 1 view .LVU319
 1114 0008 0029     		cmp	r1, #0
 1115 000a 4DD0     		beq	.L73
  75:DelayMulti.cpp **** }
 1116              		.loc 1 75 5 is_stmt 1 view .LVU320
  75:DelayMulti.cpp **** }
 1117              		.loc 1 75 23 is_stmt 0 view .LVU321
 1118 000c FFF7FEFF 		bl	_ZN10DelayMulti6GetDivEf
 1119              	.LVL87:
  75:DelayMulti.cpp **** }
 1120              		.loc 1 75 39 view .LVU322
 1121 0010 90ED487B 		vldr.64	d7, [r0, #288]
  75:DelayMulti.cpp **** }
 1122              		.loc 1 75 15 view .LVU323
 1123 0014 9FED3E8B 		vldr.64	d8, .L95
  75:DelayMulti.cpp **** }
 1124              		.loc 1 75 39 view .LVU324
 1125 0018 20EE070B 		vmul.f64	d0, d0, d7
  75:DelayMulti.cpp **** }
 1126              		.loc 1 75 15 view .LVU325
 1127 001c 20EE088B 		vmul.f64	d8, d0, d8
 1128              	.LVL88:
 1129              	.L74:
  84:DelayMulti.cpp **** {
 1130              		.loc 1 84 1 is_stmt 1 view .LVU326
 1131              	.LBB226:
  84:DelayMulti.cpp **** {
 1132              		.loc 1 84 22 is_stmt 0 view .LVU327
 1133 0020 94ED4A7B 		vldr.64	d7, [r4, #296]
 1134              	.LVL89:
 1135              	.LBB227:
 1136              	.LBI227:
 1137              		.file 5 "/usr/local/Cellar/arm-none-eabi-gcc/9-2019-q4-major/gcc/arm-none-eabi/include/c++/9.2.1/b
   1:/usr/local/Cellar/arm-none-eabi-gcc/9-2019-q4-major/gcc/arm-none-eabi/include/c++/9.2.1/bits/std_abs.h **** // -*- C++ -*- C library enhancements header.
   2:/usr/local/Cellar/arm-none-eabi-gcc/9-2019-q4-major/gcc/arm-none-eabi/include/c++/9.2.1/bits/std_abs.h **** 
   3:/usr/local/Cellar/arm-none-eabi-gcc/9-2019-q4-major/gcc/arm-none-eabi/include/c++/9.2.1/bits/std_abs.h **** // Copyright (C) 2016-2019 Free Software Foundation, Inc.
   4:/usr/local/Cellar/arm-none-eabi-gcc/9-2019-q4-major/gcc/arm-none-eabi/include/c++/9.2.1/bits/std_abs.h **** //
   5:/usr/local/Cellar/arm-none-eabi-gcc/9-2019-q4-major/gcc/arm-none-eabi/include/c++/9.2.1/bits/std_abs.h **** // This file is part of the GNU ISO C++ Library.  This library is free
   6:/usr/local/Cellar/arm-none-eabi-gcc/9-2019-q4-major/gcc/arm-none-eabi/include/c++/9.2.1/bits/std_abs.h **** // software; you can redistribute it and/or modify it under the
   7:/usr/local/Cellar/arm-none-eabi-gcc/9-2019-q4-major/gcc/arm-none-eabi/include/c++/9.2.1/bits/std_abs.h **** // terms of the GNU General Public License as published by the
   8:/usr/local/Cellar/arm-none-eabi-gcc/9-2019-q4-major/gcc/arm-none-eabi/include/c++/9.2.1/bits/std_abs.h **** // Free Software Foundation; either version 3, or (at your option)
   9:/usr/local/Cellar/arm-none-eabi-gcc/9-2019-q4-major/gcc/arm-none-eabi/include/c++/9.2.1/bits/std_abs.h **** // any later version.
  10:/usr/local/Cellar/arm-none-eabi-gcc/9-2019-q4-major/gcc/arm-none-eabi/include/c++/9.2.1/bits/std_abs.h **** 
  11:/usr/local/Cellar/arm-none-eabi-gcc/9-2019-q4-major/gcc/arm-none-eabi/include/c++/9.2.1/bits/std_abs.h **** // This library is distributed in the hope that it will be useful,
ARM GAS  /var/folders/0d/2ntwfkp1791d52chq7d_xwdm0000gn/T//ccvLIGwf.s 			page 33


  12:/usr/local/Cellar/arm-none-eabi-gcc/9-2019-q4-major/gcc/arm-none-eabi/include/c++/9.2.1/bits/std_abs.h **** // but WITHOUT ANY WARRANTY; without even the implied warranty of
  13:/usr/local/Cellar/arm-none-eabi-gcc/9-2019-q4-major/gcc/arm-none-eabi/include/c++/9.2.1/bits/std_abs.h **** // MERCHANTABILITY or FITNESS FOR A PARTICULAR PURPOSE.  See the
  14:/usr/local/Cellar/arm-none-eabi-gcc/9-2019-q4-major/gcc/arm-none-eabi/include/c++/9.2.1/bits/std_abs.h **** // GNU General Public License for more details.
  15:/usr/local/Cellar/arm-none-eabi-gcc/9-2019-q4-major/gcc/arm-none-eabi/include/c++/9.2.1/bits/std_abs.h **** 
  16:/usr/local/Cellar/arm-none-eabi-gcc/9-2019-q4-major/gcc/arm-none-eabi/include/c++/9.2.1/bits/std_abs.h **** // Under Section 7 of GPL version 3, you are granted additional
  17:/usr/local/Cellar/arm-none-eabi-gcc/9-2019-q4-major/gcc/arm-none-eabi/include/c++/9.2.1/bits/std_abs.h **** // permissions described in the GCC Runtime Library Exception, version
  18:/usr/local/Cellar/arm-none-eabi-gcc/9-2019-q4-major/gcc/arm-none-eabi/include/c++/9.2.1/bits/std_abs.h **** // 3.1, as published by the Free Software Foundation.
  19:/usr/local/Cellar/arm-none-eabi-gcc/9-2019-q4-major/gcc/arm-none-eabi/include/c++/9.2.1/bits/std_abs.h **** 
  20:/usr/local/Cellar/arm-none-eabi-gcc/9-2019-q4-major/gcc/arm-none-eabi/include/c++/9.2.1/bits/std_abs.h **** // You should have received a copy of the GNU General Public License and
  21:/usr/local/Cellar/arm-none-eabi-gcc/9-2019-q4-major/gcc/arm-none-eabi/include/c++/9.2.1/bits/std_abs.h **** // a copy of the GCC Runtime Library Exception along with this program;
  22:/usr/local/Cellar/arm-none-eabi-gcc/9-2019-q4-major/gcc/arm-none-eabi/include/c++/9.2.1/bits/std_abs.h **** // see the files COPYING3 and COPYING.RUNTIME respectively.  If not, see
  23:/usr/local/Cellar/arm-none-eabi-gcc/9-2019-q4-major/gcc/arm-none-eabi/include/c++/9.2.1/bits/std_abs.h **** // <http://www.gnu.org/licenses/>.
  24:/usr/local/Cellar/arm-none-eabi-gcc/9-2019-q4-major/gcc/arm-none-eabi/include/c++/9.2.1/bits/std_abs.h **** 
  25:/usr/local/Cellar/arm-none-eabi-gcc/9-2019-q4-major/gcc/arm-none-eabi/include/c++/9.2.1/bits/std_abs.h **** /** @file include/bits/std_abs.h
  26:/usr/local/Cellar/arm-none-eabi-gcc/9-2019-q4-major/gcc/arm-none-eabi/include/c++/9.2.1/bits/std_abs.h ****  *  This is an internal header file, included by other library headers.
  27:/usr/local/Cellar/arm-none-eabi-gcc/9-2019-q4-major/gcc/arm-none-eabi/include/c++/9.2.1/bits/std_abs.h ****  *  Do not attempt to use it directly. @headername{cmath, cstdlib}
  28:/usr/local/Cellar/arm-none-eabi-gcc/9-2019-q4-major/gcc/arm-none-eabi/include/c++/9.2.1/bits/std_abs.h ****  */
  29:/usr/local/Cellar/arm-none-eabi-gcc/9-2019-q4-major/gcc/arm-none-eabi/include/c++/9.2.1/bits/std_abs.h **** 
  30:/usr/local/Cellar/arm-none-eabi-gcc/9-2019-q4-major/gcc/arm-none-eabi/include/c++/9.2.1/bits/std_abs.h **** #ifndef _GLIBCXX_BITS_STD_ABS_H
  31:/usr/local/Cellar/arm-none-eabi-gcc/9-2019-q4-major/gcc/arm-none-eabi/include/c++/9.2.1/bits/std_abs.h **** #define _GLIBCXX_BITS_STD_ABS_H
  32:/usr/local/Cellar/arm-none-eabi-gcc/9-2019-q4-major/gcc/arm-none-eabi/include/c++/9.2.1/bits/std_abs.h **** 
  33:/usr/local/Cellar/arm-none-eabi-gcc/9-2019-q4-major/gcc/arm-none-eabi/include/c++/9.2.1/bits/std_abs.h **** #pragma GCC system_header
  34:/usr/local/Cellar/arm-none-eabi-gcc/9-2019-q4-major/gcc/arm-none-eabi/include/c++/9.2.1/bits/std_abs.h **** 
  35:/usr/local/Cellar/arm-none-eabi-gcc/9-2019-q4-major/gcc/arm-none-eabi/include/c++/9.2.1/bits/std_abs.h **** #include <bits/c++config.h>
  36:/usr/local/Cellar/arm-none-eabi-gcc/9-2019-q4-major/gcc/arm-none-eabi/include/c++/9.2.1/bits/std_abs.h **** 
  37:/usr/local/Cellar/arm-none-eabi-gcc/9-2019-q4-major/gcc/arm-none-eabi/include/c++/9.2.1/bits/std_abs.h **** #define _GLIBCXX_INCLUDE_NEXT_C_HEADERS
  38:/usr/local/Cellar/arm-none-eabi-gcc/9-2019-q4-major/gcc/arm-none-eabi/include/c++/9.2.1/bits/std_abs.h **** #include_next <stdlib.h>
  39:/usr/local/Cellar/arm-none-eabi-gcc/9-2019-q4-major/gcc/arm-none-eabi/include/c++/9.2.1/bits/std_abs.h **** #ifdef __CORRECT_ISO_CPP_MATH_H_PROTO
  40:/usr/local/Cellar/arm-none-eabi-gcc/9-2019-q4-major/gcc/arm-none-eabi/include/c++/9.2.1/bits/std_abs.h **** # include_next <math.h>
  41:/usr/local/Cellar/arm-none-eabi-gcc/9-2019-q4-major/gcc/arm-none-eabi/include/c++/9.2.1/bits/std_abs.h **** #endif
  42:/usr/local/Cellar/arm-none-eabi-gcc/9-2019-q4-major/gcc/arm-none-eabi/include/c++/9.2.1/bits/std_abs.h **** #undef _GLIBCXX_INCLUDE_NEXT_C_HEADERS
  43:/usr/local/Cellar/arm-none-eabi-gcc/9-2019-q4-major/gcc/arm-none-eabi/include/c++/9.2.1/bits/std_abs.h **** 
  44:/usr/local/Cellar/arm-none-eabi-gcc/9-2019-q4-major/gcc/arm-none-eabi/include/c++/9.2.1/bits/std_abs.h **** #undef abs
  45:/usr/local/Cellar/arm-none-eabi-gcc/9-2019-q4-major/gcc/arm-none-eabi/include/c++/9.2.1/bits/std_abs.h **** 
  46:/usr/local/Cellar/arm-none-eabi-gcc/9-2019-q4-major/gcc/arm-none-eabi/include/c++/9.2.1/bits/std_abs.h **** extern "C++"
  47:/usr/local/Cellar/arm-none-eabi-gcc/9-2019-q4-major/gcc/arm-none-eabi/include/c++/9.2.1/bits/std_abs.h **** {
  48:/usr/local/Cellar/arm-none-eabi-gcc/9-2019-q4-major/gcc/arm-none-eabi/include/c++/9.2.1/bits/std_abs.h **** namespace std _GLIBCXX_VISIBILITY(default)
  49:/usr/local/Cellar/arm-none-eabi-gcc/9-2019-q4-major/gcc/arm-none-eabi/include/c++/9.2.1/bits/std_abs.h **** {
  50:/usr/local/Cellar/arm-none-eabi-gcc/9-2019-q4-major/gcc/arm-none-eabi/include/c++/9.2.1/bits/std_abs.h **** _GLIBCXX_BEGIN_NAMESPACE_VERSION
  51:/usr/local/Cellar/arm-none-eabi-gcc/9-2019-q4-major/gcc/arm-none-eabi/include/c++/9.2.1/bits/std_abs.h **** 
  52:/usr/local/Cellar/arm-none-eabi-gcc/9-2019-q4-major/gcc/arm-none-eabi/include/c++/9.2.1/bits/std_abs.h ****   using ::abs;
  53:/usr/local/Cellar/arm-none-eabi-gcc/9-2019-q4-major/gcc/arm-none-eabi/include/c++/9.2.1/bits/std_abs.h **** 
  54:/usr/local/Cellar/arm-none-eabi-gcc/9-2019-q4-major/gcc/arm-none-eabi/include/c++/9.2.1/bits/std_abs.h **** #ifndef __CORRECT_ISO_CPP_STDLIB_H_PROTO
  55:/usr/local/Cellar/arm-none-eabi-gcc/9-2019-q4-major/gcc/arm-none-eabi/include/c++/9.2.1/bits/std_abs.h ****   inline long
  56:/usr/local/Cellar/arm-none-eabi-gcc/9-2019-q4-major/gcc/arm-none-eabi/include/c++/9.2.1/bits/std_abs.h ****   abs(long __i) { return __builtin_labs(__i); }
  57:/usr/local/Cellar/arm-none-eabi-gcc/9-2019-q4-major/gcc/arm-none-eabi/include/c++/9.2.1/bits/std_abs.h **** #endif
  58:/usr/local/Cellar/arm-none-eabi-gcc/9-2019-q4-major/gcc/arm-none-eabi/include/c++/9.2.1/bits/std_abs.h **** 
  59:/usr/local/Cellar/arm-none-eabi-gcc/9-2019-q4-major/gcc/arm-none-eabi/include/c++/9.2.1/bits/std_abs.h **** #ifdef _GLIBCXX_USE_LONG_LONG
  60:/usr/local/Cellar/arm-none-eabi-gcc/9-2019-q4-major/gcc/arm-none-eabi/include/c++/9.2.1/bits/std_abs.h ****   inline long long
  61:/usr/local/Cellar/arm-none-eabi-gcc/9-2019-q4-major/gcc/arm-none-eabi/include/c++/9.2.1/bits/std_abs.h ****   abs(long long __x) { return __builtin_llabs (__x); }
  62:/usr/local/Cellar/arm-none-eabi-gcc/9-2019-q4-major/gcc/arm-none-eabi/include/c++/9.2.1/bits/std_abs.h **** #endif
  63:/usr/local/Cellar/arm-none-eabi-gcc/9-2019-q4-major/gcc/arm-none-eabi/include/c++/9.2.1/bits/std_abs.h **** 
  64:/usr/local/Cellar/arm-none-eabi-gcc/9-2019-q4-major/gcc/arm-none-eabi/include/c++/9.2.1/bits/std_abs.h **** // _GLIBCXX_RESOLVE_LIB_DEFECTS
  65:/usr/local/Cellar/arm-none-eabi-gcc/9-2019-q4-major/gcc/arm-none-eabi/include/c++/9.2.1/bits/std_abs.h **** // 2192. Validity and return type of std::abs(0u) is unclear
  66:/usr/local/Cellar/arm-none-eabi-gcc/9-2019-q4-major/gcc/arm-none-eabi/include/c++/9.2.1/bits/std_abs.h **** // 2294. <cstdlib> should declare abs(double)
  67:/usr/local/Cellar/arm-none-eabi-gcc/9-2019-q4-major/gcc/arm-none-eabi/include/c++/9.2.1/bits/std_abs.h **** // 2735. std::abs(short), std::abs(signed char) and others should return int
  68:/usr/local/Cellar/arm-none-eabi-gcc/9-2019-q4-major/gcc/arm-none-eabi/include/c++/9.2.1/bits/std_abs.h **** 
ARM GAS  /var/folders/0d/2ntwfkp1791d52chq7d_xwdm0000gn/T//ccvLIGwf.s 			page 34


  69:/usr/local/Cellar/arm-none-eabi-gcc/9-2019-q4-major/gcc/arm-none-eabi/include/c++/9.2.1/bits/std_abs.h **** #ifndef __CORRECT_ISO_CPP_MATH_H_PROTO
  70:/usr/local/Cellar/arm-none-eabi-gcc/9-2019-q4-major/gcc/arm-none-eabi/include/c++/9.2.1/bits/std_abs.h ****   inline _GLIBCXX_CONSTEXPR double
  71:/usr/local/Cellar/arm-none-eabi-gcc/9-2019-q4-major/gcc/arm-none-eabi/include/c++/9.2.1/bits/std_abs.h ****   abs(double __x)
 1138              		.loc 5 71 3 is_stmt 1 view .LVU328
 1139              	.LBB228:
  72:/usr/local/Cellar/arm-none-eabi-gcc/9-2019-q4-major/gcc/arm-none-eabi/include/c++/9.2.1/bits/std_abs.h ****   { return __builtin_fabs(__x); }
 1140              		.loc 5 72 5 view .LVU329
 1141              		.loc 5 72 5 is_stmt 0 view .LVU330
 1142              	.LBE228:
 1143              	.LBE227:
  84:DelayMulti.cpp **** {
 1144              		.loc 1 84 42 view .LVU331
 1145 0024 9FED3C5B 		vldr.64	d5, .L95+8
  84:DelayMulti.cpp **** {
 1146              		.loc 1 84 8 view .LVU332
 1147 0028 38EE476B 		vsub.f64	d6, d8, d7
  84:DelayMulti.cpp **** {
 1148              		.loc 1 84 42 view .LVU333
 1149 002c 27EE057B 		vmul.f64	d7, d7, d5
 1150              	.LBB230:
 1151              	.LBB229:
 1152              		.loc 5 72 30 view .LVU334
 1153 0030 B0EEC66B 		vabs.f64	d6, d6
 1154              	.LBE229:
 1155              	.LBE230:
  84:DelayMulti.cpp **** {
 1156              		.loc 1 84 1 view .LVU335
 1157 0034 B4EEC67B 		vcmpe.f64	d7, d6
 1158 0038 F1EE10FA 		vmrs	APSR_nzcv, FPSCR
 1159 003c 54D4     		bmi	.L91
  84:DelayMulti.cpp **** {
 1160              		.loc 1 84 1 view .LVU336
 1161              	.LBE226:
  95:DelayMulti.cpp ****     {
 1162              		.loc 1 95 5 is_stmt 1 view .LVU337
 1163              	.LBB248:
 1164              	.LBB231:
 1165 003e 94F81831 		ldrb	r3, [r4, #280]	@ zero_extendqisi2
 1166 0042 DBBB     		cbnz	r3, .L92
 1167              	.LBE231:
 1168              	.LBE248:
 120:DelayMulti.cpp ****     {
 1169              		.loc 1 120 5 view .LVU338
 1170              	.LBB249:
 1171              	.LBB239:
 120:DelayMulti.cpp ****     {
 1172              		.loc 1 120 24 is_stmt 0 view .LVU339
 1173 0044 FFF7FEFF 		bl	_ZN5daisy6System6GetNowEv
 1174              	.LVL90:
 120:DelayMulti.cpp ****     {
 1175              		.loc 1 120 27 view .LVU340
 1176 0048 D4F8FC30 		ldr	r3, [r4, #252]
 1177 004c C01A     		subs	r0, r0, r3
 120:DelayMulti.cpp ****     {
 1178              		.loc 1 120 50 view .LVU341
 1179 004e 1928     		cmp	r0, #25
 1180 0050 45D9     		bls	.L81
ARM GAS  /var/folders/0d/2ntwfkp1791d52chq7d_xwdm0000gn/T//ccvLIGwf.s 			page 35


 1181              	.L94:
 120:DelayMulti.cpp ****     {
 1182              		.loc 1 120 53 discriminator 1 view .LVU342
 1183 0052 94F80851 		ldrb	r5, [r4, #264]	@ zero_extendqisi2
 120:DelayMulti.cpp ****     {
 1184              		.loc 1 120 50 discriminator 1 view .LVU343
 1185 0056 1DB3     		cbz	r5, .L77
 1186              	.LVL91:
 1187              	.LBB240:
 1188              	.LBB241:
 123:DelayMulti.cpp ****             {
 1189              		.loc 1 123 32 is_stmt 1 view .LVU344
 125:DelayMulti.cpp ****             }
 1190              		.loc 1 125 17 view .LVU345
 123:DelayMulti.cpp ****             {
 1191              		.loc 1 123 13 view .LVU346
 123:DelayMulti.cpp ****             {
 1192              		.loc 1 123 32 view .LVU347
 125:DelayMulti.cpp ****             }
 1193              		.loc 1 125 17 view .LVU348
 125:DelayMulti.cpp ****             }
 1194              		.loc 1 125 46 is_stmt 0 view .LVU349
 1195 0058 B4F8CC30 		ldrh	r3, [r4, #204]
 1196              	.LBE241:
 129:DelayMulti.cpp **** 
 1197              		.loc 1 129 28 view .LVU350
 1198 005c 94F80021 		ldrb	r2, [r4, #256]	@ zero_extendqisi2
 1199              	.LBB242:
 125:DelayMulti.cpp ****             }
 1200              		.loc 1 125 46 view .LVU351
 1201 0060 83F48073 		eor	r3, r3, #256
 1202              	.LBE242:
 129:DelayMulti.cpp **** 
 1203              		.loc 1 129 28 view .LVU352
 1204 0064 82F00102 		eor	r2, r2, #1
 1205              	.LBB243:
 125:DelayMulti.cpp ****             }
 1206              		.loc 1 125 46 view .LVU353
 1207 0068 83F00103 		eor	r3, r3, #1
 1208              	.LBE243:
 129:DelayMulti.cpp **** 
 1209              		.loc 1 129 26 view .LVU354
 1210 006c 84F80021 		strb	r2, [r4, #256]
 1211              	.LBB244:
 125:DelayMulti.cpp ****             }
 1212              		.loc 1 125 31 view .LVU355
 1213 0070 A4F8CC30 		strh	r3, [r4, #204]	@ movhi
 123:DelayMulti.cpp ****             {
 1214              		.loc 1 123 13 is_stmt 1 view .LVU356
 1215              	.LVL92:
 123:DelayMulti.cpp ****             {
 1216              		.loc 1 123 32 view .LVU357
 1217              	.LBE244:
 129:DelayMulti.cpp **** 
 1218              		.loc 1 129 9 view .LVU358
 131:DelayMulti.cpp ****         waiting_flag_ = false;  //reset wait flag
 1219              		.loc 1 131 9 view .LVU359
ARM GAS  /var/folders/0d/2ntwfkp1791d52chq7d_xwdm0000gn/T//ccvLIGwf.s 			page 36


 131:DelayMulti.cpp ****         waiting_flag_ = false;  //reset wait flag
 1220              		.loc 1 131 32 is_stmt 0 view .LVU360
 1221 0074 FFF7FEFF 		bl	_ZN5daisy6System6GetNowEv
 1222              	.LVL93:
 135:DelayMulti.cpp ****         return true;
 1223              		.loc 1 135 47 view .LVU361
 1224 0078 94ED437A 		vldr.32	s14, [r4, #268]
 135:DelayMulti.cpp ****         return true;
 1225              		.loc 1 135 32 view .LVU362
 1226 007c B7EE005B 		vmov.f64	d5, #1.0e+0
 132:DelayMulti.cpp **** 
 1227              		.loc 1 132 23 view .LVU363
 1228 0080 0023     		movs	r3, #0
 135:DelayMulti.cpp ****         return true;
 1229              		.loc 1 135 47 view .LVU364
 1230 0082 B7EEC77A 		vcvt.f64.f32	d7, s14
 131:DelayMulti.cpp ****         waiting_flag_ = false;  //reset wait flag
 1231              		.loc 1 131 16 view .LVU365
 1232 0086 C4F8FC00 		str	r0, [r4, #252]
 132:DelayMulti.cpp **** 
 1233              		.loc 1 132 9 is_stmt 1 view .LVU366
 132:DelayMulti.cpp **** 
 1234              		.loc 1 132 23 is_stmt 0 view .LVU367
 1235 008a 84F80831 		strb	r3, [r4, #264]
 135:DelayMulti.cpp ****         return true;
 1236              		.loc 1 135 9 is_stmt 1 view .LVU368
 135:DelayMulti.cpp ****         return true;
 1237              		.loc 1 135 26 is_stmt 0 view .LVU369
 1238 008e 201D     		adds	r0, r4, #4
 135:DelayMulti.cpp ****         return true;
 1239              		.loc 1 135 45 view .LVU370
 1240 0090 88EE076B 		vdiv.f64	d6, d8, d7
 135:DelayMulti.cpp ****         return true;
 1241              		.loc 1 135 32 view .LVU371
 1242 0094 85EE060B 		vdiv.f64	d0, d5, d6
 135:DelayMulti.cpp ****         return true;
 1243              		.loc 1 135 26 view .LVU372
 1244 0098 B7EEC00B 		vcvt.f32.f64	s0, d0
 1245 009c FFF7FEFF 		bl	_ZN8TempoLED8setTempoEf
 1246              	.LVL94:
 136:DelayMulti.cpp ****     }
 1247              		.loc 1 136 9 is_stmt 1 view .LVU373
 1248              	.L77:
 136:DelayMulti.cpp ****     }
 1249              		.loc 1 136 9 is_stmt 0 view .LVU374
 1250              	.LBE240:
 1251              	.LBE239:
 1252              	.LBE249:
 144:DelayMulti.cpp **** 
 1253              		.loc 1 144 1 view .LVU375
 1254 00a0 2846     		mov	r0, r5
 1255 00a2 BDEC028B 		vldm	sp!, {d8}
 1256              		.cfi_remember_state
 1257              		.cfi_restore 80
 1258              		.cfi_restore 81
 1259              		.cfi_def_cfa_offset 16
 1260              	.LVL95:
ARM GAS  /var/folders/0d/2ntwfkp1791d52chq7d_xwdm0000gn/T//ccvLIGwf.s 			page 37


 144:DelayMulti.cpp **** 
 1261              		.loc 1 144 1 view .LVU376
 1262 00a6 38BD     		pop	{r3, r4, r5, pc}
 1263              	.LVL96:
 1264              	.L73:
 1265              		.cfi_restore_state
  80:DelayMulti.cpp **** }
 1266              		.loc 1 80 5 is_stmt 1 view .LVU377
  80:DelayMulti.cpp **** }
 1267              		.loc 1 80 22 is_stmt 0 view .LVU378
 1268 00a8 0220     		movs	r0, #2
 1269              	.LVL97:
  80:DelayMulti.cpp **** }
 1270              		.loc 1 80 22 view .LVU379
 1271 00aa 9FED1D1A 		vldr.32	s2, .L95+16
 1272 00ae DFED1D0A 		vldr.32	s1, .L95+20
 1273 00b2 FFF7FEFF 		bl	_Z5scalefff9CurveType
 1274              	.LVL98:
  80:DelayMulti.cpp **** }
 1275              		.loc 1 80 15 view .LVU380
 1276 00b6 B7EEC08A 		vcvt.f64.f32	d8, s0
 1277              	.LVL99:
  80:DelayMulti.cpp **** }
 1278              		.loc 1 80 15 view .LVU381
 1279 00ba B1E7     		b	.L74
 1280              	.L92:
 1281              	.LBB250:
 1282              	.LBB245:
 1283              	.LBB232:
  99:DelayMulti.cpp ****     {
 1284              		.loc 1 99 5 is_stmt 1 view .LVU382
 1285              	.LBB233:
 1286 00bc 94F80031 		ldrb	r3, [r4, #256]	@ zero_extendqisi2
 1287              	.LBB234:
 104:DelayMulti.cpp ****         }
 1288              		.loc 1 104 42 is_stmt 0 view .LVU383
 1289 00c0 F7EEC87B 		vcvt.f32.f64	s15, d8
 1290              	.LBE234:
  99:DelayMulti.cpp ****     {
 1291              		.loc 1 99 5 view .LVU384
 1292 00c4 03BB     		cbnz	r3, .L93
 1293              	.LVL100:
 1294              	.LBB235:
 109:DelayMulti.cpp ****         {
 1295              		.loc 1 109 28 is_stmt 1 discriminator 3 view .LVU385
 112:DelayMulti.cpp ****         }
 1296              		.loc 1 112 13 discriminator 3 view .LVU386
 112:DelayMulti.cpp ****         }
 1297              		.loc 1 112 31 is_stmt 0 discriminator 3 view .LVU387
 1298 00c6 C4ED3A7A 		vstr.32	s15, [r4, #232]
 109:DelayMulti.cpp ****         {
 1299              		.loc 1 109 9 is_stmt 1 discriminator 3 view .LVU388
 1300              	.LVL101:
 109:DelayMulti.cpp ****         {
 1301              		.loc 1 109 28 discriminator 3 view .LVU389
 1302              	.L80:
 109:DelayMulti.cpp ****         {
ARM GAS  /var/folders/0d/2ntwfkp1791d52chq7d_xwdm0000gn/T//ccvLIGwf.s 			page 38


 1303              		.loc 1 109 28 is_stmt 0 discriminator 3 view .LVU390
 1304              	.LBE235:
 1305              	.LBE233:
 116:DelayMulti.cpp **** 
 1306              		.loc 1 116 5 is_stmt 1 view .LVU391
 116:DelayMulti.cpp **** 
 1307              		.loc 1 116 17 is_stmt 0 view .LVU392
 1308 00ca 0023     		movs	r3, #0
 1309 00cc 84F81831 		strb	r3, [r4, #280]
 1310              	.LBE232:
 1311              	.LBE245:
 1312              	.LBE250:
 120:DelayMulti.cpp ****     {
 1313              		.loc 1 120 5 is_stmt 1 view .LVU393
 1314              	.LBB251:
 1315              	.LBB246:
 120:DelayMulti.cpp ****     {
 1316              		.loc 1 120 24 is_stmt 0 view .LVU394
 1317 00d0 FFF7FEFF 		bl	_ZN5daisy6System6GetNowEv
 1318              	.LVL102:
 120:DelayMulti.cpp ****     {
 1319              		.loc 1 120 27 view .LVU395
 1320 00d4 D4F8FC30 		ldr	r3, [r4, #252]
 1321 00d8 C01A     		subs	r0, r0, r3
 120:DelayMulti.cpp ****     {
 1322              		.loc 1 120 50 view .LVU396
 1323 00da 1928     		cmp	r0, #25
 1324 00dc B9D8     		bhi	.L94
 1325              	.L81:
 140:DelayMulti.cpp ****     }  
 1326              		.loc 1 140 16 view .LVU397
 1327 00de 0025     		movs	r5, #0
 1328              	.LBE246:
 1329              	.LBE251:
 144:DelayMulti.cpp **** 
 1330              		.loc 1 144 1 view .LVU398
 1331 00e0 BDEC028B 		vldm	sp!, {d8}
 1332              		.cfi_remember_state
 1333              		.cfi_restore 80
 1334              		.cfi_restore 81
 1335              		.cfi_def_cfa_offset 16
 1336              	.LVL103:
 144:DelayMulti.cpp **** 
 1337              		.loc 1 144 1 view .LVU399
 1338 00e4 2846     		mov	r0, r5
 1339 00e6 38BD     		pop	{r3, r4, r5, pc}
 1340              	.LVL104:
 1341              	.L91:
 1342              		.cfi_restore_state
 1343              	.LBB252:
  86:DelayMulti.cpp ****     waiting_flag_ = true;
 1344              		.loc 1 86 5 is_stmt 1 view .LVU400
  86:DelayMulti.cpp ****     waiting_flag_ = true;
 1345              		.loc 1 86 28 is_stmt 0 view .LVU401
 1346 00e8 FFF7FEFF 		bl	_ZN5daisy6System6GetNowEv
 1347              	.LVL105:
  90:DelayMulti.cpp **** }
ARM GAS  /var/folders/0d/2ntwfkp1791d52chq7d_xwdm0000gn/T//ccvLIGwf.s 			page 39


 1348              		.loc 1 90 12 view .LVU402
 1349 00ec 0025     		movs	r5, #0
  87:DelayMulti.cpp ****     TimeChange_ = true;
 1350              		.loc 1 87 19 view .LVU403
 1351 00ee 0123     		movs	r3, #1
  86:DelayMulti.cpp ****     waiting_flag_ = true;
 1352              		.loc 1 86 12 view .LVU404
 1353 00f0 C4F8FC00 		str	r0, [r4, #252]
  87:DelayMulti.cpp ****     TimeChange_ = true;
 1354              		.loc 1 87 5 is_stmt 1 view .LVU405
 1355              	.LBE252:
 144:DelayMulti.cpp **** 
 1356              		.loc 1 144 1 is_stmt 0 view .LVU406
 1357 00f4 2846     		mov	r0, r5
 1358              	.LBB253:
  87:DelayMulti.cpp ****     TimeChange_ = true;
 1359              		.loc 1 87 19 view .LVU407
 1360 00f6 84F80831 		strb	r3, [r4, #264]
  88:DelayMulti.cpp ****     delayLast_ = delaytime;
 1361              		.loc 1 88 5 is_stmt 1 view .LVU408
  88:DelayMulti.cpp ****     delayLast_ = delaytime;
 1362              		.loc 1 88 17 is_stmt 0 view .LVU409
 1363 00fa 84F81831 		strb	r3, [r4, #280]
  89:DelayMulti.cpp ****     return false;
 1364              		.loc 1 89 5 is_stmt 1 view .LVU410
  89:DelayMulti.cpp ****     return false;
 1365              		.loc 1 89 16 is_stmt 0 view .LVU411
 1366 00fe 84ED4A8B 		vstr.64	d8, [r4, #296]
  90:DelayMulti.cpp **** }
 1367              		.loc 1 90 5 is_stmt 1 view .LVU412
 1368              	.LBE253:
 144:DelayMulti.cpp **** 
 1369              		.loc 1 144 1 is_stmt 0 view .LVU413
 1370 0102 BDEC028B 		vldm	sp!, {d8}
 1371              		.cfi_remember_state
 1372              		.cfi_restore 80
 1373              		.cfi_restore 81
 1374              		.cfi_def_cfa_offset 16
 1375              	.LVL106:
 144:DelayMulti.cpp **** 
 1376              		.loc 1 144 1 view .LVU414
 1377 0106 38BD     		pop	{r3, r4, r5, pc}
 1378              	.LVL107:
 1379              	.L93:
 1380              		.cfi_restore_state
 1381              	.LBB254:
 1382              	.LBB247:
 1383              	.LBB238:
 1384              	.LBB237:
 1385              	.LBB236:
 101:DelayMulti.cpp ****         {
 1386              		.loc 1 101 28 is_stmt 1 view .LVU415
 104:DelayMulti.cpp ****         }
 1387              		.loc 1 104 13 view .LVU416
 104:DelayMulti.cpp ****         }
 1388              		.loc 1 104 42 is_stmt 0 view .LVU417
 1389 0108 C4ED3B7A 		vstr.32	s15, [r4, #236]
ARM GAS  /var/folders/0d/2ntwfkp1791d52chq7d_xwdm0000gn/T//ccvLIGwf.s 			page 40


 101:DelayMulti.cpp ****         {
 1390              		.loc 1 101 9 is_stmt 1 view .LVU418
 1391              	.LVL108:
 101:DelayMulti.cpp ****         {
 1392              		.loc 1 101 28 view .LVU419
 1393 010c DDE7     		b	.L80
 1394              	.L96:
 1395 010e 00BF     		.align	3
 1396              	.L95:
 1397 0110 00000000 		.word	0
 1398 0114 00004840 		.word	1078460416
 1399 0118 7B14AE47 		.word	1202590843
 1400 011c E17A743F 		.word	1064598241
 1401 0120 00606A48 		.word	1214930944
 1402 0124 00007045 		.word	1164967936
 1403              	.LBE236:
 1404              	.LBE237:
 1405              	.LBE238:
 1406              	.LBE247:
 1407              	.LBE254:
 1408              		.cfi_endproc
 1409              	.LFE3967:
 1411              		.text
 1412              	.Letext0:
 1413              		.file 6 "/usr/local/Cellar/arm-none-eabi-gcc/9-2019-q4-major/gcc/arm-none-eabi/include/machine/_de
 1414              		.file 7 "/usr/local/Cellar/arm-none-eabi-gcc/9-2019-q4-major/gcc/arm-none-eabi/include/sys/_stdint
 1415              		.file 8 "/usr/local/Cellar/arm-none-eabi-gcc/9-2019-q4-major/gcc/arm-none-eabi/include/stdint.h"
 1416              		.file 9 "../libdaisy/Drivers/CMSIS/Include/core_cm7.h"
 1417              		.file 10 "../libdaisy/Drivers/CMSIS/Device/ST/STM32H7xx/Include/system_stm32h7xx.h"
 1418              		.file 11 "/usr/local/Cellar/arm-none-eabi-gcc/9-2019-q4-major/gcc/lib/gcc/arm-none-eabi/9.2.1/incl
 1419              		.file 12 "/usr/local/Cellar/arm-none-eabi-gcc/9-2019-q4-major/gcc/arm-none-eabi/include/c++/9.2.1/
 1420              		.file 13 "/usr/local/Cellar/arm-none-eabi-gcc/9-2019-q4-major/gcc/arm-none-eabi/include/c++/9.2.1/
 1421              		.file 14 "/usr/local/Cellar/arm-none-eabi-gcc/9-2019-q4-major/gcc/arm-none-eabi/include/c++/9.2.1/
 1422              		.file 15 "/usr/local/Cellar/arm-none-eabi-gcc/9-2019-q4-major/gcc/arm-none-eabi/include/c++/9.2.1/
 1423              		.file 16 "/usr/local/Cellar/arm-none-eabi-gcc/9-2019-q4-major/gcc/arm-none-eabi/include/c++/9.2.1/
 1424              		.file 17 "/usr/local/Cellar/arm-none-eabi-gcc/9-2019-q4-major/gcc/arm-none-eabi/include/c++/9.2.1/
 1425              		.file 18 "/usr/local/Cellar/arm-none-eabi-gcc/9-2019-q4-major/gcc/arm-none-eabi/include/c++/9.2.1/
 1426              		.file 19 "/usr/local/Cellar/arm-none-eabi-gcc/9-2019-q4-major/gcc/arm-none-eabi/include/c++/9.2.1/
 1427              		.file 20 "/usr/local/Cellar/arm-none-eabi-gcc/9-2019-q4-major/gcc/arm-none-eabi/include/c++/9.2.1/
 1428              		.file 21 "/usr/local/Cellar/arm-none-eabi-gcc/9-2019-q4-major/gcc/arm-none-eabi/include/c++/9.2.1/
 1429              		.file 22 "/usr/local/Cellar/arm-none-eabi-gcc/9-2019-q4-major/gcc/arm-none-eabi/include/c++/9.2.1/
 1430              		.file 23 "/usr/local/Cellar/arm-none-eabi-gcc/9-2019-q4-major/gcc/arm-none-eabi/include/c++/9.2.1/
 1431              		.file 24 "/usr/local/Cellar/arm-none-eabi-gcc/9-2019-q4-major/gcc/arm-none-eabi/include/c++/9.2.1/
 1432              		.file 25 "/usr/local/Cellar/arm-none-eabi-gcc/9-2019-q4-major/gcc/arm-none-eabi/include/c++/9.2.1/
 1433              		.file 26 "/usr/local/Cellar/arm-none-eabi-gcc/9-2019-q4-major/gcc/arm-none-eabi/include/c++/9.2.1/
 1434              		.file 27 "/usr/local/Cellar/arm-none-eabi-gcc/9-2019-q4-major/gcc/arm-none-eabi/include/c++/9.2.1/
 1435              		.file 28 "/usr/local/Cellar/arm-none-eabi-gcc/9-2019-q4-major/gcc/arm-none-eabi/include/c++/9.2.1/
 1436              		.file 29 "/usr/local/Cellar/arm-none-eabi-gcc/9-2019-q4-major/gcc/arm-none-eabi/include/c++/9.2.1/
 1437              		.file 30 "/usr/local/Cellar/arm-none-eabi-gcc/9-2019-q4-major/gcc/arm-none-eabi/include/c++/9.2.1/
 1438              		.file 31 "/usr/local/Cellar/arm-none-eabi-gcc/9-2019-q4-major/gcc/arm-none-eabi/include/c++/9.2.1/
 1439              		.file 32 "/usr/local/Cellar/arm-none-eabi-gcc/9-2019-q4-major/gcc/arm-none-eabi/include/c++/9.2.1/
 1440              		.file 33 "/usr/local/Cellar/arm-none-eabi-gcc/9-2019-q4-major/gcc/arm-none-eabi/include/c++/9.2.1/
 1441              		.file 34 "/usr/local/Cellar/arm-none-eabi-gcc/9-2019-q4-major/gcc/arm-none-eabi/include/sys/lock.h
 1442              		.file 35 "/usr/local/Cellar/arm-none-eabi-gcc/9-2019-q4-major/gcc/arm-none-eabi/include/sys/_types
 1443              		.file 36 "/usr/local/Cellar/arm-none-eabi-gcc/9-2019-q4-major/gcc/arm-none-eabi/include/sys/reent.
 1444              		.file 37 "/usr/local/Cellar/arm-none-eabi-gcc/9-2019-q4-major/gcc/arm-none-eabi/include/math.h"
 1445              		.file 38 "/usr/local/Cellar/arm-none-eabi-gcc/9-2019-q4-major/gcc/arm-none-eabi/include/stdlib.h"
ARM GAS  /var/folders/0d/2ntwfkp1791d52chq7d_xwdm0000gn/T//ccvLIGwf.s 			page 41


 1446              		.file 39 "/usr/local/Cellar/arm-none-eabi-gcc/9-2019-q4-major/gcc/arm-none-eabi/include/c++/9.2.1/
 1447              		.file 40 "../libdaisy/Drivers/STM32H7xx_HAL_Driver/Inc/stm32h7xx_hal_def.h"
 1448              		.file 41 "../libdaisy/Drivers/STM32H7xx_HAL_Driver/Inc/stm32h7xx_hal_flash.h"
 1449              		.file 42 "../DaisySP/Source/Control/adenv.h"
 1450              		.file 43 "../DaisySP/Source/Utility/dsp.h"
 1451              		.file 44 "oscillator_p.h"
 1452              		.file 45 "/usr/local/Cellar/arm-none-eabi-gcc/9-2019-q4-major/gcc/lib/gcc/arm-none-eabi/9.2.1/incl
 1453              		.file 46 "<built-in>"
 1454              		.file 47 "/usr/local/Cellar/arm-none-eabi-gcc/9-2019-q4-major/gcc/arm-none-eabi/include/wchar.h"
 1455              		.file 48 "/usr/local/Cellar/arm-none-eabi-gcc/9-2019-q4-major/gcc/arm-none-eabi/include/locale.h"
 1456              		.file 49 "/usr/local/Cellar/arm-none-eabi-gcc/9-2019-q4-major/gcc/arm-none-eabi/include/ctype.h"
 1457              		.file 50 "/usr/local/Cellar/arm-none-eabi-gcc/9-2019-q4-major/gcc/arm-none-eabi/include/stdio.h"
 1458              		.file 51 "/usr/local/Cellar/arm-none-eabi-gcc/9-2019-q4-major/gcc/arm-none-eabi/include/sys/errno.
 1459              		.file 52 "/usr/local/Cellar/arm-none-eabi-gcc/9-2019-q4-major/gcc/arm-none-eabi/include/c++/9.2.1/
 1460              		.file 53 "/usr/local/Cellar/arm-none-eabi-gcc/9-2019-q4-major/gcc/arm-none-eabi/include/string.h"
 1461              		.file 54 "../libdaisy/src/daisy_core.h"
 1462              		.file 55 "../libdaisy/src/per/tim.h"
 1463              		.file 56 "../libdaisy/src/sys/system.h"
 1464              		.file 57 "../libdaisy/src/util/wav_format.h"
 1465              		.file 58 "../libdaisy/src/hid/led.h"
 1466              		.file 59 "../libdaisy/src/per/gpio.h"
 1467              		.file 60 "/usr/local/Cellar/arm-none-eabi-gcc/9-2019-q4-major/gcc/arm-none-eabi/include/sys/unistd
 1468              		.file 61 "../libdaisy/src/util/oled_fonts.h"
 1469              		.file 62 "../libdaisy/Middlewares/Third_Party/FatFs/src/integer.h"
 1470              		.file 63 "../libdaisy/Middlewares/Third_Party/FatFs/src/ff.h"
 1471              		.file 64 "../libdaisy/Middlewares/Third_Party/FatFs/src/diskio.h"
 1472              		.file 65 "../libdaisy/Middlewares/Third_Party/FatFs/src/ff_gen_drv.h"
 1473              		.file 66 "../libdaisy/src/util/sd_diskio.h"
 1474              		.file 67 "../libdaisy/src/sys/fatfs.h"
 1475              		.file 68 "constants.h"
 1476              		.file 69 "LEDs.h"
 1477              		.file 70 "scale.h"
 1478              		.file 71 "DelayMulti.h"
 1479              		.file 72 "../libdaisy/src/dev/sr_595.h"
ARM GAS  /var/folders/0d/2ntwfkp1791d52chq7d_xwdm0000gn/T//ccvLIGwf.s 			page 42


DEFINED SYMBOLS
                            *ABS*:0000000000000000 DelayMulti.cpp
/var/folders/0d/2ntwfkp1791d52chq7d_xwdm0000gn/T//ccvLIGwf.s:17     .text._ZN10DelayMulti4initE12dsy_gpio_pinf:0000000000000000 $t
/var/folders/0d/2ntwfkp1791d52chq7d_xwdm0000gn/T//ccvLIGwf.s:26     .text._ZN10DelayMulti4initE12dsy_gpio_pinf:0000000000000000 _ZN10DelayMulti4initE12dsy_gpio_pinf
/var/folders/0d/2ntwfkp1791d52chq7d_xwdm0000gn/T//ccvLIGwf.s:433    .text._ZN10DelayMulti4initE12dsy_gpio_pinf:00000000000000f4 $d
/var/folders/0d/2ntwfkp1791d52chq7d_xwdm0000gn/T//ccvLIGwf.s:441    .text._ZN10DelayMulti9GetOutputEv:0000000000000000 $t
/var/folders/0d/2ntwfkp1791d52chq7d_xwdm0000gn/T//ccvLIGwf.s:449    .text._ZN10DelayMulti9GetOutputEv:0000000000000000 _ZN10DelayMulti9GetOutputEv
/var/folders/0d/2ntwfkp1791d52chq7d_xwdm0000gn/T//ccvLIGwf.s:717    .text._ZN10DelayMulti9GetOutputEv:0000000000000100 $d
/var/folders/0d/2ntwfkp1791d52chq7d_xwdm0000gn/T//ccvLIGwf.s:729    .text._ZN10DelayMulti14updateTempoLEDEb:0000000000000000 $t
/var/folders/0d/2ntwfkp1791d52chq7d_xwdm0000gn/T//ccvLIGwf.s:737    .text._ZN10DelayMulti14updateTempoLEDEb:0000000000000000 _ZN10DelayMulti14updateTempoLEDEb
/var/folders/0d/2ntwfkp1791d52chq7d_xwdm0000gn/T//ccvLIGwf.s:774    .text._ZN10DelayMulti5WriteERKf:0000000000000000 $t
/var/folders/0d/2ntwfkp1791d52chq7d_xwdm0000gn/T//ccvLIGwf.s:782    .text._ZN10DelayMulti5WriteERKf:0000000000000000 _ZN10DelayMulti5WriteERKf
/var/folders/0d/2ntwfkp1791d52chq7d_xwdm0000gn/T//ccvLIGwf.s:851    .text._ZN10DelayMulti5WriteERKf:0000000000000028 $d
/var/folders/0d/2ntwfkp1791d52chq7d_xwdm0000gn/T//ccvLIGwf.s:858    .text._ZN10DelayMulti6GetDivEf:0000000000000000 $t
/var/folders/0d/2ntwfkp1791d52chq7d_xwdm0000gn/T//ccvLIGwf.s:866    .text._ZN10DelayMulti6GetDivEf:0000000000000000 _ZN10DelayMulti6GetDivEf
/var/folders/0d/2ntwfkp1791d52chq7d_xwdm0000gn/T//ccvLIGwf.s:1064   .text._ZN10DelayMulti6GetDivEf:0000000000000120 $d
/var/folders/0d/2ntwfkp1791d52chq7d_xwdm0000gn/T//ccvLIGwf.s:1084   .text._ZN10DelayMulti12SetDelayTimeEfb:0000000000000000 $t
/var/folders/0d/2ntwfkp1791d52chq7d_xwdm0000gn/T//ccvLIGwf.s:1092   .text._ZN10DelayMulti12SetDelayTimeEfb:0000000000000000 _ZN10DelayMulti12SetDelayTimeEfb
/var/folders/0d/2ntwfkp1791d52chq7d_xwdm0000gn/T//ccvLIGwf.s:1397   .text._ZN10DelayMulti12SetDelayTimeEfb:0000000000000110 $d

UNDEFINED SYMBOLS
_ZN8TempoLED4initE12dsy_gpio_pinf
_ZN5daisy6System6GetNowEv
_ZN7daisysp4Adsr4InitEf
_ZN7daisysp4Adsr7ProcessEb
_ZN7daisysp9CrossFade7ProcessERfS1_
_ZN8TempoLED6updateE9TempoDivsf
_ZN8TempoLED6updateEv
_ZN8TempoLED8setTempoEf
_Z5scalefff9CurveType
