ARM GAS  /var/folders/0d/2ntwfkp1791d52chq7d_xwdm0000gn/T//ccOVjVrq.s 			page 1


   1              		.cpu cortex-m7
   2              		.eabi_attribute 28, 1
   3              		.eabi_attribute 20, 1
   4              		.eabi_attribute 21, 1
   5              		.eabi_attribute 23, 3
   6              		.eabi_attribute 24, 1
   7              		.eabi_attribute 25, 1
   8              		.eabi_attribute 26, 1
   9              		.eabi_attribute 30, 2
  10              		.eabi_attribute 34, 1
  11              		.eabi_attribute 18, 4
  12              		.file	"ff.c"
  13              		.text
  14              	.Ltext0:
  15              		.cfi_sections	.debug_frame
  16              		.section	.text.chk_lock,"ax",%progbits
  17              		.align	1
  18              		.p2align 2,,3
  19              		.arch armv7e-m
  20              		.syntax unified
  21              		.thumb
  22              		.thumb_func
  23              		.fpu fpv5-d16
  25              	chk_lock:
  26              	.LVL0:
  27              	.LFB328:
  28              		.file 1 "../libdaisy/Middlewares/Third_Party/FatFs/src/ff.c"
   1:../libdaisy/Middlewares/Third_Party/FatFs/src/ff.c **** /*----------------------------------------------------------------------------/
   2:../libdaisy/Middlewares/Third_Party/FatFs/src/ff.c **** /  FatFs - Generic FAT file system module  R0.12c                             /
   3:../libdaisy/Middlewares/Third_Party/FatFs/src/ff.c **** /-----------------------------------------------------------------------------/
   4:../libdaisy/Middlewares/Third_Party/FatFs/src/ff.c **** /
   5:../libdaisy/Middlewares/Third_Party/FatFs/src/ff.c **** / Copyright (C) 2017, ChaN, all right reserved.
   6:../libdaisy/Middlewares/Third_Party/FatFs/src/ff.c **** /
   7:../libdaisy/Middlewares/Third_Party/FatFs/src/ff.c **** / FatFs module is an open source software. Redistribution and use of FatFs in
   8:../libdaisy/Middlewares/Third_Party/FatFs/src/ff.c **** / source and binary forms, with or without modification, are permitted provided
   9:../libdaisy/Middlewares/Third_Party/FatFs/src/ff.c **** / that the following condition is met:
  10:../libdaisy/Middlewares/Third_Party/FatFs/src/ff.c **** /
  11:../libdaisy/Middlewares/Third_Party/FatFs/src/ff.c **** / 1. Redistributions of source code must retain the above copyright notice,
  12:../libdaisy/Middlewares/Third_Party/FatFs/src/ff.c **** /    this condition and the following disclaimer.
  13:../libdaisy/Middlewares/Third_Party/FatFs/src/ff.c **** /
  14:../libdaisy/Middlewares/Third_Party/FatFs/src/ff.c **** / This software is provided by the copyright holder and contributors "AS IS"
  15:../libdaisy/Middlewares/Third_Party/FatFs/src/ff.c **** / and any warranties related to this software are DISCLAIMED.
  16:../libdaisy/Middlewares/Third_Party/FatFs/src/ff.c **** / The copyright owner or contributors be NOT LIABLE for any damages caused
  17:../libdaisy/Middlewares/Third_Party/FatFs/src/ff.c **** / by use of this software.
  18:../libdaisy/Middlewares/Third_Party/FatFs/src/ff.c **** /----------------------------------------------------------------------------*/
  19:../libdaisy/Middlewares/Third_Party/FatFs/src/ff.c **** 
  20:../libdaisy/Middlewares/Third_Party/FatFs/src/ff.c **** 
  21:../libdaisy/Middlewares/Third_Party/FatFs/src/ff.c **** #include "ff.h"			/* Declarations of FatFs API */
  22:../libdaisy/Middlewares/Third_Party/FatFs/src/ff.c **** #include "diskio.h"		/* Declarations of device I/O functions */
  23:../libdaisy/Middlewares/Third_Party/FatFs/src/ff.c **** 
  24:../libdaisy/Middlewares/Third_Party/FatFs/src/ff.c **** 
  25:../libdaisy/Middlewares/Third_Party/FatFs/src/ff.c **** /*--------------------------------------------------------------------------
  26:../libdaisy/Middlewares/Third_Party/FatFs/src/ff.c **** 
  27:../libdaisy/Middlewares/Third_Party/FatFs/src/ff.c ****    Module Private Definitions
  28:../libdaisy/Middlewares/Third_Party/FatFs/src/ff.c **** 
  29:../libdaisy/Middlewares/Third_Party/FatFs/src/ff.c **** ---------------------------------------------------------------------------*/
  30:../libdaisy/Middlewares/Third_Party/FatFs/src/ff.c **** 
ARM GAS  /var/folders/0d/2ntwfkp1791d52chq7d_xwdm0000gn/T//ccOVjVrq.s 			page 2


  31:../libdaisy/Middlewares/Third_Party/FatFs/src/ff.c **** #if _FATFS != 68300	/* Revision ID */
  32:../libdaisy/Middlewares/Third_Party/FatFs/src/ff.c **** #error Wrong include file (ff.h).
  33:../libdaisy/Middlewares/Third_Party/FatFs/src/ff.c **** #endif
  34:../libdaisy/Middlewares/Third_Party/FatFs/src/ff.c **** 
  35:../libdaisy/Middlewares/Third_Party/FatFs/src/ff.c **** 
  36:../libdaisy/Middlewares/Third_Party/FatFs/src/ff.c **** /* DBCS code ranges and SBCS upper conversion tables */
  37:../libdaisy/Middlewares/Third_Party/FatFs/src/ff.c **** 
  38:../libdaisy/Middlewares/Third_Party/FatFs/src/ff.c **** #if _CODE_PAGE == 932	/* Japanese Shift-JIS */
  39:../libdaisy/Middlewares/Third_Party/FatFs/src/ff.c **** #define _DF1S	0x81	/* DBC 1st byte range 1 start */
  40:../libdaisy/Middlewares/Third_Party/FatFs/src/ff.c **** #define _DF1E	0x9F	/* DBC 1st byte range 1 end */
  41:../libdaisy/Middlewares/Third_Party/FatFs/src/ff.c **** #define _DF2S	0xE0	/* DBC 1st byte range 2 start */
  42:../libdaisy/Middlewares/Third_Party/FatFs/src/ff.c **** #define _DF2E	0xFC	/* DBC 1st byte range 2 end */
  43:../libdaisy/Middlewares/Third_Party/FatFs/src/ff.c **** #define _DS1S	0x40	/* DBC 2nd byte range 1 start */
  44:../libdaisy/Middlewares/Third_Party/FatFs/src/ff.c **** #define _DS1E	0x7E	/* DBC 2nd byte range 1 end */
  45:../libdaisy/Middlewares/Third_Party/FatFs/src/ff.c **** #define _DS2S	0x80	/* DBC 2nd byte range 2 start */
  46:../libdaisy/Middlewares/Third_Party/FatFs/src/ff.c **** #define _DS2E	0xFC	/* DBC 2nd byte range 2 end */
  47:../libdaisy/Middlewares/Third_Party/FatFs/src/ff.c **** 
  48:../libdaisy/Middlewares/Third_Party/FatFs/src/ff.c **** #elif _CODE_PAGE == 936	/* Simplified Chinese GBK */
  49:../libdaisy/Middlewares/Third_Party/FatFs/src/ff.c **** #define _DF1S	0x81
  50:../libdaisy/Middlewares/Third_Party/FatFs/src/ff.c **** #define _DF1E	0xFE
  51:../libdaisy/Middlewares/Third_Party/FatFs/src/ff.c **** #define _DS1S	0x40
  52:../libdaisy/Middlewares/Third_Party/FatFs/src/ff.c **** #define _DS1E	0x7E
  53:../libdaisy/Middlewares/Third_Party/FatFs/src/ff.c **** #define _DS2S	0x80
  54:../libdaisy/Middlewares/Third_Party/FatFs/src/ff.c **** #define _DS2E	0xFE
  55:../libdaisy/Middlewares/Third_Party/FatFs/src/ff.c **** 
  56:../libdaisy/Middlewares/Third_Party/FatFs/src/ff.c **** #elif _CODE_PAGE == 949	/* Korean */
  57:../libdaisy/Middlewares/Third_Party/FatFs/src/ff.c **** #define _DF1S	0x81
  58:../libdaisy/Middlewares/Third_Party/FatFs/src/ff.c **** #define _DF1E	0xFE
  59:../libdaisy/Middlewares/Third_Party/FatFs/src/ff.c **** #define _DS1S	0x41
  60:../libdaisy/Middlewares/Third_Party/FatFs/src/ff.c **** #define _DS1E	0x5A
  61:../libdaisy/Middlewares/Third_Party/FatFs/src/ff.c **** #define _DS2S	0x61
  62:../libdaisy/Middlewares/Third_Party/FatFs/src/ff.c **** #define _DS2E	0x7A
  63:../libdaisy/Middlewares/Third_Party/FatFs/src/ff.c **** #define _DS3S	0x81
  64:../libdaisy/Middlewares/Third_Party/FatFs/src/ff.c **** #define _DS3E	0xFE
  65:../libdaisy/Middlewares/Third_Party/FatFs/src/ff.c **** 
  66:../libdaisy/Middlewares/Third_Party/FatFs/src/ff.c **** #elif _CODE_PAGE == 950	/* Traditional Chinese Big5 */
  67:../libdaisy/Middlewares/Third_Party/FatFs/src/ff.c **** #define _DF1S	0x81
  68:../libdaisy/Middlewares/Third_Party/FatFs/src/ff.c **** #define _DF1E	0xFE
  69:../libdaisy/Middlewares/Third_Party/FatFs/src/ff.c **** #define _DS1S	0x40
  70:../libdaisy/Middlewares/Third_Party/FatFs/src/ff.c **** #define _DS1E	0x7E
  71:../libdaisy/Middlewares/Third_Party/FatFs/src/ff.c **** #define _DS2S	0xA1
  72:../libdaisy/Middlewares/Third_Party/FatFs/src/ff.c **** #define _DS2E	0xFE
  73:../libdaisy/Middlewares/Third_Party/FatFs/src/ff.c **** 
  74:../libdaisy/Middlewares/Third_Party/FatFs/src/ff.c **** #elif _CODE_PAGE == 437	/* U.S. */
  75:../libdaisy/Middlewares/Third_Party/FatFs/src/ff.c **** #define _DF1S	0
  76:../libdaisy/Middlewares/Third_Party/FatFs/src/ff.c **** #define _EXCVT {0x80,0x9A,0x45,0x41,0x8E,0x41,0x8F,0x80,0x45,0x45,0x45,0x49,0x49,0x49,0x8E,0x8F, \
  77:../libdaisy/Middlewares/Third_Party/FatFs/src/ff.c **** 				0x90,0x92,0x92,0x4F,0x99,0x4F,0x55,0x55,0x59,0x99,0x9A,0x9B,0x9C,0x9D,0x9E,0x9F, \
  78:../libdaisy/Middlewares/Third_Party/FatFs/src/ff.c **** 				0x41,0x49,0x4F,0x55,0xA5,0xA5,0xA6,0xA7,0xA8,0xA9,0xAA,0xAB,0xAC,0xAD,0xAE,0xAF, \
  79:../libdaisy/Middlewares/Third_Party/FatFs/src/ff.c **** 				0xB0,0xB1,0xB2,0xB3,0xB4,0xB5,0xB6,0xB7,0xB8,0xB9,0xBA,0xBB,0xBC,0xBD,0xBE,0xBF, \
  80:../libdaisy/Middlewares/Third_Party/FatFs/src/ff.c **** 				0xC0,0xC1,0xC2,0xC3,0xC4,0xC5,0xC6,0xC7,0xC8,0xC9,0xCA,0xCB,0xCC,0xCD,0xCE,0xCF, \
  81:../libdaisy/Middlewares/Third_Party/FatFs/src/ff.c **** 				0xD0,0xD1,0xD2,0xD3,0xD4,0xD5,0xD6,0xD7,0xD8,0xD9,0xDA,0xDB,0xDC,0xDD,0xDE,0xDF, \
  82:../libdaisy/Middlewares/Third_Party/FatFs/src/ff.c **** 				0xE0,0xE1,0xE2,0xE3,0xE4,0xE5,0xE6,0xE7,0xE8,0xE9,0xEA,0xEB,0xEC,0xED,0xEE,0xEF, \
  83:../libdaisy/Middlewares/Third_Party/FatFs/src/ff.c **** 				0xF0,0xF1,0xF2,0xF3,0xF4,0xF5,0xF6,0xF7,0xF8,0xF9,0xFA,0xFB,0xFC,0xFD,0xFE,0xFF}
  84:../libdaisy/Middlewares/Third_Party/FatFs/src/ff.c **** 
  85:../libdaisy/Middlewares/Third_Party/FatFs/src/ff.c **** #elif _CODE_PAGE == 720	/* Arabic */
  86:../libdaisy/Middlewares/Third_Party/FatFs/src/ff.c **** #define _DF1S	0
  87:../libdaisy/Middlewares/Third_Party/FatFs/src/ff.c **** #define _EXCVT {0x80,0x81,0x82,0x83,0x84,0x85,0x86,0x87,0x88,0x89,0x8A,0x8B,0x8C,0x8D,0x8E,0x8F, \
ARM GAS  /var/folders/0d/2ntwfkp1791d52chq7d_xwdm0000gn/T//ccOVjVrq.s 			page 3


  88:../libdaisy/Middlewares/Third_Party/FatFs/src/ff.c **** 				0x90,0x91,0x92,0x93,0x94,0x95,0x96,0x97,0x98,0x99,0x9A,0x9B,0x9C,0x9D,0x9E,0x9F, \
  89:../libdaisy/Middlewares/Third_Party/FatFs/src/ff.c **** 				0xA0,0xA1,0xA2,0xA3,0xA4,0xA5,0xA6,0xA7,0xA8,0xA9,0xAA,0xAB,0xAC,0xAD,0xAE,0xAF, \
  90:../libdaisy/Middlewares/Third_Party/FatFs/src/ff.c **** 				0xB0,0xB1,0xB2,0xB3,0xB4,0xB5,0xB6,0xB7,0xB8,0xB9,0xBA,0xBB,0xBC,0xBD,0xBE,0xBF, \
  91:../libdaisy/Middlewares/Third_Party/FatFs/src/ff.c **** 				0xC0,0xC1,0xC2,0xC3,0xC4,0xC5,0xC6,0xC7,0xC8,0xC9,0xCA,0xCB,0xCC,0xCD,0xCE,0xCF, \
  92:../libdaisy/Middlewares/Third_Party/FatFs/src/ff.c **** 				0xD0,0xD1,0xD2,0xD3,0xD4,0xD5,0xD6,0xD7,0xD8,0xD9,0xDA,0xDB,0xDC,0xDD,0xDE,0xDF, \
  93:../libdaisy/Middlewares/Third_Party/FatFs/src/ff.c **** 				0xE0,0xE1,0xE2,0xE3,0xE4,0xE5,0xE6,0xE7,0xE8,0xE9,0xEA,0xEB,0xEC,0xED,0xEE,0xEF, \
  94:../libdaisy/Middlewares/Third_Party/FatFs/src/ff.c **** 				0xF0,0xF1,0xF2,0xF3,0xF4,0xF5,0xF6,0xF7,0xF8,0xF9,0xFA,0xFB,0xFC,0xFD,0xFE,0xFF}
  95:../libdaisy/Middlewares/Third_Party/FatFs/src/ff.c **** 
  96:../libdaisy/Middlewares/Third_Party/FatFs/src/ff.c **** #elif _CODE_PAGE == 737	/* Greek */
  97:../libdaisy/Middlewares/Third_Party/FatFs/src/ff.c **** #define _DF1S	0
  98:../libdaisy/Middlewares/Third_Party/FatFs/src/ff.c **** #define _EXCVT {0x80,0x81,0x82,0x83,0x84,0x85,0x86,0x87,0x88,0x89,0x8A,0x8B,0x8C,0x8D,0x8E,0x8F, \
  99:../libdaisy/Middlewares/Third_Party/FatFs/src/ff.c **** 				0x90,0x92,0x92,0x93,0x94,0x95,0x96,0x97,0x80,0x81,0x82,0x83,0x84,0x85,0x86,0x87, \
 100:../libdaisy/Middlewares/Third_Party/FatFs/src/ff.c **** 				0x88,0x89,0x8A,0x8B,0x8C,0x8D,0x8E,0x8F,0x90,0x91,0xAA,0x92,0x93,0x94,0x95,0x96, \
 101:../libdaisy/Middlewares/Third_Party/FatFs/src/ff.c **** 				0xB0,0xB1,0xB2,0xB3,0xB4,0xB5,0xB6,0xB7,0xB8,0xB9,0xBA,0xBB,0xBC,0xBD,0xBE,0xBF, \
 102:../libdaisy/Middlewares/Third_Party/FatFs/src/ff.c **** 				0xC0,0xC1,0xC2,0xC3,0xC4,0xC5,0xC6,0xC7,0xC8,0xC9,0xCA,0xCB,0xCC,0xCD,0xCE,0xCF, \
 103:../libdaisy/Middlewares/Third_Party/FatFs/src/ff.c **** 				0xD0,0xD1,0xD2,0xD3,0xD4,0xD5,0xD6,0xD7,0xD8,0xD9,0xDA,0xDB,0xDC,0xDD,0xDE,0xDF, \
 104:../libdaisy/Middlewares/Third_Party/FatFs/src/ff.c **** 				0x97,0xEA,0xEB,0xEC,0xE4,0xED,0xEE,0xEF,0xF5,0xF0,0xEA,0xEB,0xEC,0xED,0xEE,0xEF, \
 105:../libdaisy/Middlewares/Third_Party/FatFs/src/ff.c **** 				0xF0,0xF1,0xF2,0xF3,0xF4,0xF5,0xF6,0xF7,0xF8,0xF9,0xFA,0xFB,0xFC,0xFD,0xFE,0xFF}
 106:../libdaisy/Middlewares/Third_Party/FatFs/src/ff.c **** 
 107:../libdaisy/Middlewares/Third_Party/FatFs/src/ff.c **** #elif _CODE_PAGE == 771	/* KBL */
 108:../libdaisy/Middlewares/Third_Party/FatFs/src/ff.c **** #define _DF1S	0
 109:../libdaisy/Middlewares/Third_Party/FatFs/src/ff.c **** #define _EXCVT {0x80,0x81,0x82,0x83,0x84,0x85,0x86,0x87,0x88,0x89,0x8A,0x8B,0x8C,0x8D,0x8E,0x8F, \
 110:../libdaisy/Middlewares/Third_Party/FatFs/src/ff.c **** 				0x90,0x91,0x92,0x93,0x94,0x95,0x96,0x97,0x98,0x99,0x9A,0x9B,0x9C,0x9D,0x9E,0x9F, \
 111:../libdaisy/Middlewares/Third_Party/FatFs/src/ff.c **** 				0x80,0x81,0x82,0x83,0x84,0x85,0x86,0x87,0x88,0x89,0x8A,0x8B,0x8C,0x8D,0x8E,0x8F, \
 112:../libdaisy/Middlewares/Third_Party/FatFs/src/ff.c **** 				0xB0,0xB1,0xB2,0xB3,0xB4,0xB5,0xB6,0xB7,0xB8,0xB9,0xBA,0xBB,0xBC,0xBD,0xBE,0xBF, \
 113:../libdaisy/Middlewares/Third_Party/FatFs/src/ff.c **** 				0xC0,0xC1,0xC2,0xC3,0xC4,0xC5,0xC6,0xC7,0xC8,0xC9,0xCA,0xCB,0xCC,0xCD,0xCE,0xCF, \
 114:../libdaisy/Middlewares/Third_Party/FatFs/src/ff.c **** 				0xD0,0xD1,0xD2,0xD3,0xD4,0xD5,0xD6,0xD7,0xD8,0xD9,0xDA,0xDB,0xDC,0xDC,0xDE,0xDE, \
 115:../libdaisy/Middlewares/Third_Party/FatFs/src/ff.c **** 				0x90,0x91,0x92,0x93,0x94,0x95,0x96,0x97,0x98,0x99,0x9A,0x9B,0x9C,0x9D,0x9E,0x9F, \
 116:../libdaisy/Middlewares/Third_Party/FatFs/src/ff.c **** 				0xF0,0xF0,0xF2,0xF2,0xF4,0xF4,0xF6,0xF6,0xF8,0xF8,0xFA,0xFA,0xFC,0xFC,0xFE,0xFF}
 117:../libdaisy/Middlewares/Third_Party/FatFs/src/ff.c **** 
 118:../libdaisy/Middlewares/Third_Party/FatFs/src/ff.c **** #elif _CODE_PAGE == 775	/* Baltic */
 119:../libdaisy/Middlewares/Third_Party/FatFs/src/ff.c **** #define _DF1S	0
 120:../libdaisy/Middlewares/Third_Party/FatFs/src/ff.c **** #define _EXCVT {0x80,0x9A,0x91,0xA0,0x8E,0x95,0x8F,0x80,0xAD,0xED,0x8A,0x8A,0xA1,0x8D,0x8E,0x8F, \
 121:../libdaisy/Middlewares/Third_Party/FatFs/src/ff.c **** 				0x90,0x92,0x92,0xE2,0x99,0x95,0x96,0x97,0x97,0x99,0x9A,0x9D,0x9C,0x9D,0x9E,0x9F, \
 122:../libdaisy/Middlewares/Third_Party/FatFs/src/ff.c **** 				0xA0,0xA1,0xE0,0xA3,0xA3,0xA5,0xA6,0xA7,0xA8,0xA9,0xAA,0xAB,0xAC,0xAD,0xAE,0xAF, \
 123:../libdaisy/Middlewares/Third_Party/FatFs/src/ff.c **** 				0xB0,0xB1,0xB2,0xB3,0xB4,0xB5,0xB6,0xB7,0xB8,0xB9,0xBA,0xBB,0xBC,0xBD,0xBE,0xBF, \
 124:../libdaisy/Middlewares/Third_Party/FatFs/src/ff.c **** 				0xC0,0xC1,0xC2,0xC3,0xC4,0xC5,0xC6,0xC7,0xC8,0xC9,0xCA,0xCB,0xCC,0xCD,0xCE,0xCF, \
 125:../libdaisy/Middlewares/Third_Party/FatFs/src/ff.c **** 				0xB5,0xB6,0xB7,0xB8,0xBD,0xBE,0xC6,0xC7,0xA5,0xD9,0xDA,0xDB,0xDC,0xDD,0xDE,0xDF, \
 126:../libdaisy/Middlewares/Third_Party/FatFs/src/ff.c **** 				0xE0,0xE1,0xE2,0xE3,0xE5,0xE5,0xE6,0xE3,0xE8,0xE8,0xEA,0xEA,0xEE,0xED,0xEE,0xEF, \
 127:../libdaisy/Middlewares/Third_Party/FatFs/src/ff.c **** 				0xF0,0xF1,0xF2,0xF3,0xF4,0xF5,0xF6,0xF7,0xF8,0xF9,0xFA,0xFB,0xFC,0xFD,0xFE,0xFF}
 128:../libdaisy/Middlewares/Third_Party/FatFs/src/ff.c **** 
 129:../libdaisy/Middlewares/Third_Party/FatFs/src/ff.c **** #elif _CODE_PAGE == 850	/* Latin 1 */
 130:../libdaisy/Middlewares/Third_Party/FatFs/src/ff.c **** #define _DF1S	0
 131:../libdaisy/Middlewares/Third_Party/FatFs/src/ff.c **** #define _EXCVT {0x43,0x55,0x45,0x41,0x41,0x41,0x41,0x43,0x45,0x45,0x45,0x49,0x49,0x49,0x41,0x41, \
 132:../libdaisy/Middlewares/Third_Party/FatFs/src/ff.c **** 				0x45,0x92,0x92,0x4F,0x4F,0x4F,0x55,0x55,0x59,0x4F,0x55,0x4F,0x9C,0x4F,0x9E,0x9F, \
 133:../libdaisy/Middlewares/Third_Party/FatFs/src/ff.c **** 				0x41,0x49,0x4F,0x55,0xA5,0xA5,0xA6,0xA7,0xA8,0xA9,0xAA,0xAB,0xAC,0xAD,0xAE,0xAF, \
 134:../libdaisy/Middlewares/Third_Party/FatFs/src/ff.c **** 				0xB0,0xB1,0xB2,0xB3,0xB4,0x41,0x41,0x41,0xB8,0xB9,0xBA,0xBB,0xBC,0xBD,0xBE,0xBF, \
 135:../libdaisy/Middlewares/Third_Party/FatFs/src/ff.c **** 				0xC0,0xC1,0xC2,0xC3,0xC4,0xC5,0x41,0x41,0xC8,0xC9,0xCA,0xCB,0xCC,0xCD,0xCE,0xCF, \
 136:../libdaisy/Middlewares/Third_Party/FatFs/src/ff.c **** 				0xD1,0xD1,0x45,0x45,0x45,0x49,0x49,0x49,0x49,0xD9,0xDA,0xDB,0xDC,0xDD,0x49,0xDF, \
 137:../libdaisy/Middlewares/Third_Party/FatFs/src/ff.c **** 				0x4F,0xE1,0x4F,0x4F,0x4F,0x4F,0xE6,0xE8,0xE8,0x55,0x55,0x55,0x59,0x59,0xEE,0xEF, \
 138:../libdaisy/Middlewares/Third_Party/FatFs/src/ff.c **** 				0xF0,0xF1,0xF2,0xF3,0xF4,0xF5,0xF6,0xF7,0xF8,0xF9,0xFA,0xFB,0xFC,0xFD,0xFE,0xFF}
 139:../libdaisy/Middlewares/Third_Party/FatFs/src/ff.c **** 
 140:../libdaisy/Middlewares/Third_Party/FatFs/src/ff.c **** #elif _CODE_PAGE == 852	/* Latin 2 */
 141:../libdaisy/Middlewares/Third_Party/FatFs/src/ff.c **** #define _DF1S	0
 142:../libdaisy/Middlewares/Third_Party/FatFs/src/ff.c **** #define _EXCVT {0x80,0x9A,0x90,0xB6,0x8E,0xDE,0x8F,0x80,0x9D,0xD3,0x8A,0x8A,0xD7,0x8D,0x8E,0x8F, \
 143:../libdaisy/Middlewares/Third_Party/FatFs/src/ff.c **** 				0x90,0x91,0x91,0xE2,0x99,0x95,0x95,0x97,0x97,0x99,0x9A,0x9B,0x9B,0x9D,0x9E,0xAC, \
 144:../libdaisy/Middlewares/Third_Party/FatFs/src/ff.c **** 				0xB5,0xD6,0xE0,0xE9,0xA4,0xA4,0xA6,0xA6,0xA8,0xA8,0xAA,0x8D,0xAC,0xB8,0xAE,0xAF, \
ARM GAS  /var/folders/0d/2ntwfkp1791d52chq7d_xwdm0000gn/T//ccOVjVrq.s 			page 4


 145:../libdaisy/Middlewares/Third_Party/FatFs/src/ff.c **** 				0xB0,0xB1,0xB2,0xB3,0xB4,0xB5,0xB6,0xB7,0xB8,0xB9,0xBA,0xBB,0xBC,0xBD,0xBD,0xBF, \
 146:../libdaisy/Middlewares/Third_Party/FatFs/src/ff.c **** 				0xC0,0xC1,0xC2,0xC3,0xC4,0xC5,0xC6,0xC6,0xC8,0xC9,0xCA,0xCB,0xCC,0xCD,0xCE,0xCF, \
 147:../libdaisy/Middlewares/Third_Party/FatFs/src/ff.c **** 				0xD1,0xD1,0xD2,0xD3,0xD2,0xD5,0xD6,0xD7,0xB7,0xD9,0xDA,0xDB,0xDC,0xDD,0xDE,0xDF, \
 148:../libdaisy/Middlewares/Third_Party/FatFs/src/ff.c **** 				0xE0,0xE1,0xE2,0xE3,0xE3,0xD5,0xE6,0xE6,0xE8,0xE9,0xE8,0xEB,0xED,0xED,0xDD,0xEF, \
 149:../libdaisy/Middlewares/Third_Party/FatFs/src/ff.c **** 				0xF0,0xF1,0xF2,0xF3,0xF4,0xF5,0xF6,0xF7,0xF8,0xF9,0xFA,0xEB,0xFC,0xFC,0xFE,0xFF}
 150:../libdaisy/Middlewares/Third_Party/FatFs/src/ff.c **** 
 151:../libdaisy/Middlewares/Third_Party/FatFs/src/ff.c **** #elif _CODE_PAGE == 855	/* Cyrillic */
 152:../libdaisy/Middlewares/Third_Party/FatFs/src/ff.c **** #define _DF1S	0
 153:../libdaisy/Middlewares/Third_Party/FatFs/src/ff.c **** #define _EXCVT {0x81,0x81,0x83,0x83,0x85,0x85,0x87,0x87,0x89,0x89,0x8B,0x8B,0x8D,0x8D,0x8F,0x8F, \
 154:../libdaisy/Middlewares/Third_Party/FatFs/src/ff.c **** 				0x91,0x91,0x93,0x93,0x95,0x95,0x97,0x97,0x99,0x99,0x9B,0x9B,0x9D,0x9D,0x9F,0x9F, \
 155:../libdaisy/Middlewares/Third_Party/FatFs/src/ff.c **** 				0xA1,0xA1,0xA3,0xA3,0xA5,0xA5,0xA7,0xA7,0xA9,0xA9,0xAB,0xAB,0xAD,0xAD,0xAE,0xAF, \
 156:../libdaisy/Middlewares/Third_Party/FatFs/src/ff.c **** 				0xB0,0xB1,0xB2,0xB3,0xB4,0xB6,0xB6,0xB8,0xB8,0xB9,0xBA,0xBB,0xBC,0xBE,0xBE,0xBF, \
 157:../libdaisy/Middlewares/Third_Party/FatFs/src/ff.c **** 				0xC0,0xC1,0xC2,0xC3,0xC4,0xC5,0xC7,0xC7,0xC8,0xC9,0xCA,0xCB,0xCC,0xCD,0xCE,0xCF, \
 158:../libdaisy/Middlewares/Third_Party/FatFs/src/ff.c **** 				0xD1,0xD1,0xD3,0xD3,0xD5,0xD5,0xD7,0xD7,0xDD,0xD9,0xDA,0xDB,0xDC,0xDD,0xE0,0xDF, \
 159:../libdaisy/Middlewares/Third_Party/FatFs/src/ff.c **** 				0xE0,0xE2,0xE2,0xE4,0xE4,0xE6,0xE6,0xE8,0xE8,0xEA,0xEA,0xEC,0xEC,0xEE,0xEE,0xEF, \
 160:../libdaisy/Middlewares/Third_Party/FatFs/src/ff.c **** 				0xF0,0xF2,0xF2,0xF4,0xF4,0xF6,0xF6,0xF8,0xF8,0xFA,0xFA,0xFC,0xFC,0xFD,0xFE,0xFF}
 161:../libdaisy/Middlewares/Third_Party/FatFs/src/ff.c **** 
 162:../libdaisy/Middlewares/Third_Party/FatFs/src/ff.c **** #elif _CODE_PAGE == 857	/* Turkish */
 163:../libdaisy/Middlewares/Third_Party/FatFs/src/ff.c **** #define _DF1S	0
 164:../libdaisy/Middlewares/Third_Party/FatFs/src/ff.c **** #define _EXCVT {0x80,0x9A,0x90,0xB6,0x8E,0xB7,0x8F,0x80,0xD2,0xD3,0xD4,0xD8,0xD7,0x49,0x8E,0x8F, \
 165:../libdaisy/Middlewares/Third_Party/FatFs/src/ff.c **** 				0x90,0x92,0x92,0xE2,0x99,0xE3,0xEA,0xEB,0x98,0x99,0x9A,0x9D,0x9C,0x9D,0x9E,0x9E, \
 166:../libdaisy/Middlewares/Third_Party/FatFs/src/ff.c **** 				0xB5,0xD6,0xE0,0xE9,0xA5,0xA5,0xA6,0xA6,0xA8,0xA9,0xAA,0xAB,0xAC,0xAD,0xAE,0xAF, \
 167:../libdaisy/Middlewares/Third_Party/FatFs/src/ff.c **** 				0xB0,0xB1,0xB2,0xB3,0xB4,0xB5,0xB6,0xB7,0xB8,0xB9,0xBA,0xBB,0xBC,0xBD,0xBE,0xBF, \
 168:../libdaisy/Middlewares/Third_Party/FatFs/src/ff.c **** 				0xC0,0xC1,0xC2,0xC3,0xC4,0xC5,0xC7,0xC7,0xC8,0xC9,0xCA,0xCB,0xCC,0xCD,0xCE,0xCF, \
 169:../libdaisy/Middlewares/Third_Party/FatFs/src/ff.c **** 				0xD0,0xD1,0xD2,0xD3,0xD4,0x49,0xD6,0xD7,0xD8,0xD9,0xDA,0xDB,0xDC,0xDD,0xDE,0xDF, \
 170:../libdaisy/Middlewares/Third_Party/FatFs/src/ff.c **** 				0xE0,0xE1,0xE2,0xE3,0xE5,0xE5,0xE6,0xE7,0xE8,0xE9,0xEA,0xEB,0xDE,0xED,0xEE,0xEF, \
 171:../libdaisy/Middlewares/Third_Party/FatFs/src/ff.c **** 				0xF0,0xF1,0xF2,0xF3,0xF4,0xF5,0xF6,0xF7,0xF8,0xF9,0xFA,0xFB,0xFC,0xFD,0xFE,0xFF}
 172:../libdaisy/Middlewares/Third_Party/FatFs/src/ff.c **** 
 173:../libdaisy/Middlewares/Third_Party/FatFs/src/ff.c **** #elif _CODE_PAGE == 860	/* Portuguese */
 174:../libdaisy/Middlewares/Third_Party/FatFs/src/ff.c **** #define _DF1S	0
 175:../libdaisy/Middlewares/Third_Party/FatFs/src/ff.c **** #define _EXCVT {0x80,0x9A,0x90,0x8F,0x8E,0x91,0x86,0x80,0x89,0x89,0x92,0x8B,0x8C,0x98,0x8E,0x8F, \
 176:../libdaisy/Middlewares/Third_Party/FatFs/src/ff.c **** 				0x90,0x91,0x92,0x8C,0x99,0xA9,0x96,0x9D,0x98,0x99,0x9A,0x9B,0x9C,0x9D,0x9E,0x9F, \
 177:../libdaisy/Middlewares/Third_Party/FatFs/src/ff.c **** 				0x86,0x8B,0x9F,0x96,0xA5,0xA5,0xA6,0xA7,0xA8,0xA9,0xAA,0xAB,0xAC,0xAD,0xAE,0xAF, \
 178:../libdaisy/Middlewares/Third_Party/FatFs/src/ff.c **** 				0xB0,0xB1,0xB2,0xB3,0xB4,0xB5,0xB6,0xB7,0xB8,0xB9,0xBA,0xBB,0xBC,0xBD,0xBE,0xBF, \
 179:../libdaisy/Middlewares/Third_Party/FatFs/src/ff.c **** 				0xC0,0xC1,0xC2,0xC3,0xC4,0xC5,0xC6,0xC7,0xC8,0xC9,0xCA,0xCB,0xCC,0xCD,0xCE,0xCF, \
 180:../libdaisy/Middlewares/Third_Party/FatFs/src/ff.c **** 				0xD0,0xD1,0xD2,0xD3,0xD4,0xD5,0xD6,0xD7,0xD8,0xD9,0xDA,0xDB,0xDC,0xDD,0xDE,0xDF, \
 181:../libdaisy/Middlewares/Third_Party/FatFs/src/ff.c **** 				0xE0,0xE1,0xE2,0xE3,0xE4,0xE5,0xE6,0xE7,0xE8,0xE9,0xEA,0xEB,0xEC,0xED,0xEE,0xEF, \
 182:../libdaisy/Middlewares/Third_Party/FatFs/src/ff.c **** 				0xF0,0xF1,0xF2,0xF3,0xF4,0xF5,0xF6,0xF7,0xF8,0xF9,0xFA,0xFB,0xFC,0xFD,0xFE,0xFF}
 183:../libdaisy/Middlewares/Third_Party/FatFs/src/ff.c **** 
 184:../libdaisy/Middlewares/Third_Party/FatFs/src/ff.c **** #elif _CODE_PAGE == 861	/* Icelandic */
 185:../libdaisy/Middlewares/Third_Party/FatFs/src/ff.c **** #define _DF1S	0
 186:../libdaisy/Middlewares/Third_Party/FatFs/src/ff.c **** #define _EXCVT {0x80,0x9A,0x90,0x41,0x8E,0x41,0x8F,0x80,0x45,0x45,0x45,0x8B,0x8B,0x8D,0x8E,0x8F, \
 187:../libdaisy/Middlewares/Third_Party/FatFs/src/ff.c **** 				0x90,0x92,0x92,0x4F,0x99,0x8D,0x55,0x97,0x97,0x99,0x9A,0x9D,0x9C,0x9D,0x9E,0x9F, \
 188:../libdaisy/Middlewares/Third_Party/FatFs/src/ff.c **** 				0xA4,0xA5,0xA6,0xA7,0xA4,0xA5,0xA6,0xA7,0xA8,0xA9,0xAA,0xAB,0xAC,0xAD,0xAE,0xAF, \
 189:../libdaisy/Middlewares/Third_Party/FatFs/src/ff.c **** 				0xB0,0xB1,0xB2,0xB3,0xB4,0xB5,0xB6,0xB7,0xB8,0xB9,0xBA,0xBB,0xBC,0xBD,0xBE,0xBF, \
 190:../libdaisy/Middlewares/Third_Party/FatFs/src/ff.c **** 				0xC0,0xC1,0xC2,0xC3,0xC4,0xC5,0xC6,0xC7,0xC8,0xC9,0xCA,0xCB,0xCC,0xCD,0xCE,0xCF, \
 191:../libdaisy/Middlewares/Third_Party/FatFs/src/ff.c **** 				0xD0,0xD1,0xD2,0xD3,0xD4,0xD5,0xD6,0xD7,0xD8,0xD9,0xDA,0xDB,0xDC,0xDD,0xDE,0xDF, \
 192:../libdaisy/Middlewares/Third_Party/FatFs/src/ff.c **** 				0xE0,0xE1,0xE2,0xE3,0xE4,0xE5,0xE6,0xE7,0xE8,0xE9,0xEA,0xEB,0xEC,0xED,0xEE,0xEF, \
 193:../libdaisy/Middlewares/Third_Party/FatFs/src/ff.c **** 				0xF0,0xF1,0xF2,0xF3,0xF4,0xF5,0xF6,0xF7,0xF8,0xF9,0xFA,0xFB,0xFC,0xFD,0xFE,0xFF}
 194:../libdaisy/Middlewares/Third_Party/FatFs/src/ff.c **** 
 195:../libdaisy/Middlewares/Third_Party/FatFs/src/ff.c **** #elif _CODE_PAGE == 862	/* Hebrew */
 196:../libdaisy/Middlewares/Third_Party/FatFs/src/ff.c **** #define _DF1S	0
 197:../libdaisy/Middlewares/Third_Party/FatFs/src/ff.c **** #define _EXCVT {0x80,0x81,0x82,0x83,0x84,0x85,0x86,0x87,0x88,0x89,0x8A,0x8B,0x8C,0x8D,0x8E,0x8F, \
 198:../libdaisy/Middlewares/Third_Party/FatFs/src/ff.c **** 				0x90,0x91,0x92,0x93,0x94,0x95,0x96,0x97,0x98,0x99,0x9A,0x9B,0x9C,0x9D,0x9E,0x9F, \
 199:../libdaisy/Middlewares/Third_Party/FatFs/src/ff.c **** 				0x41,0x49,0x4F,0x55,0xA5,0xA5,0xA6,0xA7,0xA8,0xA9,0xAA,0xAB,0xAC,0xAD,0xAE,0xAF, \
 200:../libdaisy/Middlewares/Third_Party/FatFs/src/ff.c **** 				0xB0,0xB1,0xB2,0xB3,0xB4,0xB5,0xB6,0xB7,0xB8,0xB9,0xBA,0xBB,0xBC,0xBD,0xBE,0xBF, \
 201:../libdaisy/Middlewares/Third_Party/FatFs/src/ff.c **** 				0xC0,0xC1,0xC2,0xC3,0xC4,0xC5,0xC6,0xC7,0xC8,0xC9,0xCA,0xCB,0xCC,0xCD,0xCE,0xCF, \
ARM GAS  /var/folders/0d/2ntwfkp1791d52chq7d_xwdm0000gn/T//ccOVjVrq.s 			page 5


 202:../libdaisy/Middlewares/Third_Party/FatFs/src/ff.c **** 				0xD0,0xD1,0xD2,0xD3,0xD4,0xD5,0xD6,0xD7,0xD8,0xD9,0xDA,0xDB,0xDC,0xDD,0xDE,0xDF, \
 203:../libdaisy/Middlewares/Third_Party/FatFs/src/ff.c **** 				0xE0,0xE1,0xE2,0xE3,0xE4,0xE5,0xE6,0xE7,0xE8,0xE9,0xEA,0xEB,0xEC,0xED,0xEE,0xEF, \
 204:../libdaisy/Middlewares/Third_Party/FatFs/src/ff.c **** 				0xF0,0xF1,0xF2,0xF3,0xF4,0xF5,0xF6,0xF7,0xF8,0xF9,0xFA,0xFB,0xFC,0xFD,0xFE,0xFF}
 205:../libdaisy/Middlewares/Third_Party/FatFs/src/ff.c **** 
 206:../libdaisy/Middlewares/Third_Party/FatFs/src/ff.c **** #elif _CODE_PAGE == 863	/* Canadian-French */
 207:../libdaisy/Middlewares/Third_Party/FatFs/src/ff.c **** #define _DF1S	0
 208:../libdaisy/Middlewares/Third_Party/FatFs/src/ff.c **** #define _EXCVT {0x43,0x55,0x45,0x41,0x41,0x41,0x86,0x43,0x45,0x45,0x45,0x49,0x49,0x8D,0x41,0x8F, \
 209:../libdaisy/Middlewares/Third_Party/FatFs/src/ff.c **** 				0x45,0x45,0x45,0x4F,0x45,0x49,0x55,0x55,0x98,0x4F,0x55,0x9B,0x9C,0x55,0x55,0x9F, \
 210:../libdaisy/Middlewares/Third_Party/FatFs/src/ff.c **** 				0xA0,0xA1,0x4F,0x55,0xA4,0xA5,0xA6,0xA7,0x49,0xA9,0xAA,0xAB,0xAC,0xAD,0xAE,0xAF, \
 211:../libdaisy/Middlewares/Third_Party/FatFs/src/ff.c **** 				0xB0,0xB1,0xB2,0xB3,0xB4,0xB5,0xB6,0xB7,0xB8,0xB9,0xBA,0xBB,0xBC,0xBD,0xBE,0xBF, \
 212:../libdaisy/Middlewares/Third_Party/FatFs/src/ff.c **** 				0xC0,0xC1,0xC2,0xC3,0xC4,0xC5,0xC6,0xC7,0xC8,0xC9,0xCA,0xCB,0xCC,0xCD,0xCE,0xCF, \
 213:../libdaisy/Middlewares/Third_Party/FatFs/src/ff.c **** 				0xD0,0xD1,0xD2,0xD3,0xD4,0xD5,0xD6,0xD7,0xD8,0xD9,0xDA,0xDB,0xDC,0xDD,0xDE,0xDF, \
 214:../libdaisy/Middlewares/Third_Party/FatFs/src/ff.c **** 				0xE0,0xE1,0xE2,0xE3,0xE4,0xE5,0xE6,0xE7,0xE8,0xE9,0xEA,0xEB,0xEC,0xED,0xEE,0xEF, \
 215:../libdaisy/Middlewares/Third_Party/FatFs/src/ff.c **** 				0xF0,0xF1,0xF2,0xF3,0xF4,0xF5,0xF6,0xF7,0xF8,0xF9,0xFA,0xFB,0xFC,0xFD,0xFE,0xFF}
 216:../libdaisy/Middlewares/Third_Party/FatFs/src/ff.c **** 
 217:../libdaisy/Middlewares/Third_Party/FatFs/src/ff.c **** #elif _CODE_PAGE == 864	/* Arabic */
 218:../libdaisy/Middlewares/Third_Party/FatFs/src/ff.c **** #define _DF1S	0
 219:../libdaisy/Middlewares/Third_Party/FatFs/src/ff.c **** #define _EXCVT {0x80,0x9A,0x45,0x41,0x8E,0x41,0x8F,0x80,0x45,0x45,0x45,0x49,0x49,0x49,0x8E,0x8F, \
 220:../libdaisy/Middlewares/Third_Party/FatFs/src/ff.c **** 				0x90,0x92,0x92,0x4F,0x99,0x4F,0x55,0x55,0x59,0x99,0x9A,0x9B,0x9C,0x9D,0x9E,0x9F, \
 221:../libdaisy/Middlewares/Third_Party/FatFs/src/ff.c **** 				0x41,0x49,0x4F,0x55,0xA5,0xA5,0xA6,0xA7,0xA8,0xA9,0xAA,0xAB,0xAC,0xAD,0xAE,0xAF, \
 222:../libdaisy/Middlewares/Third_Party/FatFs/src/ff.c **** 				0xB0,0xB1,0xB2,0xB3,0xB4,0xB5,0xB6,0xB7,0xB8,0xB9,0xBA,0xBB,0xBC,0xBD,0xBE,0xBF, \
 223:../libdaisy/Middlewares/Third_Party/FatFs/src/ff.c **** 				0xC0,0xC1,0xC2,0xC3,0xC4,0xC5,0xC6,0xC7,0xC8,0xC9,0xCA,0xCB,0xCC,0xCD,0xCE,0xCF, \
 224:../libdaisy/Middlewares/Third_Party/FatFs/src/ff.c **** 				0xD0,0xD1,0xD2,0xD3,0xD4,0xD5,0xD6,0xD7,0xD8,0xD9,0xDA,0xDB,0xDC,0xDD,0xDE,0xDF, \
 225:../libdaisy/Middlewares/Third_Party/FatFs/src/ff.c **** 				0xE0,0xE1,0xE2,0xE3,0xE4,0xE5,0xE6,0xE7,0xE8,0xE9,0xEA,0xEB,0xEC,0xED,0xEE,0xEF, \
 226:../libdaisy/Middlewares/Third_Party/FatFs/src/ff.c **** 				0xF0,0xF1,0xF2,0xF3,0xF4,0xF5,0xF6,0xF7,0xF8,0xF9,0xFA,0xFB,0xFC,0xFD,0xFE,0xFF}
 227:../libdaisy/Middlewares/Third_Party/FatFs/src/ff.c **** 
 228:../libdaisy/Middlewares/Third_Party/FatFs/src/ff.c **** #elif _CODE_PAGE == 865	/* Nordic */
 229:../libdaisy/Middlewares/Third_Party/FatFs/src/ff.c **** #define _DF1S	0
 230:../libdaisy/Middlewares/Third_Party/FatFs/src/ff.c **** #define _EXCVT {0x80,0x9A,0x90,0x41,0x8E,0x41,0x8F,0x80,0x45,0x45,0x45,0x49,0x49,0x49,0x8E,0x8F, \
 231:../libdaisy/Middlewares/Third_Party/FatFs/src/ff.c **** 				0x90,0x92,0x92,0x4F,0x99,0x4F,0x55,0x55,0x59,0x99,0x9A,0x9B,0x9C,0x9D,0x9E,0x9F, \
 232:../libdaisy/Middlewares/Third_Party/FatFs/src/ff.c **** 				0x41,0x49,0x4F,0x55,0xA5,0xA5,0xA6,0xA7,0xA8,0xA9,0xAA,0xAB,0xAC,0xAD,0xAE,0xAF, \
 233:../libdaisy/Middlewares/Third_Party/FatFs/src/ff.c **** 				0xB0,0xB1,0xB2,0xB3,0xB4,0xB5,0xB6,0xB7,0xB8,0xB9,0xBA,0xBB,0xBC,0xBD,0xBE,0xBF, \
 234:../libdaisy/Middlewares/Third_Party/FatFs/src/ff.c **** 				0xC0,0xC1,0xC2,0xC3,0xC4,0xC5,0xC6,0xC7,0xC8,0xC9,0xCA,0xCB,0xCC,0xCD,0xCE,0xCF, \
 235:../libdaisy/Middlewares/Third_Party/FatFs/src/ff.c **** 				0xD0,0xD1,0xD2,0xD3,0xD4,0xD5,0xD6,0xD7,0xD8,0xD9,0xDA,0xDB,0xDC,0xDD,0xDE,0xDF, \
 236:../libdaisy/Middlewares/Third_Party/FatFs/src/ff.c **** 				0xE0,0xE1,0xE2,0xE3,0xE4,0xE5,0xE6,0xE7,0xE8,0xE9,0xEA,0xEB,0xEC,0xED,0xEE,0xEF, \
 237:../libdaisy/Middlewares/Third_Party/FatFs/src/ff.c **** 				0xF0,0xF1,0xF2,0xF3,0xF4,0xF5,0xF6,0xF7,0xF8,0xF9,0xFA,0xFB,0xFC,0xFD,0xFE,0xFF}
 238:../libdaisy/Middlewares/Third_Party/FatFs/src/ff.c **** 
 239:../libdaisy/Middlewares/Third_Party/FatFs/src/ff.c **** #elif _CODE_PAGE == 866	/* Russian */
 240:../libdaisy/Middlewares/Third_Party/FatFs/src/ff.c **** #define _DF1S	0
 241:../libdaisy/Middlewares/Third_Party/FatFs/src/ff.c **** #define _EXCVT {0x80,0x81,0x82,0x83,0x84,0x85,0x86,0x87,0x88,0x89,0x8A,0x8B,0x8C,0x8D,0x8E,0x8F, \
 242:../libdaisy/Middlewares/Third_Party/FatFs/src/ff.c **** 				0x90,0x91,0x92,0x93,0x94,0x95,0x96,0x97,0x98,0x99,0x9A,0x9B,0x9C,0x9D,0x9E,0x9F, \
 243:../libdaisy/Middlewares/Third_Party/FatFs/src/ff.c **** 				0x80,0x81,0x82,0x83,0x84,0x85,0x86,0x87,0x88,0x89,0x8A,0x8B,0x8C,0x8D,0x8E,0x8F, \
 244:../libdaisy/Middlewares/Third_Party/FatFs/src/ff.c **** 				0xB0,0xB1,0xB2,0xB3,0xB4,0xB5,0xB6,0xB7,0xB8,0xB9,0xBA,0xBB,0xBC,0xBD,0xBE,0xBF, \
 245:../libdaisy/Middlewares/Third_Party/FatFs/src/ff.c **** 				0xC0,0xC1,0xC2,0xC3,0xC4,0xC5,0xC6,0xC7,0xC8,0xC9,0xCA,0xCB,0xCC,0xCD,0xCE,0xCF, \
 246:../libdaisy/Middlewares/Third_Party/FatFs/src/ff.c **** 				0xD0,0xD1,0xD2,0xD3,0xD4,0xD5,0xD6,0xD7,0xD8,0xD9,0xDA,0xDB,0xDC,0xDD,0xDE,0xDF, \
 247:../libdaisy/Middlewares/Third_Party/FatFs/src/ff.c **** 				0x90,0x91,0x92,0x93,0x94,0x95,0x96,0x97,0x98,0x99,0x9A,0x9B,0x9C,0x9D,0x9E,0x9F, \
 248:../libdaisy/Middlewares/Third_Party/FatFs/src/ff.c **** 				0xF0,0xF0,0xF2,0xF2,0xF4,0xF4,0xF6,0xF6,0xF8,0xF9,0xFA,0xFB,0xFC,0xFD,0xFE,0xFF}
 249:../libdaisy/Middlewares/Third_Party/FatFs/src/ff.c **** 
 250:../libdaisy/Middlewares/Third_Party/FatFs/src/ff.c **** #elif _CODE_PAGE == 869	/* Greek 2 */
 251:../libdaisy/Middlewares/Third_Party/FatFs/src/ff.c **** #define _DF1S	0
 252:../libdaisy/Middlewares/Third_Party/FatFs/src/ff.c **** #define _EXCVT {0x80,0x81,0x82,0x83,0x84,0x85,0x86,0x87,0x88,0x89,0x8A,0x8B,0x8C,0x8D,0x8E,0x8F, \
 253:../libdaisy/Middlewares/Third_Party/FatFs/src/ff.c **** 				0x90,0x91,0x92,0x93,0x94,0x95,0x96,0x97,0x98,0x99,0x9A,0x86,0x9C,0x8D,0x8F,0x90, \
 254:../libdaisy/Middlewares/Third_Party/FatFs/src/ff.c **** 				0x91,0x90,0x92,0x95,0xA4,0xA5,0xA6,0xA7,0xA8,0xA9,0xAA,0xAB,0xAC,0xAD,0xAE,0xAF, \
 255:../libdaisy/Middlewares/Third_Party/FatFs/src/ff.c **** 				0xB0,0xB1,0xB2,0xB3,0xB4,0xB5,0xB6,0xB7,0xB8,0xB9,0xBA,0xBB,0xBC,0xBD,0xBE,0xBF, \
 256:../libdaisy/Middlewares/Third_Party/FatFs/src/ff.c **** 				0xC0,0xC1,0xC2,0xC3,0xC4,0xC5,0xC6,0xC7,0xC8,0xC9,0xCA,0xCB,0xCC,0xCD,0xCE,0xCF, \
 257:../libdaisy/Middlewares/Third_Party/FatFs/src/ff.c **** 				0xD0,0xD1,0xD2,0xD3,0xD4,0xD5,0xA4,0xA5,0xA6,0xD9,0xDA,0xDB,0xDC,0xA7,0xA8,0xDF, \
 258:../libdaisy/Middlewares/Third_Party/FatFs/src/ff.c **** 				0xA9,0xAA,0xAC,0xAD,0xB5,0xB6,0xB7,0xB8,0xBD,0xBE,0xC6,0xC7,0xCF,0xCF,0xD0,0xEF, \
ARM GAS  /var/folders/0d/2ntwfkp1791d52chq7d_xwdm0000gn/T//ccOVjVrq.s 			page 6


 259:../libdaisy/Middlewares/Third_Party/FatFs/src/ff.c **** 				0xF0,0xF1,0xD1,0xD2,0xD3,0xF5,0xD4,0xF7,0xF8,0xF9,0xD5,0x96,0x95,0x98,0xFE,0xFF}
 260:../libdaisy/Middlewares/Third_Party/FatFs/src/ff.c **** 
 261:../libdaisy/Middlewares/Third_Party/FatFs/src/ff.c **** #elif _CODE_PAGE == 1	/* ASCII (for only non-LFN cfg) */
 262:../libdaisy/Middlewares/Third_Party/FatFs/src/ff.c **** #if _USE_LFN != 0
 263:../libdaisy/Middlewares/Third_Party/FatFs/src/ff.c **** #error Cannot enable LFN without valid code page.
 264:../libdaisy/Middlewares/Third_Party/FatFs/src/ff.c **** #endif
 265:../libdaisy/Middlewares/Third_Party/FatFs/src/ff.c **** #define _DF1S	0
 266:../libdaisy/Middlewares/Third_Party/FatFs/src/ff.c **** 
 267:../libdaisy/Middlewares/Third_Party/FatFs/src/ff.c **** #else
 268:../libdaisy/Middlewares/Third_Party/FatFs/src/ff.c **** #error Unknown code page
 269:../libdaisy/Middlewares/Third_Party/FatFs/src/ff.c **** 
 270:../libdaisy/Middlewares/Third_Party/FatFs/src/ff.c **** #endif
 271:../libdaisy/Middlewares/Third_Party/FatFs/src/ff.c **** 
 272:../libdaisy/Middlewares/Third_Party/FatFs/src/ff.c **** 
 273:../libdaisy/Middlewares/Third_Party/FatFs/src/ff.c **** /* Character code support macros */
 274:../libdaisy/Middlewares/Third_Party/FatFs/src/ff.c **** #define IsUpper(c)	(((c)>='A')&&((c)<='Z'))
 275:../libdaisy/Middlewares/Third_Party/FatFs/src/ff.c **** #define IsLower(c)	(((c)>='a')&&((c)<='z'))
 276:../libdaisy/Middlewares/Third_Party/FatFs/src/ff.c **** #define IsDigit(c)	(((c)>='0')&&((c)<='9'))
 277:../libdaisy/Middlewares/Third_Party/FatFs/src/ff.c **** 
 278:../libdaisy/Middlewares/Third_Party/FatFs/src/ff.c **** #if _DF1S != 0	/* Code page is DBCS */
 279:../libdaisy/Middlewares/Third_Party/FatFs/src/ff.c **** 
 280:../libdaisy/Middlewares/Third_Party/FatFs/src/ff.c **** #ifdef _DF2S	/* Two 1st byte areas */
 281:../libdaisy/Middlewares/Third_Party/FatFs/src/ff.c **** #define IsDBCS1(c)	(((BYTE)(c) >= _DF1S && (BYTE)(c) <= _DF1E) || ((BYTE)(c) >= _DF2S && (BYTE)(c) 
 282:../libdaisy/Middlewares/Third_Party/FatFs/src/ff.c **** #else			/* One 1st byte area */
 283:../libdaisy/Middlewares/Third_Party/FatFs/src/ff.c **** #define IsDBCS1(c)	((BYTE)(c) >= _DF1S && (BYTE)(c) <= _DF1E)
 284:../libdaisy/Middlewares/Third_Party/FatFs/src/ff.c **** #endif
 285:../libdaisy/Middlewares/Third_Party/FatFs/src/ff.c **** 
 286:../libdaisy/Middlewares/Third_Party/FatFs/src/ff.c **** #ifdef _DS3S	/* Three 2nd byte areas */
 287:../libdaisy/Middlewares/Third_Party/FatFs/src/ff.c **** #define IsDBCS2(c)	(((BYTE)(c) >= _DS1S && (BYTE)(c) <= _DS1E) || ((BYTE)(c) >= _DS2S && (BYTE)(c) 
 288:../libdaisy/Middlewares/Third_Party/FatFs/src/ff.c **** #else			/* Two 2nd byte areas */
 289:../libdaisy/Middlewares/Third_Party/FatFs/src/ff.c **** #define IsDBCS2(c)	(((BYTE)(c) >= _DS1S && (BYTE)(c) <= _DS1E) || ((BYTE)(c) >= _DS2S && (BYTE)(c) 
 290:../libdaisy/Middlewares/Third_Party/FatFs/src/ff.c **** #endif
 291:../libdaisy/Middlewares/Third_Party/FatFs/src/ff.c **** 
 292:../libdaisy/Middlewares/Third_Party/FatFs/src/ff.c **** #else			/* Code page is SBCS */
 293:../libdaisy/Middlewares/Third_Party/FatFs/src/ff.c **** 
 294:../libdaisy/Middlewares/Third_Party/FatFs/src/ff.c **** #define IsDBCS1(c)	0
 295:../libdaisy/Middlewares/Third_Party/FatFs/src/ff.c **** #define IsDBCS2(c)	0
 296:../libdaisy/Middlewares/Third_Party/FatFs/src/ff.c **** 
 297:../libdaisy/Middlewares/Third_Party/FatFs/src/ff.c **** #endif /* _DF1S */
 298:../libdaisy/Middlewares/Third_Party/FatFs/src/ff.c **** 
 299:../libdaisy/Middlewares/Third_Party/FatFs/src/ff.c **** 
 300:../libdaisy/Middlewares/Third_Party/FatFs/src/ff.c **** /* Additional file attribute bits for internal use */
 301:../libdaisy/Middlewares/Third_Party/FatFs/src/ff.c **** #define	AM_VOL		0x08	/* Volume label */
 302:../libdaisy/Middlewares/Third_Party/FatFs/src/ff.c **** #define AM_LFN		0x0F	/* LFN entry */
 303:../libdaisy/Middlewares/Third_Party/FatFs/src/ff.c **** #define AM_MASK		0x3F	/* Mask of defined bits */
 304:../libdaisy/Middlewares/Third_Party/FatFs/src/ff.c **** 
 305:../libdaisy/Middlewares/Third_Party/FatFs/src/ff.c **** 
 306:../libdaisy/Middlewares/Third_Party/FatFs/src/ff.c **** /* Additional file access control and file status flags for internal use */
 307:../libdaisy/Middlewares/Third_Party/FatFs/src/ff.c **** #define FA_SEEKEND	0x20	/* Seek to end of the file on file open */
 308:../libdaisy/Middlewares/Third_Party/FatFs/src/ff.c **** #define FA_MODIFIED	0x40	/* File has been modified */
 309:../libdaisy/Middlewares/Third_Party/FatFs/src/ff.c **** #define FA_DIRTY	0x80	/* FIL.buf[] needs to be written-back */
 310:../libdaisy/Middlewares/Third_Party/FatFs/src/ff.c **** 
 311:../libdaisy/Middlewares/Third_Party/FatFs/src/ff.c **** 
 312:../libdaisy/Middlewares/Third_Party/FatFs/src/ff.c **** /* Name status flags in fn[] */
 313:../libdaisy/Middlewares/Third_Party/FatFs/src/ff.c **** #define NSFLAG		11		/* Index of the name status byte */
 314:../libdaisy/Middlewares/Third_Party/FatFs/src/ff.c **** #define NS_LOSS		0x01	/* Out of 8.3 format */
 315:../libdaisy/Middlewares/Third_Party/FatFs/src/ff.c **** #define NS_LFN		0x02	/* Force to create LFN entry */
ARM GAS  /var/folders/0d/2ntwfkp1791d52chq7d_xwdm0000gn/T//ccOVjVrq.s 			page 7


 316:../libdaisy/Middlewares/Third_Party/FatFs/src/ff.c **** #define NS_LAST		0x04	/* Last segment */
 317:../libdaisy/Middlewares/Third_Party/FatFs/src/ff.c **** #define NS_BODY		0x08	/* Lower case flag (body) */
 318:../libdaisy/Middlewares/Third_Party/FatFs/src/ff.c **** #define NS_EXT		0x10	/* Lower case flag (ext) */
 319:../libdaisy/Middlewares/Third_Party/FatFs/src/ff.c **** #define NS_DOT		0x20	/* Dot entry */
 320:../libdaisy/Middlewares/Third_Party/FatFs/src/ff.c **** #define NS_NOLFN	0x40	/* Do not find LFN */
 321:../libdaisy/Middlewares/Third_Party/FatFs/src/ff.c **** #define NS_NONAME	0x80	/* Not followed */
 322:../libdaisy/Middlewares/Third_Party/FatFs/src/ff.c **** 
 323:../libdaisy/Middlewares/Third_Party/FatFs/src/ff.c **** 
 324:../libdaisy/Middlewares/Third_Party/FatFs/src/ff.c **** /* Limits and boundaries */
 325:../libdaisy/Middlewares/Third_Party/FatFs/src/ff.c **** #define MAX_DIR		0x200000		/* Max size of FAT directory */
 326:../libdaisy/Middlewares/Third_Party/FatFs/src/ff.c **** #define MAX_DIR_EX	0x10000000		/* Max size of exFAT directory */
 327:../libdaisy/Middlewares/Third_Party/FatFs/src/ff.c **** #define MAX_FAT12	0xFF5			/* Max FAT12 clusters (differs from specs, but correct for real DOS/Windo
 328:../libdaisy/Middlewares/Third_Party/FatFs/src/ff.c **** #define	MAX_FAT16	0xFFF5			/* Max FAT16 clusters (differs from specs, but correct for real DOS/Wind
 329:../libdaisy/Middlewares/Third_Party/FatFs/src/ff.c **** #define	MAX_FAT32	0x0FFFFFF5		/* Max FAT32 clusters (not specified, practical limit) */
 330:../libdaisy/Middlewares/Third_Party/FatFs/src/ff.c **** #define	MAX_EXFAT	0x7FFFFFFD		/* Max exFAT clusters (differs from specs, implementation limit) */
 331:../libdaisy/Middlewares/Third_Party/FatFs/src/ff.c **** 
 332:../libdaisy/Middlewares/Third_Party/FatFs/src/ff.c **** 
 333:../libdaisy/Middlewares/Third_Party/FatFs/src/ff.c **** /* FatFs refers the FAT structure as simple byte array instead of structure member
 334:../libdaisy/Middlewares/Third_Party/FatFs/src/ff.c **** / because the C structure is not binary compatible between different platforms */
 335:../libdaisy/Middlewares/Third_Party/FatFs/src/ff.c **** 
 336:../libdaisy/Middlewares/Third_Party/FatFs/src/ff.c **** #define BS_JmpBoot			0		/* x86 jump instruction (3-byte) */
 337:../libdaisy/Middlewares/Third_Party/FatFs/src/ff.c **** #define BS_OEMName			3		/* OEM name (8-byte) */
 338:../libdaisy/Middlewares/Third_Party/FatFs/src/ff.c **** #define BPB_BytsPerSec		11		/* Sector size [byte] (WORD) */
 339:../libdaisy/Middlewares/Third_Party/FatFs/src/ff.c **** #define BPB_SecPerClus		13		/* Cluster size [sector] (BYTE) */
 340:../libdaisy/Middlewares/Third_Party/FatFs/src/ff.c **** #define BPB_RsvdSecCnt		14		/* Size of reserved area [sector] (WORD) */
 341:../libdaisy/Middlewares/Third_Party/FatFs/src/ff.c **** #define BPB_NumFATs			16		/* Number of FATs (BYTE) */
 342:../libdaisy/Middlewares/Third_Party/FatFs/src/ff.c **** #define BPB_RootEntCnt		17		/* Size of root directory area for FAT12/16 [entry] (WORD) */
 343:../libdaisy/Middlewares/Third_Party/FatFs/src/ff.c **** #define BPB_TotSec16		19		/* Volume size (16-bit) [sector] (WORD) */
 344:../libdaisy/Middlewares/Third_Party/FatFs/src/ff.c **** #define BPB_Media			21		/* Media descriptor byte (BYTE) */
 345:../libdaisy/Middlewares/Third_Party/FatFs/src/ff.c **** #define BPB_FATSz16			22		/* FAT size (16-bit) [sector] (WORD) */
 346:../libdaisy/Middlewares/Third_Party/FatFs/src/ff.c **** #define BPB_SecPerTrk		24		/* Track size for int13h [sector] (WORD) */
 347:../libdaisy/Middlewares/Third_Party/FatFs/src/ff.c **** #define BPB_NumHeads		26		/* Number of heads for int13h (WORD) */
 348:../libdaisy/Middlewares/Third_Party/FatFs/src/ff.c **** #define BPB_HiddSec			28		/* Volume offset from top of the drive (DWORD) */
 349:../libdaisy/Middlewares/Third_Party/FatFs/src/ff.c **** #define BPB_TotSec32		32		/* Volume size (32-bit) [sector] (DWORD) */
 350:../libdaisy/Middlewares/Third_Party/FatFs/src/ff.c **** #define BS_DrvNum			36		/* Physical drive number for int13h (BYTE) */
 351:../libdaisy/Middlewares/Third_Party/FatFs/src/ff.c **** #define BS_NTres			37		/* Error flag (BYTE) */
 352:../libdaisy/Middlewares/Third_Party/FatFs/src/ff.c **** #define BS_BootSig			38		/* Extended boot signature (BYTE) */
 353:../libdaisy/Middlewares/Third_Party/FatFs/src/ff.c **** #define BS_VolID			39		/* Volume serial number (DWORD) */
 354:../libdaisy/Middlewares/Third_Party/FatFs/src/ff.c **** #define BS_VolLab			43		/* Volume label string (8-byte) */
 355:../libdaisy/Middlewares/Third_Party/FatFs/src/ff.c **** #define BS_FilSysType		54		/* File system type string (8-byte) */
 356:../libdaisy/Middlewares/Third_Party/FatFs/src/ff.c **** #define BS_BootCode			62		/* Boot code (448-byte) */
 357:../libdaisy/Middlewares/Third_Party/FatFs/src/ff.c **** #define BS_55AA				510		/* Signature word (WORD) */
 358:../libdaisy/Middlewares/Third_Party/FatFs/src/ff.c **** 
 359:../libdaisy/Middlewares/Third_Party/FatFs/src/ff.c **** #define BPB_FATSz32			36		/* FAT32: FAT size [sector] (DWORD) */
 360:../libdaisy/Middlewares/Third_Party/FatFs/src/ff.c **** #define BPB_ExtFlags32		40		/* FAT32: Extended flags (WORD) */
 361:../libdaisy/Middlewares/Third_Party/FatFs/src/ff.c **** #define BPB_FSVer32			42		/* FAT32: File system version (WORD) */
 362:../libdaisy/Middlewares/Third_Party/FatFs/src/ff.c **** #define BPB_RootClus32		44		/* FAT32: Root directory cluster (DWORD) */
 363:../libdaisy/Middlewares/Third_Party/FatFs/src/ff.c **** #define BPB_FSInfo32		48		/* FAT32: Offset of FSINFO sector (WORD) */
 364:../libdaisy/Middlewares/Third_Party/FatFs/src/ff.c **** #define BPB_BkBootSec32		50		/* FAT32: Offset of backup boot sector (WORD) */
 365:../libdaisy/Middlewares/Third_Party/FatFs/src/ff.c **** #define BS_DrvNum32			64		/* FAT32: Physical drive number for int13h (BYTE) */
 366:../libdaisy/Middlewares/Third_Party/FatFs/src/ff.c **** #define BS_NTres32			65		/* FAT32: Error flag (BYTE) */
 367:../libdaisy/Middlewares/Third_Party/FatFs/src/ff.c **** #define BS_BootSig32		66		/* FAT32: Extended boot signature (BYTE) */
 368:../libdaisy/Middlewares/Third_Party/FatFs/src/ff.c **** #define BS_VolID32			67		/* FAT32: Volume serial number (DWORD) */
 369:../libdaisy/Middlewares/Third_Party/FatFs/src/ff.c **** #define BS_VolLab32			71		/* FAT32: Volume label string (8-byte) */
 370:../libdaisy/Middlewares/Third_Party/FatFs/src/ff.c **** #define BS_FilSysType32		82		/* FAT32: File system type string (8-byte) */
 371:../libdaisy/Middlewares/Third_Party/FatFs/src/ff.c **** #define BS_BootCode32		90		/* FAT32: Boot code (420-byte) */
 372:../libdaisy/Middlewares/Third_Party/FatFs/src/ff.c **** 
ARM GAS  /var/folders/0d/2ntwfkp1791d52chq7d_xwdm0000gn/T//ccOVjVrq.s 			page 8


 373:../libdaisy/Middlewares/Third_Party/FatFs/src/ff.c **** #define BPB_ZeroedEx		11		/* exFAT: MBZ field (53-byte) */
 374:../libdaisy/Middlewares/Third_Party/FatFs/src/ff.c **** #define BPB_VolOfsEx		64		/* exFAT: Volume offset from top of the drive [sector] (QWORD) */
 375:../libdaisy/Middlewares/Third_Party/FatFs/src/ff.c **** #define BPB_TotSecEx		72		/* exFAT: Volume size [sector] (QWORD) */
 376:../libdaisy/Middlewares/Third_Party/FatFs/src/ff.c **** #define BPB_FatOfsEx		80		/* exFAT: FAT offset from top of the volume [sector] (DWORD) */
 377:../libdaisy/Middlewares/Third_Party/FatFs/src/ff.c **** #define BPB_FatSzEx			84		/* exFAT: FAT size [sector] (DWORD) */
 378:../libdaisy/Middlewares/Third_Party/FatFs/src/ff.c **** #define BPB_DataOfsEx		88		/* exFAT: Data offset from top of the volume [sector] (DWORD) */
 379:../libdaisy/Middlewares/Third_Party/FatFs/src/ff.c **** #define BPB_NumClusEx		92		/* exFAT: Number of clusters (DWORD) */
 380:../libdaisy/Middlewares/Third_Party/FatFs/src/ff.c **** #define BPB_RootClusEx		96		/* exFAT: Root directory start cluster (DWORD) */
 381:../libdaisy/Middlewares/Third_Party/FatFs/src/ff.c **** #define BPB_VolIDEx			100		/* exFAT: Volume serial number (DWORD) */
 382:../libdaisy/Middlewares/Third_Party/FatFs/src/ff.c **** #define BPB_FSVerEx			104		/* exFAT: File system version (WORD) */
 383:../libdaisy/Middlewares/Third_Party/FatFs/src/ff.c **** #define BPB_VolFlagEx		106		/* exFAT: Volume flags (BYTE) */
 384:../libdaisy/Middlewares/Third_Party/FatFs/src/ff.c **** #define BPB_ActFatEx		107		/* exFAT: Active FAT flags (BYTE) */
 385:../libdaisy/Middlewares/Third_Party/FatFs/src/ff.c **** #define BPB_BytsPerSecEx	108		/* exFAT: Log2 of sector size in unit of byte (BYTE) */
 386:../libdaisy/Middlewares/Third_Party/FatFs/src/ff.c **** #define BPB_SecPerClusEx	109		/* exFAT: Log2 of cluster size in unit of sector (BYTE) */
 387:../libdaisy/Middlewares/Third_Party/FatFs/src/ff.c **** #define BPB_NumFATsEx		110		/* exFAT: Number of FATs (BYTE) */
 388:../libdaisy/Middlewares/Third_Party/FatFs/src/ff.c **** #define BPB_DrvNumEx		111		/* exFAT: Physical drive number for int13h (BYTE) */
 389:../libdaisy/Middlewares/Third_Party/FatFs/src/ff.c **** #define BPB_PercInUseEx		112		/* exFAT: Percent in use (BYTE) */
 390:../libdaisy/Middlewares/Third_Party/FatFs/src/ff.c **** #define	BPB_RsvdEx			113		/* exFAT: Reserved (7-byte) */
 391:../libdaisy/Middlewares/Third_Party/FatFs/src/ff.c **** #define BS_BootCodeEx		120		/* exFAT: Boot code (390-byte) */
 392:../libdaisy/Middlewares/Third_Party/FatFs/src/ff.c **** 
 393:../libdaisy/Middlewares/Third_Party/FatFs/src/ff.c **** #define	DIR_Name			0		/* Short file name (11-byte) */
 394:../libdaisy/Middlewares/Third_Party/FatFs/src/ff.c **** #define	DIR_Attr			11		/* Attribute (BYTE) */
 395:../libdaisy/Middlewares/Third_Party/FatFs/src/ff.c **** #define	DIR_NTres			12		/* Lower case flag (BYTE) */
 396:../libdaisy/Middlewares/Third_Party/FatFs/src/ff.c **** #define DIR_CrtTime10		13		/* Created time sub-second (BYTE) */
 397:../libdaisy/Middlewares/Third_Party/FatFs/src/ff.c **** #define	DIR_CrtTime			14		/* Created time (DWORD) */
 398:../libdaisy/Middlewares/Third_Party/FatFs/src/ff.c **** #define DIR_LstAccDate		18		/* Last accessed date (WORD) */
 399:../libdaisy/Middlewares/Third_Party/FatFs/src/ff.c **** #define	DIR_FstClusHI		20		/* Higher 16-bit of first cluster (WORD) */
 400:../libdaisy/Middlewares/Third_Party/FatFs/src/ff.c **** #define	DIR_ModTime			22		/* Modified time (DWORD) */
 401:../libdaisy/Middlewares/Third_Party/FatFs/src/ff.c **** #define	DIR_FstClusLO		26		/* Lower 16-bit of first cluster (WORD) */
 402:../libdaisy/Middlewares/Third_Party/FatFs/src/ff.c **** #define	DIR_FileSize		28		/* File size (DWORD) */
 403:../libdaisy/Middlewares/Third_Party/FatFs/src/ff.c **** #define	LDIR_Ord			0		/* LFN: LFN order and LLE flag (BYTE) */
 404:../libdaisy/Middlewares/Third_Party/FatFs/src/ff.c **** #define	LDIR_Attr			11		/* LFN: LFN attribute (BYTE) */
 405:../libdaisy/Middlewares/Third_Party/FatFs/src/ff.c **** #define	LDIR_Type			12		/* LFN: Entry type (BYTE) */
 406:../libdaisy/Middlewares/Third_Party/FatFs/src/ff.c **** #define	LDIR_Chksum			13		/* LFN: Checksum of the SFN (BYTE) */
 407:../libdaisy/Middlewares/Third_Party/FatFs/src/ff.c **** #define	LDIR_FstClusLO		26		/* LFN: MBZ field (WORD) */
 408:../libdaisy/Middlewares/Third_Party/FatFs/src/ff.c **** #define	XDIR_Type			0		/* exFAT: Type of exFAT directory entry (BYTE) */
 409:../libdaisy/Middlewares/Third_Party/FatFs/src/ff.c **** #define	XDIR_NumLabel		1		/* exFAT: Number of volume label characters (BYTE) */
 410:../libdaisy/Middlewares/Third_Party/FatFs/src/ff.c **** #define	XDIR_Label			2		/* exFAT: Volume label (11-WORD) */
 411:../libdaisy/Middlewares/Third_Party/FatFs/src/ff.c **** #define	XDIR_CaseSum		4		/* exFAT: Sum of case conversion table (DWORD) */
 412:../libdaisy/Middlewares/Third_Party/FatFs/src/ff.c **** #define	XDIR_NumSec			1		/* exFAT: Number of secondary entries (BYTE) */
 413:../libdaisy/Middlewares/Third_Party/FatFs/src/ff.c **** #define	XDIR_SetSum			2		/* exFAT: Sum of the set of directory entries (WORD) */
 414:../libdaisy/Middlewares/Third_Party/FatFs/src/ff.c **** #define	XDIR_Attr			4		/* exFAT: File attribute (WORD) */
 415:../libdaisy/Middlewares/Third_Party/FatFs/src/ff.c **** #define	XDIR_CrtTime		8		/* exFAT: Created time (DWORD) */
 416:../libdaisy/Middlewares/Third_Party/FatFs/src/ff.c **** #define	XDIR_ModTime		12		/* exFAT: Modified time (DWORD) */
 417:../libdaisy/Middlewares/Third_Party/FatFs/src/ff.c **** #define	XDIR_AccTime		16		/* exFAT: Last accessed time (DWORD) */
 418:../libdaisy/Middlewares/Third_Party/FatFs/src/ff.c **** #define	XDIR_CrtTime10		20		/* exFAT: Created time subsecond (BYTE) */
 419:../libdaisy/Middlewares/Third_Party/FatFs/src/ff.c **** #define	XDIR_ModTime10		21		/* exFAT: Modified time subsecond (BYTE) */
 420:../libdaisy/Middlewares/Third_Party/FatFs/src/ff.c **** #define	XDIR_CrtTZ			22		/* exFAT: Created timezone (BYTE) */
 421:../libdaisy/Middlewares/Third_Party/FatFs/src/ff.c **** #define	XDIR_ModTZ			23		/* exFAT: Modified timezone (BYTE) */
 422:../libdaisy/Middlewares/Third_Party/FatFs/src/ff.c **** #define	XDIR_AccTZ			24		/* exFAT: Last accessed timezone (BYTE) */
 423:../libdaisy/Middlewares/Third_Party/FatFs/src/ff.c **** #define	XDIR_GenFlags		33		/* exFAT: General secondary flags (WORD) */
 424:../libdaisy/Middlewares/Third_Party/FatFs/src/ff.c **** #define	XDIR_NumName		35		/* exFAT: Number of file name characters (BYTE) */
 425:../libdaisy/Middlewares/Third_Party/FatFs/src/ff.c **** #define	XDIR_NameHash		36		/* exFAT: Hash of file name (WORD) */
 426:../libdaisy/Middlewares/Third_Party/FatFs/src/ff.c **** #define XDIR_ValidFileSize	40		/* exFAT: Valid file size (QWORD) */
 427:../libdaisy/Middlewares/Third_Party/FatFs/src/ff.c **** #define	XDIR_FstClus		52		/* exFAT: First cluster of the file data (DWORD) */
 428:../libdaisy/Middlewares/Third_Party/FatFs/src/ff.c **** #define	XDIR_FileSize		56		/* exFAT: File/Directory size (QWORD) */
 429:../libdaisy/Middlewares/Third_Party/FatFs/src/ff.c **** 
ARM GAS  /var/folders/0d/2ntwfkp1791d52chq7d_xwdm0000gn/T//ccOVjVrq.s 			page 9


 430:../libdaisy/Middlewares/Third_Party/FatFs/src/ff.c **** #define	SZDIRE				32		/* Size of a directory entry */
 431:../libdaisy/Middlewares/Third_Party/FatFs/src/ff.c **** #define	DDEM				0xE5	/* Deleted directory entry mark set to DIR_Name[0] */
 432:../libdaisy/Middlewares/Third_Party/FatFs/src/ff.c **** #define	RDDEM				0x05	/* Replacement of the character collides with DDEM */
 433:../libdaisy/Middlewares/Third_Party/FatFs/src/ff.c **** #define	LLEF				0x40	/* Last long entry flag in LDIR_Ord */
 434:../libdaisy/Middlewares/Third_Party/FatFs/src/ff.c **** 
 435:../libdaisy/Middlewares/Third_Party/FatFs/src/ff.c **** #define	FSI_LeadSig			0		/* FAT32 FSI: Leading signature (DWORD) */
 436:../libdaisy/Middlewares/Third_Party/FatFs/src/ff.c **** #define	FSI_StrucSig		484		/* FAT32 FSI: Structure signature (DWORD) */
 437:../libdaisy/Middlewares/Third_Party/FatFs/src/ff.c **** #define	FSI_Free_Count		488		/* FAT32 FSI: Number of free clusters (DWORD) */
 438:../libdaisy/Middlewares/Third_Party/FatFs/src/ff.c **** #define	FSI_Nxt_Free		492		/* FAT32 FSI: Last allocated cluster (DWORD) */
 439:../libdaisy/Middlewares/Third_Party/FatFs/src/ff.c **** 
 440:../libdaisy/Middlewares/Third_Party/FatFs/src/ff.c **** #define MBR_Table			446		/* MBR: Offset of partition table in the MBR */
 441:../libdaisy/Middlewares/Third_Party/FatFs/src/ff.c **** #define	SZ_PTE				16		/* MBR: Size of a partition table entry */
 442:../libdaisy/Middlewares/Third_Party/FatFs/src/ff.c **** #define PTE_Boot			0		/* MBR PTE: Boot indicator */
 443:../libdaisy/Middlewares/Third_Party/FatFs/src/ff.c **** #define PTE_StHead			1		/* MBR PTE: Start head */
 444:../libdaisy/Middlewares/Third_Party/FatFs/src/ff.c **** #define PTE_StSec			2		/* MBR PTE: Start sector */
 445:../libdaisy/Middlewares/Third_Party/FatFs/src/ff.c **** #define PTE_StCyl			3		/* MBR PTE: Start cylinder */
 446:../libdaisy/Middlewares/Third_Party/FatFs/src/ff.c **** #define PTE_System			4		/* MBR PTE: System ID */
 447:../libdaisy/Middlewares/Third_Party/FatFs/src/ff.c **** #define PTE_EdHead			5		/* MBR PTE: End head */
 448:../libdaisy/Middlewares/Third_Party/FatFs/src/ff.c **** #define PTE_EdSec			6		/* MBR PTE: End sector */
 449:../libdaisy/Middlewares/Third_Party/FatFs/src/ff.c **** #define PTE_EdCyl			7		/* MBR PTE: End cylinder */
 450:../libdaisy/Middlewares/Third_Party/FatFs/src/ff.c **** #define PTE_StLba			8		/* MBR PTE: Start in LBA */
 451:../libdaisy/Middlewares/Third_Party/FatFs/src/ff.c **** #define PTE_SizLba			12		/* MBR PTE: Size in LBA */
 452:../libdaisy/Middlewares/Third_Party/FatFs/src/ff.c **** 
 453:../libdaisy/Middlewares/Third_Party/FatFs/src/ff.c **** 
 454:../libdaisy/Middlewares/Third_Party/FatFs/src/ff.c **** /* Post process after fatal error on file operation */
 455:../libdaisy/Middlewares/Third_Party/FatFs/src/ff.c **** #define	ABORT(fs, res)		{ fp->err = (BYTE)(res); LEAVE_FF(fs, res); }
 456:../libdaisy/Middlewares/Third_Party/FatFs/src/ff.c **** 
 457:../libdaisy/Middlewares/Third_Party/FatFs/src/ff.c **** 
 458:../libdaisy/Middlewares/Third_Party/FatFs/src/ff.c **** /* Reentrancy related */
 459:../libdaisy/Middlewares/Third_Party/FatFs/src/ff.c **** #if _FS_REENTRANT
 460:../libdaisy/Middlewares/Third_Party/FatFs/src/ff.c **** #if _USE_LFN == 1
 461:../libdaisy/Middlewares/Third_Party/FatFs/src/ff.c **** #error Static LFN work area cannot be used at thread-safe configuration
 462:../libdaisy/Middlewares/Third_Party/FatFs/src/ff.c **** #endif
 463:../libdaisy/Middlewares/Third_Party/FatFs/src/ff.c **** #define	ENTER_FF(fs)		{ if (!lock_fs(fs)) return FR_TIMEOUT; }
 464:../libdaisy/Middlewares/Third_Party/FatFs/src/ff.c **** #define	LEAVE_FF(fs, res)	{ unlock_fs(fs, res); return res; }
 465:../libdaisy/Middlewares/Third_Party/FatFs/src/ff.c **** #else
 466:../libdaisy/Middlewares/Third_Party/FatFs/src/ff.c **** #define	ENTER_FF(fs)
 467:../libdaisy/Middlewares/Third_Party/FatFs/src/ff.c **** #define LEAVE_FF(fs, res)	return res
 468:../libdaisy/Middlewares/Third_Party/FatFs/src/ff.c **** #endif
 469:../libdaisy/Middlewares/Third_Party/FatFs/src/ff.c **** 
 470:../libdaisy/Middlewares/Third_Party/FatFs/src/ff.c **** 
 471:../libdaisy/Middlewares/Third_Party/FatFs/src/ff.c **** /* Definitions of volume - partition conversion */
 472:../libdaisy/Middlewares/Third_Party/FatFs/src/ff.c **** #if _MULTI_PARTITION
 473:../libdaisy/Middlewares/Third_Party/FatFs/src/ff.c **** #define LD2PD(vol) VolToPart[vol].pd	/* Get physical drive number */
 474:../libdaisy/Middlewares/Third_Party/FatFs/src/ff.c **** #define LD2PT(vol) VolToPart[vol].pt	/* Get partition index */
 475:../libdaisy/Middlewares/Third_Party/FatFs/src/ff.c **** #else
 476:../libdaisy/Middlewares/Third_Party/FatFs/src/ff.c **** #define LD2PD(vol) (BYTE)(vol)	/* Each logical drive is bound to the same physical drive number */
 477:../libdaisy/Middlewares/Third_Party/FatFs/src/ff.c **** #define LD2PT(vol) 0			/* Find first valid partition or in SFD */
 478:../libdaisy/Middlewares/Third_Party/FatFs/src/ff.c **** #endif
 479:../libdaisy/Middlewares/Third_Party/FatFs/src/ff.c **** 
 480:../libdaisy/Middlewares/Third_Party/FatFs/src/ff.c **** 
 481:../libdaisy/Middlewares/Third_Party/FatFs/src/ff.c **** /* Definitions of sector size */
 482:../libdaisy/Middlewares/Third_Party/FatFs/src/ff.c **** #if (_MAX_SS < _MIN_SS) || (_MAX_SS != 512 && _MAX_SS != 1024 && _MAX_SS != 2048 && _MAX_SS != 4096
 483:../libdaisy/Middlewares/Third_Party/FatFs/src/ff.c **** #error Wrong sector size configuration
 484:../libdaisy/Middlewares/Third_Party/FatFs/src/ff.c **** #endif
 485:../libdaisy/Middlewares/Third_Party/FatFs/src/ff.c **** #if _MAX_SS == _MIN_SS
 486:../libdaisy/Middlewares/Third_Party/FatFs/src/ff.c **** #define	SS(fs)	((UINT)_MAX_SS)	/* Fixed sector size */
ARM GAS  /var/folders/0d/2ntwfkp1791d52chq7d_xwdm0000gn/T//ccOVjVrq.s 			page 10


 487:../libdaisy/Middlewares/Third_Party/FatFs/src/ff.c **** #else
 488:../libdaisy/Middlewares/Third_Party/FatFs/src/ff.c **** #define	SS(fs)	((fs)->ssize)	/* Variable sector size */
 489:../libdaisy/Middlewares/Third_Party/FatFs/src/ff.c **** #endif
 490:../libdaisy/Middlewares/Third_Party/FatFs/src/ff.c **** 
 491:../libdaisy/Middlewares/Third_Party/FatFs/src/ff.c **** 
 492:../libdaisy/Middlewares/Third_Party/FatFs/src/ff.c **** /* Timestamp */
 493:../libdaisy/Middlewares/Third_Party/FatFs/src/ff.c **** #if _FS_NORTC == 1
 494:../libdaisy/Middlewares/Third_Party/FatFs/src/ff.c **** #if _NORTC_YEAR < 1980 || _NORTC_YEAR > 2107 || _NORTC_MON < 1 || _NORTC_MON > 12 || _NORTC_MDAY < 
 495:../libdaisy/Middlewares/Third_Party/FatFs/src/ff.c **** #error Invalid _FS_NORTC settings
 496:../libdaisy/Middlewares/Third_Party/FatFs/src/ff.c **** #endif
 497:../libdaisy/Middlewares/Third_Party/FatFs/src/ff.c **** #define GET_FATTIME()	((DWORD)(_NORTC_YEAR - 1980) << 25 | (DWORD)_NORTC_MON << 21 | (DWORD)_NORTC_
 498:../libdaisy/Middlewares/Third_Party/FatFs/src/ff.c **** #else
 499:../libdaisy/Middlewares/Third_Party/FatFs/src/ff.c **** #define GET_FATTIME()	get_fattime()
 500:../libdaisy/Middlewares/Third_Party/FatFs/src/ff.c **** #endif
 501:../libdaisy/Middlewares/Third_Party/FatFs/src/ff.c **** 
 502:../libdaisy/Middlewares/Third_Party/FatFs/src/ff.c **** 
 503:../libdaisy/Middlewares/Third_Party/FatFs/src/ff.c **** /* File lock controls */
 504:../libdaisy/Middlewares/Third_Party/FatFs/src/ff.c **** #if _FS_LOCK != 0
 505:../libdaisy/Middlewares/Third_Party/FatFs/src/ff.c **** #if _FS_READONLY
 506:../libdaisy/Middlewares/Third_Party/FatFs/src/ff.c **** #error _FS_LOCK must be 0 at read-only configuration
 507:../libdaisy/Middlewares/Third_Party/FatFs/src/ff.c **** #endif
 508:../libdaisy/Middlewares/Third_Party/FatFs/src/ff.c **** typedef struct {
 509:../libdaisy/Middlewares/Third_Party/FatFs/src/ff.c **** 	FATFS *fs;		/* Object ID 1, volume (NULL:blank entry) */
 510:../libdaisy/Middlewares/Third_Party/FatFs/src/ff.c **** 	DWORD clu;		/* Object ID 2, containing directory (0:root) */
 511:../libdaisy/Middlewares/Third_Party/FatFs/src/ff.c **** 	DWORD ofs;		/* Object ID 3, offset in the directory */
 512:../libdaisy/Middlewares/Third_Party/FatFs/src/ff.c **** 	WORD ctr;		/* Object open counter, 0:none, 0x01..0xFF:read mode open count, 0x100:write mode */
 513:../libdaisy/Middlewares/Third_Party/FatFs/src/ff.c **** } FILESEM;
 514:../libdaisy/Middlewares/Third_Party/FatFs/src/ff.c **** #endif
 515:../libdaisy/Middlewares/Third_Party/FatFs/src/ff.c **** 
 516:../libdaisy/Middlewares/Third_Party/FatFs/src/ff.c **** 
 517:../libdaisy/Middlewares/Third_Party/FatFs/src/ff.c **** 
 518:../libdaisy/Middlewares/Third_Party/FatFs/src/ff.c **** 
 519:../libdaisy/Middlewares/Third_Party/FatFs/src/ff.c **** 
 520:../libdaisy/Middlewares/Third_Party/FatFs/src/ff.c **** /*--------------------------------------------------------------------------
 521:../libdaisy/Middlewares/Third_Party/FatFs/src/ff.c **** 
 522:../libdaisy/Middlewares/Third_Party/FatFs/src/ff.c ****    Module Private Work Area
 523:../libdaisy/Middlewares/Third_Party/FatFs/src/ff.c **** 
 524:../libdaisy/Middlewares/Third_Party/FatFs/src/ff.c **** ---------------------------------------------------------------------------*/
 525:../libdaisy/Middlewares/Third_Party/FatFs/src/ff.c **** 
 526:../libdaisy/Middlewares/Third_Party/FatFs/src/ff.c **** /* Remark: Variables defined here without initial value shall be guaranteed
 527:../libdaisy/Middlewares/Third_Party/FatFs/src/ff.c **** /  zero/null at start-up. If not, the linker option or start-up routine is
 528:../libdaisy/Middlewares/Third_Party/FatFs/src/ff.c **** /  not compliance with C standard. */
 529:../libdaisy/Middlewares/Third_Party/FatFs/src/ff.c **** 
 530:../libdaisy/Middlewares/Third_Party/FatFs/src/ff.c **** #if _VOLUMES < 1 || _VOLUMES > 10
 531:../libdaisy/Middlewares/Third_Party/FatFs/src/ff.c **** #error Wrong _VOLUMES setting
 532:../libdaisy/Middlewares/Third_Party/FatFs/src/ff.c **** #endif
 533:../libdaisy/Middlewares/Third_Party/FatFs/src/ff.c **** static FATFS *FatFs[_VOLUMES];	/* Pointer to the file system objects (logical drives) */
 534:../libdaisy/Middlewares/Third_Party/FatFs/src/ff.c **** static WORD Fsid;				/* File system mount ID */
 535:../libdaisy/Middlewares/Third_Party/FatFs/src/ff.c **** 
 536:../libdaisy/Middlewares/Third_Party/FatFs/src/ff.c **** #if _FS_RPATH != 0 && _VOLUMES >= 2
 537:../libdaisy/Middlewares/Third_Party/FatFs/src/ff.c **** static BYTE CurrVol;			/* Current drive */
 538:../libdaisy/Middlewares/Third_Party/FatFs/src/ff.c **** #endif
 539:../libdaisy/Middlewares/Third_Party/FatFs/src/ff.c **** 
 540:../libdaisy/Middlewares/Third_Party/FatFs/src/ff.c **** #if _FS_LOCK != 0
 541:../libdaisy/Middlewares/Third_Party/FatFs/src/ff.c **** static FILESEM Files[_FS_LOCK];	/* Open object lock semaphores */
 542:../libdaisy/Middlewares/Third_Party/FatFs/src/ff.c **** #endif
 543:../libdaisy/Middlewares/Third_Party/FatFs/src/ff.c **** 
ARM GAS  /var/folders/0d/2ntwfkp1791d52chq7d_xwdm0000gn/T//ccOVjVrq.s 			page 11


 544:../libdaisy/Middlewares/Third_Party/FatFs/src/ff.c **** #if _USE_LFN == 0		/* Non-LFN configuration */
 545:../libdaisy/Middlewares/Third_Party/FatFs/src/ff.c **** #define	DEF_NAMBUF
 546:../libdaisy/Middlewares/Third_Party/FatFs/src/ff.c **** #define INIT_NAMBUF(fs)
 547:../libdaisy/Middlewares/Third_Party/FatFs/src/ff.c **** #define	FREE_NAMBUF()
 548:../libdaisy/Middlewares/Third_Party/FatFs/src/ff.c **** 
 549:../libdaisy/Middlewares/Third_Party/FatFs/src/ff.c **** #else					/* LFN configuration */
 550:../libdaisy/Middlewares/Third_Party/FatFs/src/ff.c **** #if _MAX_LFN < 12 || _MAX_LFN > 255
 551:../libdaisy/Middlewares/Third_Party/FatFs/src/ff.c **** #error Wrong _MAX_LFN value
 552:../libdaisy/Middlewares/Third_Party/FatFs/src/ff.c **** #endif
 553:../libdaisy/Middlewares/Third_Party/FatFs/src/ff.c **** #define MAXDIRB(nc)	((nc + 44U) / 15 * SZDIRE)
 554:../libdaisy/Middlewares/Third_Party/FatFs/src/ff.c **** 
 555:../libdaisy/Middlewares/Third_Party/FatFs/src/ff.c **** #if _USE_LFN == 1		/* LFN enabled with static working buffer */
 556:../libdaisy/Middlewares/Third_Party/FatFs/src/ff.c **** #if _FS_EXFAT
 557:../libdaisy/Middlewares/Third_Party/FatFs/src/ff.c **** static BYTE	DirBuf[MAXDIRB(_MAX_LFN)];	/* Directory entry block scratchpad buffer */
 558:../libdaisy/Middlewares/Third_Party/FatFs/src/ff.c **** #endif
 559:../libdaisy/Middlewares/Third_Party/FatFs/src/ff.c **** static WCHAR LfnBuf[_MAX_LFN + 1];	/* LFN enabled with static working buffer */
 560:../libdaisy/Middlewares/Third_Party/FatFs/src/ff.c **** #define	DEF_NAMBUF
 561:../libdaisy/Middlewares/Third_Party/FatFs/src/ff.c **** #define INIT_NAMBUF(fs)
 562:../libdaisy/Middlewares/Third_Party/FatFs/src/ff.c **** #define	FREE_NAMBUF()
 563:../libdaisy/Middlewares/Third_Party/FatFs/src/ff.c **** 
 564:../libdaisy/Middlewares/Third_Party/FatFs/src/ff.c **** #elif _USE_LFN == 2 	/* LFN enabled with dynamic working buffer on the stack */
 565:../libdaisy/Middlewares/Third_Party/FatFs/src/ff.c **** #if _FS_EXFAT
 566:../libdaisy/Middlewares/Third_Party/FatFs/src/ff.c **** #define	DEF_NAMBUF		WCHAR lbuf[_MAX_LFN+1]; BYTE dbuf[MAXDIRB(_MAX_LFN)];
 567:../libdaisy/Middlewares/Third_Party/FatFs/src/ff.c **** #define INIT_NAMBUF(fs)	{ (fs)->lfnbuf = lbuf; (fs)->dirbuf = dbuf; }
 568:../libdaisy/Middlewares/Third_Party/FatFs/src/ff.c **** #define	FREE_NAMBUF()
 569:../libdaisy/Middlewares/Third_Party/FatFs/src/ff.c **** #else
 570:../libdaisy/Middlewares/Third_Party/FatFs/src/ff.c **** #define	DEF_NAMBUF		WCHAR lbuf[_MAX_LFN+1];
 571:../libdaisy/Middlewares/Third_Party/FatFs/src/ff.c **** #define INIT_NAMBUF(fs)	{ (fs)->lfnbuf = lbuf; }
 572:../libdaisy/Middlewares/Third_Party/FatFs/src/ff.c **** #define	FREE_NAMBUF()
 573:../libdaisy/Middlewares/Third_Party/FatFs/src/ff.c **** #endif
 574:../libdaisy/Middlewares/Third_Party/FatFs/src/ff.c **** 
 575:../libdaisy/Middlewares/Third_Party/FatFs/src/ff.c **** #elif _USE_LFN == 3 	/* LFN enabled with dynamic working buffer on the heap */
 576:../libdaisy/Middlewares/Third_Party/FatFs/src/ff.c **** #if _FS_EXFAT
 577:../libdaisy/Middlewares/Third_Party/FatFs/src/ff.c **** #define	DEF_NAMBUF		WCHAR *lfn;
 578:../libdaisy/Middlewares/Third_Party/FatFs/src/ff.c **** #define INIT_NAMBUF(fs)	{ lfn = ff_memalloc((_MAX_LFN+1)*2 + MAXDIRB(_MAX_LFN)); if (!lfn) LEAVE_FF
 579:../libdaisy/Middlewares/Third_Party/FatFs/src/ff.c **** #define	FREE_NAMBUF()	ff_memfree(lfn)
 580:../libdaisy/Middlewares/Third_Party/FatFs/src/ff.c **** #else
 581:../libdaisy/Middlewares/Third_Party/FatFs/src/ff.c **** #define	DEF_NAMBUF		WCHAR *lfn;
 582:../libdaisy/Middlewares/Third_Party/FatFs/src/ff.c **** #define INIT_NAMBUF(fs)	{ lfn = ff_memalloc((_MAX_LFN+1)*2); if (!lfn) LEAVE_FF(fs, FR_NOT_ENOUGH_C
 583:../libdaisy/Middlewares/Third_Party/FatFs/src/ff.c **** #define	FREE_NAMBUF()	ff_memfree(lfn)
 584:../libdaisy/Middlewares/Third_Party/FatFs/src/ff.c **** #endif
 585:../libdaisy/Middlewares/Third_Party/FatFs/src/ff.c **** 
 586:../libdaisy/Middlewares/Third_Party/FatFs/src/ff.c **** #else
 587:../libdaisy/Middlewares/Third_Party/FatFs/src/ff.c **** #error Wrong _USE_LFN setting
 588:../libdaisy/Middlewares/Third_Party/FatFs/src/ff.c **** 
 589:../libdaisy/Middlewares/Third_Party/FatFs/src/ff.c **** #endif
 590:../libdaisy/Middlewares/Third_Party/FatFs/src/ff.c **** #endif	/* else _USE_LFN == 0 */
 591:../libdaisy/Middlewares/Third_Party/FatFs/src/ff.c **** 
 592:../libdaisy/Middlewares/Third_Party/FatFs/src/ff.c **** #ifdef _EXCVT
 593:../libdaisy/Middlewares/Third_Party/FatFs/src/ff.c **** static const BYTE ExCvt[] = _EXCVT;	/* Upper conversion table for SBCS extended characters */
 594:../libdaisy/Middlewares/Third_Party/FatFs/src/ff.c **** #endif
 595:../libdaisy/Middlewares/Third_Party/FatFs/src/ff.c **** 
 596:../libdaisy/Middlewares/Third_Party/FatFs/src/ff.c **** 
 597:../libdaisy/Middlewares/Third_Party/FatFs/src/ff.c **** 
 598:../libdaisy/Middlewares/Third_Party/FatFs/src/ff.c **** 
 599:../libdaisy/Middlewares/Third_Party/FatFs/src/ff.c **** 
 600:../libdaisy/Middlewares/Third_Party/FatFs/src/ff.c **** 
ARM GAS  /var/folders/0d/2ntwfkp1791d52chq7d_xwdm0000gn/T//ccOVjVrq.s 			page 12


 601:../libdaisy/Middlewares/Third_Party/FatFs/src/ff.c **** /*--------------------------------------------------------------------------
 602:../libdaisy/Middlewares/Third_Party/FatFs/src/ff.c **** 
 603:../libdaisy/Middlewares/Third_Party/FatFs/src/ff.c ****    Module Private Functions
 604:../libdaisy/Middlewares/Third_Party/FatFs/src/ff.c **** 
 605:../libdaisy/Middlewares/Third_Party/FatFs/src/ff.c **** ---------------------------------------------------------------------------*/
 606:../libdaisy/Middlewares/Third_Party/FatFs/src/ff.c **** 
 607:../libdaisy/Middlewares/Third_Party/FatFs/src/ff.c **** 
 608:../libdaisy/Middlewares/Third_Party/FatFs/src/ff.c **** /*-----------------------------------------------------------------------*/
 609:../libdaisy/Middlewares/Third_Party/FatFs/src/ff.c **** /* Load/Store multi-byte word in the FAT structure                       */
 610:../libdaisy/Middlewares/Third_Party/FatFs/src/ff.c **** /*-----------------------------------------------------------------------*/
 611:../libdaisy/Middlewares/Third_Party/FatFs/src/ff.c **** 
 612:../libdaisy/Middlewares/Third_Party/FatFs/src/ff.c **** static
 613:../libdaisy/Middlewares/Third_Party/FatFs/src/ff.c **** WORD ld_word (const BYTE* ptr)	/*	 Load a 2-byte little-endian word */
 614:../libdaisy/Middlewares/Third_Party/FatFs/src/ff.c **** {
 615:../libdaisy/Middlewares/Third_Party/FatFs/src/ff.c **** 	WORD rv;
 616:../libdaisy/Middlewares/Third_Party/FatFs/src/ff.c **** 
 617:../libdaisy/Middlewares/Third_Party/FatFs/src/ff.c **** 	rv = ptr[1];
 618:../libdaisy/Middlewares/Third_Party/FatFs/src/ff.c **** 	rv = rv << 8 | ptr[0];
 619:../libdaisy/Middlewares/Third_Party/FatFs/src/ff.c **** 	return rv;
 620:../libdaisy/Middlewares/Third_Party/FatFs/src/ff.c **** }
 621:../libdaisy/Middlewares/Third_Party/FatFs/src/ff.c **** 
 622:../libdaisy/Middlewares/Third_Party/FatFs/src/ff.c **** static
 623:../libdaisy/Middlewares/Third_Party/FatFs/src/ff.c **** DWORD ld_dword (const BYTE* ptr)	/* Load a 4-byte little-endian word */
 624:../libdaisy/Middlewares/Third_Party/FatFs/src/ff.c **** {
 625:../libdaisy/Middlewares/Third_Party/FatFs/src/ff.c **** 	DWORD rv;
 626:../libdaisy/Middlewares/Third_Party/FatFs/src/ff.c **** 
 627:../libdaisy/Middlewares/Third_Party/FatFs/src/ff.c **** 	rv = ptr[3];
 628:../libdaisy/Middlewares/Third_Party/FatFs/src/ff.c **** 	rv = rv << 8 | ptr[2];
 629:../libdaisy/Middlewares/Third_Party/FatFs/src/ff.c **** 	rv = rv << 8 | ptr[1];
 630:../libdaisy/Middlewares/Third_Party/FatFs/src/ff.c **** 	rv = rv << 8 | ptr[0];
 631:../libdaisy/Middlewares/Third_Party/FatFs/src/ff.c **** 	return rv;
 632:../libdaisy/Middlewares/Third_Party/FatFs/src/ff.c **** }
 633:../libdaisy/Middlewares/Third_Party/FatFs/src/ff.c **** 
 634:../libdaisy/Middlewares/Third_Party/FatFs/src/ff.c **** #if _FS_EXFAT
 635:../libdaisy/Middlewares/Third_Party/FatFs/src/ff.c **** static
 636:../libdaisy/Middlewares/Third_Party/FatFs/src/ff.c **** QWORD ld_qword (const BYTE* ptr)	/* Load an 8-byte little-endian word */
 637:../libdaisy/Middlewares/Third_Party/FatFs/src/ff.c **** {
 638:../libdaisy/Middlewares/Third_Party/FatFs/src/ff.c **** 	QWORD rv;
 639:../libdaisy/Middlewares/Third_Party/FatFs/src/ff.c **** 
 640:../libdaisy/Middlewares/Third_Party/FatFs/src/ff.c **** 	rv = ptr[7];
 641:../libdaisy/Middlewares/Third_Party/FatFs/src/ff.c **** 	rv = rv << 8 | ptr[6];
 642:../libdaisy/Middlewares/Third_Party/FatFs/src/ff.c **** 	rv = rv << 8 | ptr[5];
 643:../libdaisy/Middlewares/Third_Party/FatFs/src/ff.c **** 	rv = rv << 8 | ptr[4];
 644:../libdaisy/Middlewares/Third_Party/FatFs/src/ff.c **** 	rv = rv << 8 | ptr[3];
 645:../libdaisy/Middlewares/Third_Party/FatFs/src/ff.c **** 	rv = rv << 8 | ptr[2];
 646:../libdaisy/Middlewares/Third_Party/FatFs/src/ff.c **** 	rv = rv << 8 | ptr[1];
 647:../libdaisy/Middlewares/Third_Party/FatFs/src/ff.c **** 	rv = rv << 8 | ptr[0];
 648:../libdaisy/Middlewares/Third_Party/FatFs/src/ff.c **** 	return rv;
 649:../libdaisy/Middlewares/Third_Party/FatFs/src/ff.c **** }
 650:../libdaisy/Middlewares/Third_Party/FatFs/src/ff.c **** #endif
 651:../libdaisy/Middlewares/Third_Party/FatFs/src/ff.c **** 
 652:../libdaisy/Middlewares/Third_Party/FatFs/src/ff.c **** #if !_FS_READONLY
 653:../libdaisy/Middlewares/Third_Party/FatFs/src/ff.c **** static
 654:../libdaisy/Middlewares/Third_Party/FatFs/src/ff.c **** void st_word (BYTE* ptr, WORD val)	/* Store a 2-byte word in little-endian */
 655:../libdaisy/Middlewares/Third_Party/FatFs/src/ff.c **** {
 656:../libdaisy/Middlewares/Third_Party/FatFs/src/ff.c **** 	*ptr++ = (BYTE)val; val >>= 8;
 657:../libdaisy/Middlewares/Third_Party/FatFs/src/ff.c **** 	*ptr++ = (BYTE)val;
ARM GAS  /var/folders/0d/2ntwfkp1791d52chq7d_xwdm0000gn/T//ccOVjVrq.s 			page 13


 658:../libdaisy/Middlewares/Third_Party/FatFs/src/ff.c **** }
 659:../libdaisy/Middlewares/Third_Party/FatFs/src/ff.c **** 
 660:../libdaisy/Middlewares/Third_Party/FatFs/src/ff.c **** static
 661:../libdaisy/Middlewares/Third_Party/FatFs/src/ff.c **** void st_dword (BYTE* ptr, DWORD val)	/* Store a 4-byte word in little-endian */
 662:../libdaisy/Middlewares/Third_Party/FatFs/src/ff.c **** {
 663:../libdaisy/Middlewares/Third_Party/FatFs/src/ff.c **** 	*ptr++ = (BYTE)val; val >>= 8;
 664:../libdaisy/Middlewares/Third_Party/FatFs/src/ff.c **** 	*ptr++ = (BYTE)val; val >>= 8;
 665:../libdaisy/Middlewares/Third_Party/FatFs/src/ff.c **** 	*ptr++ = (BYTE)val; val >>= 8;
 666:../libdaisy/Middlewares/Third_Party/FatFs/src/ff.c **** 	*ptr++ = (BYTE)val;
 667:../libdaisy/Middlewares/Third_Party/FatFs/src/ff.c **** }
 668:../libdaisy/Middlewares/Third_Party/FatFs/src/ff.c **** 
 669:../libdaisy/Middlewares/Third_Party/FatFs/src/ff.c **** #if _FS_EXFAT
 670:../libdaisy/Middlewares/Third_Party/FatFs/src/ff.c **** static
 671:../libdaisy/Middlewares/Third_Party/FatFs/src/ff.c **** void st_qword (BYTE* ptr, QWORD val)	/* Store an 8-byte word in little-endian */
 672:../libdaisy/Middlewares/Third_Party/FatFs/src/ff.c **** {
 673:../libdaisy/Middlewares/Third_Party/FatFs/src/ff.c **** 	*ptr++ = (BYTE)val; val >>= 8;
 674:../libdaisy/Middlewares/Third_Party/FatFs/src/ff.c **** 	*ptr++ = (BYTE)val; val >>= 8;
 675:../libdaisy/Middlewares/Third_Party/FatFs/src/ff.c **** 	*ptr++ = (BYTE)val; val >>= 8;
 676:../libdaisy/Middlewares/Third_Party/FatFs/src/ff.c **** 	*ptr++ = (BYTE)val; val >>= 8;
 677:../libdaisy/Middlewares/Third_Party/FatFs/src/ff.c **** 	*ptr++ = (BYTE)val; val >>= 8;
 678:../libdaisy/Middlewares/Third_Party/FatFs/src/ff.c **** 	*ptr++ = (BYTE)val; val >>= 8;
 679:../libdaisy/Middlewares/Third_Party/FatFs/src/ff.c **** 	*ptr++ = (BYTE)val; val >>= 8;
 680:../libdaisy/Middlewares/Third_Party/FatFs/src/ff.c **** 	*ptr++ = (BYTE)val;
 681:../libdaisy/Middlewares/Third_Party/FatFs/src/ff.c **** }
 682:../libdaisy/Middlewares/Third_Party/FatFs/src/ff.c **** #endif
 683:../libdaisy/Middlewares/Third_Party/FatFs/src/ff.c **** #endif	/* !_FS_READONLY */
 684:../libdaisy/Middlewares/Third_Party/FatFs/src/ff.c **** 
 685:../libdaisy/Middlewares/Third_Party/FatFs/src/ff.c **** 
 686:../libdaisy/Middlewares/Third_Party/FatFs/src/ff.c **** 
 687:../libdaisy/Middlewares/Third_Party/FatFs/src/ff.c **** /*-----------------------------------------------------------------------*/
 688:../libdaisy/Middlewares/Third_Party/FatFs/src/ff.c **** /* String functions                                                      */
 689:../libdaisy/Middlewares/Third_Party/FatFs/src/ff.c **** /*-----------------------------------------------------------------------*/
 690:../libdaisy/Middlewares/Third_Party/FatFs/src/ff.c **** 
 691:../libdaisy/Middlewares/Third_Party/FatFs/src/ff.c **** /* Copy memory to memory */
 692:../libdaisy/Middlewares/Third_Party/FatFs/src/ff.c **** static
 693:../libdaisy/Middlewares/Third_Party/FatFs/src/ff.c **** void mem_cpy (void* dst, const void* src, UINT cnt) {
 694:../libdaisy/Middlewares/Third_Party/FatFs/src/ff.c **** 	BYTE *d = (BYTE*)dst;
 695:../libdaisy/Middlewares/Third_Party/FatFs/src/ff.c **** 	const BYTE *s = (const BYTE*)src;
 696:../libdaisy/Middlewares/Third_Party/FatFs/src/ff.c **** 
 697:../libdaisy/Middlewares/Third_Party/FatFs/src/ff.c **** 	if (cnt) {
 698:../libdaisy/Middlewares/Third_Party/FatFs/src/ff.c **** 		do {
 699:../libdaisy/Middlewares/Third_Party/FatFs/src/ff.c **** 			*d++ = *s++;
 700:../libdaisy/Middlewares/Third_Party/FatFs/src/ff.c **** 		} while (--cnt);
 701:../libdaisy/Middlewares/Third_Party/FatFs/src/ff.c **** 	}
 702:../libdaisy/Middlewares/Third_Party/FatFs/src/ff.c **** }
 703:../libdaisy/Middlewares/Third_Party/FatFs/src/ff.c **** 
 704:../libdaisy/Middlewares/Third_Party/FatFs/src/ff.c **** /* Fill memory block */
 705:../libdaisy/Middlewares/Third_Party/FatFs/src/ff.c **** static
 706:../libdaisy/Middlewares/Third_Party/FatFs/src/ff.c **** void mem_set (void* dst, int val, UINT cnt) {
 707:../libdaisy/Middlewares/Third_Party/FatFs/src/ff.c **** 	BYTE *d = (BYTE*)dst;
 708:../libdaisy/Middlewares/Third_Party/FatFs/src/ff.c **** 
 709:../libdaisy/Middlewares/Third_Party/FatFs/src/ff.c **** 	do {
 710:../libdaisy/Middlewares/Third_Party/FatFs/src/ff.c **** 		*d++ = (BYTE)val;
 711:../libdaisy/Middlewares/Third_Party/FatFs/src/ff.c **** 	} while (--cnt);
 712:../libdaisy/Middlewares/Third_Party/FatFs/src/ff.c **** }
 713:../libdaisy/Middlewares/Third_Party/FatFs/src/ff.c **** 
 714:../libdaisy/Middlewares/Third_Party/FatFs/src/ff.c **** /* Compare memory block */
ARM GAS  /var/folders/0d/2ntwfkp1791d52chq7d_xwdm0000gn/T//ccOVjVrq.s 			page 14


 715:../libdaisy/Middlewares/Third_Party/FatFs/src/ff.c **** static
 716:../libdaisy/Middlewares/Third_Party/FatFs/src/ff.c **** int mem_cmp (const void* dst, const void* src, UINT cnt) {	/* ZR:same, NZ:different */
 717:../libdaisy/Middlewares/Third_Party/FatFs/src/ff.c **** 	const BYTE *d = (const BYTE *)dst, *s = (const BYTE *)src;
 718:../libdaisy/Middlewares/Third_Party/FatFs/src/ff.c **** 	int r = 0;
 719:../libdaisy/Middlewares/Third_Party/FatFs/src/ff.c **** 
 720:../libdaisy/Middlewares/Third_Party/FatFs/src/ff.c **** 	do {
 721:../libdaisy/Middlewares/Third_Party/FatFs/src/ff.c **** 		r = *d++ - *s++;
 722:../libdaisy/Middlewares/Third_Party/FatFs/src/ff.c **** 	} while (--cnt && r == 0);
 723:../libdaisy/Middlewares/Third_Party/FatFs/src/ff.c **** 
 724:../libdaisy/Middlewares/Third_Party/FatFs/src/ff.c **** 	return r;
 725:../libdaisy/Middlewares/Third_Party/FatFs/src/ff.c **** }
 726:../libdaisy/Middlewares/Third_Party/FatFs/src/ff.c **** 
 727:../libdaisy/Middlewares/Third_Party/FatFs/src/ff.c **** /* Check if chr is contained in the string */
 728:../libdaisy/Middlewares/Third_Party/FatFs/src/ff.c **** static
 729:../libdaisy/Middlewares/Third_Party/FatFs/src/ff.c **** int chk_chr (const char* str, int chr) {	/* NZ:contained, ZR:not contained */
 730:../libdaisy/Middlewares/Third_Party/FatFs/src/ff.c **** 	while (*str && *str != chr) str++;
 731:../libdaisy/Middlewares/Third_Party/FatFs/src/ff.c **** 	return *str;
 732:../libdaisy/Middlewares/Third_Party/FatFs/src/ff.c **** }
 733:../libdaisy/Middlewares/Third_Party/FatFs/src/ff.c **** 
 734:../libdaisy/Middlewares/Third_Party/FatFs/src/ff.c **** 
 735:../libdaisy/Middlewares/Third_Party/FatFs/src/ff.c **** 
 736:../libdaisy/Middlewares/Third_Party/FatFs/src/ff.c **** 
 737:../libdaisy/Middlewares/Third_Party/FatFs/src/ff.c **** #if _FS_REENTRANT
 738:../libdaisy/Middlewares/Third_Party/FatFs/src/ff.c **** /*-----------------------------------------------------------------------*/
 739:../libdaisy/Middlewares/Third_Party/FatFs/src/ff.c **** /* Request/Release grant to access the volume                            */
 740:../libdaisy/Middlewares/Third_Party/FatFs/src/ff.c **** /*-----------------------------------------------------------------------*/
 741:../libdaisy/Middlewares/Third_Party/FatFs/src/ff.c **** static
 742:../libdaisy/Middlewares/Third_Party/FatFs/src/ff.c **** int lock_fs (
 743:../libdaisy/Middlewares/Third_Party/FatFs/src/ff.c **** 	FATFS* fs		/* File system object */
 744:../libdaisy/Middlewares/Third_Party/FatFs/src/ff.c **** )
 745:../libdaisy/Middlewares/Third_Party/FatFs/src/ff.c **** {
 746:../libdaisy/Middlewares/Third_Party/FatFs/src/ff.c **** 	return (fs && ff_req_grant(fs->sobj)) ? 1 : 0;
 747:../libdaisy/Middlewares/Third_Party/FatFs/src/ff.c **** }
 748:../libdaisy/Middlewares/Third_Party/FatFs/src/ff.c **** 
 749:../libdaisy/Middlewares/Third_Party/FatFs/src/ff.c **** 
 750:../libdaisy/Middlewares/Third_Party/FatFs/src/ff.c **** static
 751:../libdaisy/Middlewares/Third_Party/FatFs/src/ff.c **** void unlock_fs (
 752:../libdaisy/Middlewares/Third_Party/FatFs/src/ff.c **** 	FATFS* fs,		/* File system object */
 753:../libdaisy/Middlewares/Third_Party/FatFs/src/ff.c **** 	FRESULT res		/* Result code to be returned */
 754:../libdaisy/Middlewares/Third_Party/FatFs/src/ff.c **** )
 755:../libdaisy/Middlewares/Third_Party/FatFs/src/ff.c **** {
 756:../libdaisy/Middlewares/Third_Party/FatFs/src/ff.c **** 	if (fs && res != FR_NOT_ENABLED && res != FR_INVALID_DRIVE && res != FR_TIMEOUT) {
 757:../libdaisy/Middlewares/Third_Party/FatFs/src/ff.c **** 		ff_rel_grant(fs->sobj);
 758:../libdaisy/Middlewares/Third_Party/FatFs/src/ff.c **** 	}
 759:../libdaisy/Middlewares/Third_Party/FatFs/src/ff.c **** }
 760:../libdaisy/Middlewares/Third_Party/FatFs/src/ff.c **** 
 761:../libdaisy/Middlewares/Third_Party/FatFs/src/ff.c **** #endif
 762:../libdaisy/Middlewares/Third_Party/FatFs/src/ff.c **** 
 763:../libdaisy/Middlewares/Third_Party/FatFs/src/ff.c **** 
 764:../libdaisy/Middlewares/Third_Party/FatFs/src/ff.c **** 
 765:../libdaisy/Middlewares/Third_Party/FatFs/src/ff.c **** #if _FS_LOCK != 0
 766:../libdaisy/Middlewares/Third_Party/FatFs/src/ff.c **** /*-----------------------------------------------------------------------*/
 767:../libdaisy/Middlewares/Third_Party/FatFs/src/ff.c **** /* File lock control functions                                           */
 768:../libdaisy/Middlewares/Third_Party/FatFs/src/ff.c **** /*-----------------------------------------------------------------------*/
 769:../libdaisy/Middlewares/Third_Party/FatFs/src/ff.c **** 
 770:../libdaisy/Middlewares/Third_Party/FatFs/src/ff.c **** static
 771:../libdaisy/Middlewares/Third_Party/FatFs/src/ff.c **** FRESULT chk_lock (	/* Check if the file can be accessed */
ARM GAS  /var/folders/0d/2ntwfkp1791d52chq7d_xwdm0000gn/T//ccOVjVrq.s 			page 15


 772:../libdaisy/Middlewares/Third_Party/FatFs/src/ff.c **** 	DIR* dp,		/* Directory object pointing the file to be checked */
 773:../libdaisy/Middlewares/Third_Party/FatFs/src/ff.c **** 	int acc			/* Desired access type (0:Read, 1:Write, 2:Delete/Rename) */
 774:../libdaisy/Middlewares/Third_Party/FatFs/src/ff.c **** )
 775:../libdaisy/Middlewares/Third_Party/FatFs/src/ff.c **** {
  29              		.loc 1 775 1 view -0
  30              		.cfi_startproc
  31              		@ args = 0, pretend = 0, frame = 0
  32              		@ frame_needed = 0, uses_anonymous_args = 0
  33              		@ link register save eliminated.
 776:../libdaisy/Middlewares/Third_Party/FatFs/src/ff.c **** 	UINT i, be;
  34              		.loc 1 776 2 view .LVU1
 777:../libdaisy/Middlewares/Third_Party/FatFs/src/ff.c **** 
 778:../libdaisy/Middlewares/Third_Party/FatFs/src/ff.c **** 	/* Search file semaphore table */
 779:../libdaisy/Middlewares/Third_Party/FatFs/src/ff.c **** 	for (i = be = 0; i < _FS_LOCK; i++) {
  35              		.loc 1 779 2 view .LVU2
  36              		.loc 1 779 19 view .LVU3
 780:../libdaisy/Middlewares/Third_Party/FatFs/src/ff.c **** 		if (Files[i].fs) {	/* Existing entry */
  37              		.loc 1 780 3 view .LVU4
  38              		.loc 1 780 15 is_stmt 0 view .LVU5
  39 0000 1C4A     		ldr	r2, .L23
  40 0002 1368     		ldr	r3, [r2]
 775:../libdaisy/Middlewares/Third_Party/FatFs/src/ff.c **** 	UINT i, be;
  41              		.loc 1 775 1 view .LVU6
  42 0004 30B4     		push	{r4, r5}
  43              		.cfi_def_cfa_offset 8
  44              		.cfi_offset 4, -8
  45              		.cfi_offset 5, -4
  46              		.loc 1 780 6 view .LVU7
  47 0006 002B     		cmp	r3, #0
  48 0008 32D0     		beq	.L7
 781:../libdaisy/Middlewares/Third_Party/FatFs/src/ff.c **** 			if (Files[i].fs == dp->obj.fs &&	 	/* Check if the object matched with an open object */
  49              		.loc 1 781 4 is_stmt 1 view .LVU8
  50              		.loc 1 781 7 is_stmt 0 view .LVU9
  51 000a 0468     		ldr	r4, [r0]
  52 000c 9C42     		cmp	r4, r3
  53 000e 0ED0     		beq	.L20
  54              	.L9:
 779:../libdaisy/Middlewares/Third_Party/FatFs/src/ff.c **** 		if (Files[i].fs) {	/* Existing entry */
  55              		.loc 1 779 14 view .LVU10
  56 0010 0024     		movs	r4, #0
  57              	.L2:
  58              	.LVL1:
 779:../libdaisy/Middlewares/Third_Party/FatFs/src/ff.c **** 		if (Files[i].fs) {	/* Existing entry */
  59              		.loc 1 779 33 is_stmt 1 view .LVU11
 779:../libdaisy/Middlewares/Third_Party/FatFs/src/ff.c **** 		if (Files[i].fs) {	/* Existing entry */
  60              		.loc 1 779 19 view .LVU12
 780:../libdaisy/Middlewares/Third_Party/FatFs/src/ff.c **** 			if (Files[i].fs == dp->obj.fs &&	 	/* Check if the object matched with an open object */
  61              		.loc 1 780 3 view .LVU13
 780:../libdaisy/Middlewares/Third_Party/FatFs/src/ff.c **** 			if (Files[i].fs == dp->obj.fs &&	 	/* Check if the object matched with an open object */
  62              		.loc 1 780 15 is_stmt 0 view .LVU14
  63 0012 1369     		ldr	r3, [r2, #16]
 780:../libdaisy/Middlewares/Third_Party/FatFs/src/ff.c **** 			if (Files[i].fs == dp->obj.fs &&	 	/* Check if the object matched with an open object */
  64              		.loc 1 780 6 view .LVU15
  65 0014 43B1     		cbz	r3, .L13
  66              		.loc 1 781 4 is_stmt 1 view .LVU16
  67              		.loc 1 781 7 is_stmt 0 view .LVU17
  68 0016 0568     		ldr	r5, [r0]
ARM GAS  /var/folders/0d/2ntwfkp1791d52chq7d_xwdm0000gn/T//ccOVjVrq.s 			page 16


  69 0018 AB42     		cmp	r3, r5
  70 001a 1CD0     		beq	.L21
  71              	.LVL2:
  72              	.L5:
 779:../libdaisy/Middlewares/Third_Party/FatFs/src/ff.c **** 		if (Files[i].fs) {	/* Existing entry */
  73              		.loc 1 779 33 is_stmt 1 discriminator 2 view .LVU18
 779:../libdaisy/Middlewares/Third_Party/FatFs/src/ff.c **** 		if (Files[i].fs) {	/* Existing entry */
  74              		.loc 1 779 19 discriminator 2 view .LVU19
 782:../libdaisy/Middlewares/Third_Party/FatFs/src/ff.c **** 				Files[i].clu == dp->obj.sclust &&
 783:../libdaisy/Middlewares/Third_Party/FatFs/src/ff.c **** 				Files[i].ofs == dp->dptr) break;
 784:../libdaisy/Middlewares/Third_Party/FatFs/src/ff.c **** 		} else {			/* Blank entry */
 785:../libdaisy/Middlewares/Third_Party/FatFs/src/ff.c **** 			be = 1;
 786:../libdaisy/Middlewares/Third_Party/FatFs/src/ff.c **** 		}
 787:../libdaisy/Middlewares/Third_Party/FatFs/src/ff.c **** 	}
 788:../libdaisy/Middlewares/Third_Party/FatFs/src/ff.c **** 	if (i == _FS_LOCK) {	/* The object is not opened */
  75              		.loc 1 788 2 discriminator 2 view .LVU20
 789:../libdaisy/Middlewares/Third_Party/FatFs/src/ff.c **** 		return (be || acc == 2) ? FR_OK : FR_TOO_MANY_OPEN_FILES;	/* Is there a blank entry for new objec
  76              		.loc 1 789 3 discriminator 2 view .LVU21
  77              		.loc 1 789 35 is_stmt 0 discriminator 2 view .LVU22
  78 001c 0229     		cmp	r1, #2
  79 001e 03D0     		beq	.L13
  80 0020 14B9     		cbnz	r4, .L13
  81              		.loc 1 789 35 view .LVU23
  82 0022 1220     		movs	r0, #18
 790:../libdaisy/Middlewares/Third_Party/FatFs/src/ff.c **** 	}
 791:../libdaisy/Middlewares/Third_Party/FatFs/src/ff.c **** 
 792:../libdaisy/Middlewares/Third_Party/FatFs/src/ff.c **** 	/* The object has been opened. Reject any open against writing file and all write mode open */
 793:../libdaisy/Middlewares/Third_Party/FatFs/src/ff.c **** 	return (acc || Files[i].ctr == 0x100) ? FR_LOCKED : FR_OK;
 794:../libdaisy/Middlewares/Third_Party/FatFs/src/ff.c **** }
  83              		.loc 1 794 1 view .LVU24
  84 0024 30BC     		pop	{r4, r5}
  85              		.cfi_remember_state
  86              		.cfi_restore 5
  87              		.cfi_restore 4
  88              		.cfi_def_cfa_offset 0
  89              	.LVL3:
  90              		.loc 1 794 1 view .LVU25
  91 0026 7047     		bx	lr
  92              	.LVL4:
  93              	.L13:
  94              		.cfi_restore_state
 793:../libdaisy/Middlewares/Third_Party/FatFs/src/ff.c **** }
  95              		.loc 1 793 52 view .LVU26
  96 0028 0020     		movs	r0, #0
  97              	.LVL5:
  98              	.L16:
  99              		.loc 1 794 1 view .LVU27
 100 002a 30BC     		pop	{r4, r5}
 101              		.cfi_remember_state
 102              		.cfi_restore 5
 103              		.cfi_restore 4
 104              		.cfi_def_cfa_offset 0
 105 002c 7047     		bx	lr
 106              	.LVL6:
 107              	.L20:
 108              		.cfi_restore_state
 781:../libdaisy/Middlewares/Third_Party/FatFs/src/ff.c **** 				Files[i].clu == dp->obj.sclust &&
ARM GAS  /var/folders/0d/2ntwfkp1791d52chq7d_xwdm0000gn/T//ccOVjVrq.s 			page 17


 109              		.loc 1 781 34 view .LVU28
 110 002e 5468     		ldr	r4, [r2, #4]
 111 0030 8368     		ldr	r3, [r0, #8]
 112 0032 9C42     		cmp	r4, r3
 113 0034 ECD1     		bne	.L9
 782:../libdaisy/Middlewares/Third_Party/FatFs/src/ff.c **** 				Files[i].ofs == dp->dptr) break;
 114              		.loc 1 782 36 view .LVU29
 115 0036 9468     		ldr	r4, [r2, #8]
 116 0038 4369     		ldr	r3, [r0, #20]
 117 003a 9C42     		cmp	r4, r3
 118 003c E8D1     		bne	.L9
 788:../libdaisy/Middlewares/Third_Party/FatFs/src/ff.c **** 		return (be || acc == 2) ? FR_OK : FR_TOO_MANY_OPEN_FILES;	/* Is there a blank entry for new objec
 119              		.loc 1 788 2 is_stmt 1 view .LVU30
 793:../libdaisy/Middlewares/Third_Party/FatFs/src/ff.c **** }
 120              		.loc 1 793 2 view .LVU31
 779:../libdaisy/Middlewares/Third_Party/FatFs/src/ff.c **** 		if (Files[i].fs) {	/* Existing entry */
 121              		.loc 1 779 9 is_stmt 0 view .LVU32
 122 003e 0023     		movs	r3, #0
 793:../libdaisy/Middlewares/Third_Party/FatFs/src/ff.c **** }
 123              		.loc 1 793 52 view .LVU33
 124 0040 A1B9     		cbnz	r1, .L22
 125              	.LVL7:
 126              	.L17:
 793:../libdaisy/Middlewares/Third_Party/FatFs/src/ff.c **** }
 127              		.loc 1 793 25 discriminator 2 view .LVU34
 128 0042 02EB0312 		add	r2, r2, r3, lsl #4
 793:../libdaisy/Middlewares/Third_Party/FatFs/src/ff.c **** }
 129              		.loc 1 793 14 discriminator 2 view .LVU35
 130 0046 9389     		ldrh	r3, [r2, #12]
 131 0048 B3F5807F 		cmp	r3, #256
 132              		.loc 1 794 1 discriminator 2 view .LVU36
 133 004c 30BC     		pop	{r4, r5}
 134              		.cfi_remember_state
 135              		.cfi_restore 5
 136              		.cfi_restore 4
 137              		.cfi_def_cfa_offset 0
 793:../libdaisy/Middlewares/Third_Party/FatFs/src/ff.c **** }
 138              		.loc 1 793 52 discriminator 2 view .LVU37
 139 004e 14BF     		ite	ne
 140 0050 0020     		movne	r0, #0
 141 0052 1020     		moveq	r0, #16
 142              		.loc 1 794 1 discriminator 2 view .LVU38
 143 0054 7047     		bx	lr
 144              	.LVL8:
 145              	.L21:
 146              		.cfi_restore_state
 781:../libdaisy/Middlewares/Third_Party/FatFs/src/ff.c **** 				Files[i].clu == dp->obj.sclust &&
 147              		.loc 1 781 34 discriminator 1 view .LVU39
 148 0056 5569     		ldr	r5, [r2, #20]
 149 0058 8368     		ldr	r3, [r0, #8]
 150 005a 9D42     		cmp	r5, r3
 151 005c DED1     		bne	.L5
 782:../libdaisy/Middlewares/Third_Party/FatFs/src/ff.c **** 				Files[i].ofs == dp->dptr) break;
 152              		.loc 1 782 36 view .LVU40
 153 005e 4369     		ldr	r3, [r0, #20]
 154 0060 9069     		ldr	r0, [r2, #24]
 155              	.LVL9:
ARM GAS  /var/folders/0d/2ntwfkp1791d52chq7d_xwdm0000gn/T//ccOVjVrq.s 			page 18


 782:../libdaisy/Middlewares/Third_Party/FatFs/src/ff.c **** 				Files[i].ofs == dp->dptr) break;
 156              		.loc 1 782 36 view .LVU41
 157 0062 9842     		cmp	r0, r3
 158 0064 DAD1     		bne	.L5
 779:../libdaisy/Middlewares/Third_Party/FatFs/src/ff.c **** 		if (Files[i].fs) {	/* Existing entry */
 159              		.loc 1 779 34 view .LVU42
 160 0066 0123     		movs	r3, #1
 788:../libdaisy/Middlewares/Third_Party/FatFs/src/ff.c **** 		return (be || acc == 2) ? FR_OK : FR_TOO_MANY_OPEN_FILES;	/* Is there a blank entry for new objec
 161              		.loc 1 788 2 is_stmt 1 view .LVU43
 793:../libdaisy/Middlewares/Third_Party/FatFs/src/ff.c **** }
 162              		.loc 1 793 2 view .LVU44
 793:../libdaisy/Middlewares/Third_Party/FatFs/src/ff.c **** }
 163              		.loc 1 793 52 is_stmt 0 view .LVU45
 164 0068 0029     		cmp	r1, #0
 165 006a EAD0     		beq	.L17
 166              	.LVL10:
 167              	.L22:
 793:../libdaisy/Middlewares/Third_Party/FatFs/src/ff.c **** }
 168              		.loc 1 793 52 view .LVU46
 169 006c 1020     		movs	r0, #16
 170 006e DCE7     		b	.L16
 171              	.LVL11:
 172              	.L7:
 785:../libdaisy/Middlewares/Third_Party/FatFs/src/ff.c **** 		}
 173              		.loc 1 785 7 view .LVU47
 174 0070 0124     		movs	r4, #1
 175 0072 CEE7     		b	.L2
 176              	.L24:
 177              		.align	2
 178              	.L23:
 179 0074 00000000 		.word	.LANCHOR0
 180              		.cfi_endproc
 181              	.LFE328:
 183              		.section	.text.inc_lock,"ax",%progbits
 184              		.align	1
 185              		.p2align 2,,3
 186              		.syntax unified
 187              		.thumb
 188              		.thumb_func
 189              		.fpu fpv5-d16
 191              	inc_lock:
 192              	.LVL12:
 193              	.LFB330:
 795:../libdaisy/Middlewares/Third_Party/FatFs/src/ff.c **** 
 796:../libdaisy/Middlewares/Third_Party/FatFs/src/ff.c **** 
 797:../libdaisy/Middlewares/Third_Party/FatFs/src/ff.c **** static
 798:../libdaisy/Middlewares/Third_Party/FatFs/src/ff.c **** int enq_lock (void)	/* Check if an entry is available for a new object */
 799:../libdaisy/Middlewares/Third_Party/FatFs/src/ff.c **** {
 800:../libdaisy/Middlewares/Third_Party/FatFs/src/ff.c **** 	UINT i;
 801:../libdaisy/Middlewares/Third_Party/FatFs/src/ff.c **** 
 802:../libdaisy/Middlewares/Third_Party/FatFs/src/ff.c **** 	for (i = 0; i < _FS_LOCK && Files[i].fs; i++) ;
 803:../libdaisy/Middlewares/Third_Party/FatFs/src/ff.c **** 	return (i == _FS_LOCK) ? 0 : 1;
 804:../libdaisy/Middlewares/Third_Party/FatFs/src/ff.c **** }
 805:../libdaisy/Middlewares/Third_Party/FatFs/src/ff.c **** 
 806:../libdaisy/Middlewares/Third_Party/FatFs/src/ff.c **** 
 807:../libdaisy/Middlewares/Third_Party/FatFs/src/ff.c **** static
 808:../libdaisy/Middlewares/Third_Party/FatFs/src/ff.c **** UINT inc_lock (	/* Increment object open counter and returns its index (0:Internal error) */
ARM GAS  /var/folders/0d/2ntwfkp1791d52chq7d_xwdm0000gn/T//ccOVjVrq.s 			page 19


 809:../libdaisy/Middlewares/Third_Party/FatFs/src/ff.c **** 	DIR* dp,	/* Directory object pointing the file to register or increment */
 810:../libdaisy/Middlewares/Third_Party/FatFs/src/ff.c **** 	int acc		/* Desired access (0:Read, 1:Write, 2:Delete/Rename) */
 811:../libdaisy/Middlewares/Third_Party/FatFs/src/ff.c **** )
 812:../libdaisy/Middlewares/Third_Party/FatFs/src/ff.c **** {
 194              		.loc 1 812 1 is_stmt 1 view -0
 195              		.cfi_startproc
 196              		@ args = 0, pretend = 0, frame = 0
 197              		@ frame_needed = 0, uses_anonymous_args = 0
 198              		@ link register save eliminated.
 813:../libdaisy/Middlewares/Third_Party/FatFs/src/ff.c **** 	UINT i;
 199              		.loc 1 813 2 view .LVU49
 814:../libdaisy/Middlewares/Third_Party/FatFs/src/ff.c **** 
 815:../libdaisy/Middlewares/Third_Party/FatFs/src/ff.c **** 
 816:../libdaisy/Middlewares/Third_Party/FatFs/src/ff.c **** 	for (i = 0; i < _FS_LOCK; i++) {	/* Find the object */
 200              		.loc 1 816 2 view .LVU50
 201              		.loc 1 816 14 view .LVU51
 817:../libdaisy/Middlewares/Third_Party/FatFs/src/ff.c **** 		if (Files[i].fs == dp->obj.fs &&
 202              		.loc 1 817 15 is_stmt 0 view .LVU52
 203 0000 284B     		ldr	r3, .L45
 812:../libdaisy/Middlewares/Third_Party/FatFs/src/ff.c **** 	UINT i;
 204              		.loc 1 812 1 view .LVU53
 205 0002 F0B4     		push	{r4, r5, r6, r7}
 206              		.cfi_def_cfa_offset 16
 207              		.cfi_offset 4, -16
 208              		.cfi_offset 5, -12
 209              		.cfi_offset 6, -8
 210              		.cfi_offset 7, -4
 211              		.loc 1 817 15 view .LVU54
 212 0004 1A68     		ldr	r2, [r3]
 213              		.loc 1 817 29 view .LVU55
 214 0006 0568     		ldr	r5, [r0]
 215              		.loc 1 817 3 is_stmt 1 view .LVU56
 216              		.loc 1 817 6 is_stmt 0 view .LVU57
 217 0008 9542     		cmp	r5, r2
 218 000a 1BD0     		beq	.L41
 219              	.L26:
 816:../libdaisy/Middlewares/Third_Party/FatFs/src/ff.c **** 		if (Files[i].fs == dp->obj.fs &&
 220              		.loc 1 816 28 is_stmt 1 view .LVU58
 221              	.LVL13:
 816:../libdaisy/Middlewares/Third_Party/FatFs/src/ff.c **** 		if (Files[i].fs == dp->obj.fs &&
 222              		.loc 1 816 14 view .LVU59
 223              		.loc 1 817 3 view .LVU60
 224              		.loc 1 817 15 is_stmt 0 view .LVU61
 225 000c 1C69     		ldr	r4, [r3, #16]
 226              		.loc 1 817 6 view .LVU62
 227 000e AC42     		cmp	r4, r5
 228 0010 06D0     		beq	.L42
 229              	.L28:
 816:../libdaisy/Middlewares/Third_Party/FatFs/src/ff.c **** 		if (Files[i].fs == dp->obj.fs &&
 230              		.loc 1 816 28 is_stmt 1 discriminator 2 view .LVU63
 231              	.LVL14:
 816:../libdaisy/Middlewares/Third_Party/FatFs/src/ff.c **** 		if (Files[i].fs == dp->obj.fs &&
 232              		.loc 1 816 14 discriminator 2 view .LVU64
 818:../libdaisy/Middlewares/Third_Party/FatFs/src/ff.c **** 			Files[i].clu == dp->obj.sclust &&
 819:../libdaisy/Middlewares/Third_Party/FatFs/src/ff.c **** 			Files[i].ofs == dp->dptr) break;
 820:../libdaisy/Middlewares/Third_Party/FatFs/src/ff.c **** 	}
 821:../libdaisy/Middlewares/Third_Party/FatFs/src/ff.c **** 
ARM GAS  /var/folders/0d/2ntwfkp1791d52chq7d_xwdm0000gn/T//ccOVjVrq.s 			page 20


 822:../libdaisy/Middlewares/Third_Party/FatFs/src/ff.c **** 	if (i == _FS_LOCK) {				/* Not opened. Register it as new. */
 233              		.loc 1 822 2 discriminator 2 view .LVU65
 823:../libdaisy/Middlewares/Third_Party/FatFs/src/ff.c **** 		for (i = 0; i < _FS_LOCK && Files[i].fs; i++) ;
 234              		.loc 1 823 15 discriminator 2 view .LVU66
 235              		.loc 1 823 28 is_stmt 0 discriminator 2 view .LVU67
 236 0012 62B3     		cbz	r2, .L36
 237              		.loc 1 823 49 is_stmt 1 view .LVU68
 238              		.loc 1 823 44 view .LVU69
 239              	.LVL15:
 240              		.loc 1 823 15 view .LVU70
 241              		.loc 1 823 28 is_stmt 0 view .LVU71
 242 0014 002C     		cmp	r4, #0
 243 0016 41D0     		beq	.L43
 244              	.LVL16:
 245              	.L39:
 824:../libdaisy/Middlewares/Third_Party/FatFs/src/ff.c **** 		if (i == _FS_LOCK) return 0;	/* No free entry to register (int err) */
 246              		.loc 1 824 29 view .LVU72
 247 0018 0024     		movs	r4, #0
 825:../libdaisy/Middlewares/Third_Party/FatFs/src/ff.c **** 		Files[i].fs = dp->obj.fs;
 826:../libdaisy/Middlewares/Third_Party/FatFs/src/ff.c **** 		Files[i].clu = dp->obj.sclust;
 827:../libdaisy/Middlewares/Third_Party/FatFs/src/ff.c **** 		Files[i].ofs = dp->dptr;
 828:../libdaisy/Middlewares/Third_Party/FatFs/src/ff.c **** 		Files[i].ctr = 0;
 829:../libdaisy/Middlewares/Third_Party/FatFs/src/ff.c **** 	}
 830:../libdaisy/Middlewares/Third_Party/FatFs/src/ff.c **** 
 831:../libdaisy/Middlewares/Third_Party/FatFs/src/ff.c **** 	if (acc && Files[i].ctr) return 0;	/* Access violation (int err) */
 832:../libdaisy/Middlewares/Third_Party/FatFs/src/ff.c **** 
 833:../libdaisy/Middlewares/Third_Party/FatFs/src/ff.c **** 	Files[i].ctr = acc ? 0x100 : Files[i].ctr + 1;	/* Set semaphore value */
 834:../libdaisy/Middlewares/Third_Party/FatFs/src/ff.c **** 
 835:../libdaisy/Middlewares/Third_Party/FatFs/src/ff.c **** 	return i + 1;
 836:../libdaisy/Middlewares/Third_Party/FatFs/src/ff.c **** }
 248              		.loc 1 836 1 view .LVU73
 249 001a 2046     		mov	r0, r4
 250              	.LVL17:
 251              		.loc 1 836 1 view .LVU74
 252 001c F0BC     		pop	{r4, r5, r6, r7}
 253              		.cfi_remember_state
 254              		.cfi_restore 7
 255              		.cfi_restore 6
 256              		.cfi_restore 5
 257              		.cfi_restore 4
 258              		.cfi_def_cfa_offset 0
 259 001e 7047     		bx	lr
 260              	.LVL18:
 261              	.L42:
 262              		.cfi_restore_state
 817:../libdaisy/Middlewares/Third_Party/FatFs/src/ff.c **** 			Files[i].clu == dp->obj.sclust &&
 263              		.loc 1 817 33 discriminator 1 view .LVU75
 264 0020 5F69     		ldr	r7, [r3, #20]
 265 0022 8668     		ldr	r6, [r0, #8]
 266 0024 B742     		cmp	r7, r6
 267 0026 F4D1     		bne	.L28
 818:../libdaisy/Middlewares/Third_Party/FatFs/src/ff.c **** 			Files[i].ofs == dp->dptr) break;
 268              		.loc 1 818 35 view .LVU76
 269 0028 9F69     		ldr	r7, [r3, #24]
 270 002a 4669     		ldr	r6, [r0, #20]
 271 002c B742     		cmp	r7, r6
 272 002e F0D1     		bne	.L28
ARM GAS  /var/folders/0d/2ntwfkp1791d52chq7d_xwdm0000gn/T//ccOVjVrq.s 			page 21


 831:../libdaisy/Middlewares/Third_Party/FatFs/src/ff.c **** 
 273              		.loc 1 831 2 is_stmt 1 view .LVU77
 816:../libdaisy/Middlewares/Third_Party/FatFs/src/ff.c **** 		if (Files[i].fs == dp->obj.fs &&
 274              		.loc 1 816 29 is_stmt 0 view .LVU78
 275 0030 0122     		movs	r2, #1
 831:../libdaisy/Middlewares/Third_Party/FatFs/src/ff.c **** 
 276              		.loc 1 831 5 view .LVU79
 277 0032 91B9     		cbnz	r1, .L33
 278              	.LVL19:
 279              	.L44:
 831:../libdaisy/Middlewares/Third_Party/FatFs/src/ff.c **** 
 280              		.loc 1 831 5 view .LVU80
 281 0034 03EB0211 		add	r1, r3, r2, lsl #4
 282              	.LVL20:
 831:../libdaisy/Middlewares/Third_Party/FatFs/src/ff.c **** 
 283              		.loc 1 831 5 view .LVU81
 284 0038 541C     		adds	r4, r2, #1
 285 003a 1601     		lsls	r6, r2, #4
 286 003c 8989     		ldrh	r1, [r1, #12]
 287 003e 0131     		adds	r1, r1, #1
 288 0040 89B2     		uxth	r1, r1
 289 0042 26E0     		b	.L31
 290              	.LVL21:
 291              	.L41:
 817:../libdaisy/Middlewares/Third_Party/FatFs/src/ff.c **** 			Files[i].clu == dp->obj.sclust &&
 292              		.loc 1 817 33 view .LVU82
 293 0044 5E68     		ldr	r6, [r3, #4]
 294 0046 8468     		ldr	r4, [r0, #8]
 295 0048 A642     		cmp	r6, r4
 296 004a DFD1     		bne	.L26
 818:../libdaisy/Middlewares/Third_Party/FatFs/src/ff.c **** 			Files[i].ofs == dp->dptr) break;
 297              		.loc 1 818 35 view .LVU83
 298 004c 4669     		ldr	r6, [r0, #20]
 299 004e 9C68     		ldr	r4, [r3, #8]
 300 0050 A642     		cmp	r6, r4
 301 0052 DBD1     		bne	.L26
 816:../libdaisy/Middlewares/Third_Party/FatFs/src/ff.c **** 		if (Files[i].fs == dp->obj.fs &&
 302              		.loc 1 816 9 view .LVU84
 303 0054 0022     		movs	r2, #0
 831:../libdaisy/Middlewares/Third_Party/FatFs/src/ff.c **** 
 304              		.loc 1 831 2 is_stmt 1 view .LVU85
 831:../libdaisy/Middlewares/Third_Party/FatFs/src/ff.c **** 
 305              		.loc 1 831 5 is_stmt 0 view .LVU86
 306 0056 0029     		cmp	r1, #0
 307 0058 ECD0     		beq	.L44
 308              	.LVL22:
 309              	.L33:
 831:../libdaisy/Middlewares/Third_Party/FatFs/src/ff.c **** 
 310              		.loc 1 831 21 discriminator 1 view .LVU87
 311 005a 03EB0211 		add	r1, r3, r2, lsl #4
 312              	.LVL23:
 831:../libdaisy/Middlewares/Third_Party/FatFs/src/ff.c **** 
 313              		.loc 1 831 21 discriminator 1 view .LVU88
 314 005e 1601     		lsls	r6, r2, #4
 831:../libdaisy/Middlewares/Third_Party/FatFs/src/ff.c **** 
 315              		.loc 1 831 10 discriminator 1 view .LVU89
 316 0060 8989     		ldrh	r1, [r1, #12]
ARM GAS  /var/folders/0d/2ntwfkp1791d52chq7d_xwdm0000gn/T//ccOVjVrq.s 			page 22


 317 0062 0029     		cmp	r1, #0
 318 0064 D8D1     		bne	.L39
 319 0066 541C     		adds	r4, r2, #1
 833:../libdaisy/Middlewares/Third_Party/FatFs/src/ff.c **** 
 320              		.loc 1 833 15 view .LVU90
 321 0068 4FF48071 		mov	r1, #256
 322 006c 11E0     		b	.L31
 323              	.LVL24:
 324              	.L36:
 823:../libdaisy/Middlewares/Third_Party/FatFs/src/ff.c **** 		if (i == _FS_LOCK) return 0;	/* No free entry to register (int err) */
 325              		.loc 1 823 28 view .LVU91
 326 006e 0124     		movs	r4, #1
 327              	.LVL25:
 328              	.L29:
 825:../libdaisy/Middlewares/Third_Party/FatFs/src/ff.c **** 		Files[i].clu = dp->obj.sclust;
 329              		.loc 1 825 3 is_stmt 1 view .LVU92
 831:../libdaisy/Middlewares/Third_Party/FatFs/src/ff.c **** 
 330              		.loc 1 831 5 is_stmt 0 view .LVU93
 331 0070 0029     		cmp	r1, #0
 825:../libdaisy/Middlewares/Third_Party/FatFs/src/ff.c **** 		Files[i].clu = dp->obj.sclust;
 332              		.loc 1 825 15 view .LVU94
 333 0072 4FEA0216 		lsl	r6, r2, #4
 827:../libdaisy/Middlewares/Third_Party/FatFs/src/ff.c **** 		Files[i].ctr = 0;
 334              		.loc 1 827 16 view .LVU95
 335 0076 4169     		ldr	r1, [r0, #20]
 336              	.LVL26:
 825:../libdaisy/Middlewares/Third_Party/FatFs/src/ff.c **** 		Files[i].clu = dp->obj.sclust;
 337              		.loc 1 825 15 view .LVU96
 338 0078 03EB0212 		add	r2, r3, r2, lsl #4
 826:../libdaisy/Middlewares/Third_Party/FatFs/src/ff.c **** 		Files[i].ofs = dp->dptr;
 339              		.loc 1 826 16 view .LVU97
 340 007c 8768     		ldr	r7, [r0, #8]
 828:../libdaisy/Middlewares/Third_Party/FatFs/src/ff.c **** 	}
 341              		.loc 1 828 16 view .LVU98
 342 007e 4FF00000 		mov	r0, #0
 343              	.LVL27:
 827:../libdaisy/Middlewares/Third_Party/FatFs/src/ff.c **** 		Files[i].ctr = 0;
 344              		.loc 1 827 16 view .LVU99
 345 0082 9160     		str	r1, [r2, #8]
 831:../libdaisy/Middlewares/Third_Party/FatFs/src/ff.c **** 
 346              		.loc 1 831 5 view .LVU100
 347 0084 14BF     		ite	ne
 348 0086 4FF48071 		movne	r1, #256
 349 008a 0121     		moveq	r1, #1
 825:../libdaisy/Middlewares/Third_Party/FatFs/src/ff.c **** 		Files[i].clu = dp->obj.sclust;
 350              		.loc 1 825 15 view .LVU101
 351 008c 9D51     		str	r5, [r3, r6]
 826:../libdaisy/Middlewares/Third_Party/FatFs/src/ff.c **** 		Files[i].ofs = dp->dptr;
 352              		.loc 1 826 3 is_stmt 1 view .LVU102
 826:../libdaisy/Middlewares/Third_Party/FatFs/src/ff.c **** 		Files[i].ofs = dp->dptr;
 353              		.loc 1 826 16 is_stmt 0 view .LVU103
 354 008e 5760     		str	r7, [r2, #4]
 827:../libdaisy/Middlewares/Third_Party/FatFs/src/ff.c **** 		Files[i].ctr = 0;
 355              		.loc 1 827 3 is_stmt 1 view .LVU104
 828:../libdaisy/Middlewares/Third_Party/FatFs/src/ff.c **** 	}
 356              		.loc 1 828 3 view .LVU105
 828:../libdaisy/Middlewares/Third_Party/FatFs/src/ff.c **** 	}
ARM GAS  /var/folders/0d/2ntwfkp1791d52chq7d_xwdm0000gn/T//ccOVjVrq.s 			page 23


 357              		.loc 1 828 16 is_stmt 0 view .LVU106
 358 0090 9081     		strh	r0, [r2, #12]	@ movhi
 831:../libdaisy/Middlewares/Third_Party/FatFs/src/ff.c **** 
 359              		.loc 1 831 2 is_stmt 1 view .LVU107
 360              	.L31:
 833:../libdaisy/Middlewares/Third_Party/FatFs/src/ff.c **** 
 361              		.loc 1 833 15 is_stmt 0 discriminator 4 view .LVU108
 362 0092 3344     		add	r3, r3, r6
 363              		.loc 1 836 1 discriminator 4 view .LVU109
 364 0094 2046     		mov	r0, r4
 365 0096 F0BC     		pop	{r4, r5, r6, r7}
 366              		.cfi_remember_state
 367              		.cfi_restore 7
 368              		.cfi_restore 6
 369              		.cfi_restore 5
 370              		.cfi_restore 4
 371              		.cfi_def_cfa_offset 0
 833:../libdaisy/Middlewares/Third_Party/FatFs/src/ff.c **** 
 372              		.loc 1 833 15 discriminator 4 view .LVU110
 373 0098 9981     		strh	r1, [r3, #12]	@ movhi
 835:../libdaisy/Middlewares/Third_Party/FatFs/src/ff.c **** }
 374              		.loc 1 835 2 is_stmt 1 discriminator 4 view .LVU111
 375              		.loc 1 836 1 is_stmt 0 discriminator 4 view .LVU112
 376 009a 7047     		bx	lr
 377              	.LVL28:
 378              	.L43:
 379              		.cfi_restore_state
 823:../libdaisy/Middlewares/Third_Party/FatFs/src/ff.c **** 		if (i == _FS_LOCK) return 0;	/* No free entry to register (int err) */
 380              		.loc 1 823 28 view .LVU113
 381 009c 0224     		movs	r4, #2
 823:../libdaisy/Middlewares/Third_Party/FatFs/src/ff.c **** 		if (i == _FS_LOCK) return 0;	/* No free entry to register (int err) */
 382              		.loc 1 823 45 view .LVU114
 383 009e 0122     		movs	r2, #1
 384 00a0 E6E7     		b	.L29
 385              	.L46:
 386 00a2 00BF     		.align	2
 387              	.L45:
 388 00a4 00000000 		.word	.LANCHOR0
 389              		.cfi_endproc
 390              	.LFE330:
 392              		.section	.text.get_ldnumber,"ax",%progbits
 393              		.align	1
 394              		.p2align 2,,3
 395              		.syntax unified
 396              		.thumb
 397              		.thumb_func
 398              		.fpu fpv5-d16
 400              	get_ldnumber:
 401              	.LVL29:
 402              	.LFB359:
 837:../libdaisy/Middlewares/Third_Party/FatFs/src/ff.c **** 
 838:../libdaisy/Middlewares/Third_Party/FatFs/src/ff.c **** 
 839:../libdaisy/Middlewares/Third_Party/FatFs/src/ff.c **** static
 840:../libdaisy/Middlewares/Third_Party/FatFs/src/ff.c **** FRESULT dec_lock (	/* Decrement object open counter */
 841:../libdaisy/Middlewares/Third_Party/FatFs/src/ff.c **** 	UINT i			/* Semaphore index (1..) */
 842:../libdaisy/Middlewares/Third_Party/FatFs/src/ff.c **** )
 843:../libdaisy/Middlewares/Third_Party/FatFs/src/ff.c **** {
ARM GAS  /var/folders/0d/2ntwfkp1791d52chq7d_xwdm0000gn/T//ccOVjVrq.s 			page 24


 844:../libdaisy/Middlewares/Third_Party/FatFs/src/ff.c **** 	WORD n;
 845:../libdaisy/Middlewares/Third_Party/FatFs/src/ff.c **** 	FRESULT res;
 846:../libdaisy/Middlewares/Third_Party/FatFs/src/ff.c **** 
 847:../libdaisy/Middlewares/Third_Party/FatFs/src/ff.c **** 
 848:../libdaisy/Middlewares/Third_Party/FatFs/src/ff.c **** 	if (--i < _FS_LOCK) {	/* Shift index number origin from 0 */
 849:../libdaisy/Middlewares/Third_Party/FatFs/src/ff.c **** 		n = Files[i].ctr;
 850:../libdaisy/Middlewares/Third_Party/FatFs/src/ff.c **** 		if (n == 0x100) n = 0;		/* If write mode open, delete the entry */
 851:../libdaisy/Middlewares/Third_Party/FatFs/src/ff.c **** 		if (n > 0) n--;				/* Decrement read mode open count */
 852:../libdaisy/Middlewares/Third_Party/FatFs/src/ff.c **** 		Files[i].ctr = n;
 853:../libdaisy/Middlewares/Third_Party/FatFs/src/ff.c **** 		if (n == 0) Files[i].fs = 0;	/* Delete the entry if open count gets zero */
 854:../libdaisy/Middlewares/Third_Party/FatFs/src/ff.c **** 		res = FR_OK;
 855:../libdaisy/Middlewares/Third_Party/FatFs/src/ff.c **** 	} else {
 856:../libdaisy/Middlewares/Third_Party/FatFs/src/ff.c **** 		res = FR_INT_ERR;			/* Invalid index nunber */
 857:../libdaisy/Middlewares/Third_Party/FatFs/src/ff.c **** 	}
 858:../libdaisy/Middlewares/Third_Party/FatFs/src/ff.c **** 	return res;
 859:../libdaisy/Middlewares/Third_Party/FatFs/src/ff.c **** }
 860:../libdaisy/Middlewares/Third_Party/FatFs/src/ff.c **** 
 861:../libdaisy/Middlewares/Third_Party/FatFs/src/ff.c **** 
 862:../libdaisy/Middlewares/Third_Party/FatFs/src/ff.c **** static
 863:../libdaisy/Middlewares/Third_Party/FatFs/src/ff.c **** void clear_lock (	/* Clear lock entries of the volume */
 864:../libdaisy/Middlewares/Third_Party/FatFs/src/ff.c **** 	FATFS *fs
 865:../libdaisy/Middlewares/Third_Party/FatFs/src/ff.c **** )
 866:../libdaisy/Middlewares/Third_Party/FatFs/src/ff.c **** {
 867:../libdaisy/Middlewares/Third_Party/FatFs/src/ff.c **** 	UINT i;
 868:../libdaisy/Middlewares/Third_Party/FatFs/src/ff.c **** 
 869:../libdaisy/Middlewares/Third_Party/FatFs/src/ff.c **** 	for (i = 0; i < _FS_LOCK; i++) {
 870:../libdaisy/Middlewares/Third_Party/FatFs/src/ff.c **** 		if (Files[i].fs == fs) Files[i].fs = 0;
 871:../libdaisy/Middlewares/Third_Party/FatFs/src/ff.c **** 	}
 872:../libdaisy/Middlewares/Third_Party/FatFs/src/ff.c **** }
 873:../libdaisy/Middlewares/Third_Party/FatFs/src/ff.c **** 
 874:../libdaisy/Middlewares/Third_Party/FatFs/src/ff.c **** #endif	/* _FS_LOCK != 0 */
 875:../libdaisy/Middlewares/Third_Party/FatFs/src/ff.c **** 
 876:../libdaisy/Middlewares/Third_Party/FatFs/src/ff.c **** 
 877:../libdaisy/Middlewares/Third_Party/FatFs/src/ff.c **** 
 878:../libdaisy/Middlewares/Third_Party/FatFs/src/ff.c **** /*-----------------------------------------------------------------------*/
 879:../libdaisy/Middlewares/Third_Party/FatFs/src/ff.c **** /* Move/Flush disk access window in the file system object               */
 880:../libdaisy/Middlewares/Third_Party/FatFs/src/ff.c **** /*-----------------------------------------------------------------------*/
 881:../libdaisy/Middlewares/Third_Party/FatFs/src/ff.c **** #if !_FS_READONLY
 882:../libdaisy/Middlewares/Third_Party/FatFs/src/ff.c **** static
 883:../libdaisy/Middlewares/Third_Party/FatFs/src/ff.c **** FRESULT sync_window (	/* Returns FR_OK or FR_DISK_ERROR */
 884:../libdaisy/Middlewares/Third_Party/FatFs/src/ff.c **** 	FATFS* fs			/* File system object */
 885:../libdaisy/Middlewares/Third_Party/FatFs/src/ff.c **** )
 886:../libdaisy/Middlewares/Third_Party/FatFs/src/ff.c **** {
 887:../libdaisy/Middlewares/Third_Party/FatFs/src/ff.c **** 	DWORD wsect;
 888:../libdaisy/Middlewares/Third_Party/FatFs/src/ff.c **** 	UINT nf;
 889:../libdaisy/Middlewares/Third_Party/FatFs/src/ff.c **** 	FRESULT res = FR_OK;
 890:../libdaisy/Middlewares/Third_Party/FatFs/src/ff.c **** 
 891:../libdaisy/Middlewares/Third_Party/FatFs/src/ff.c **** 
 892:../libdaisy/Middlewares/Third_Party/FatFs/src/ff.c **** 	if (fs->wflag) {	/* Write back the sector if it is dirty */
 893:../libdaisy/Middlewares/Third_Party/FatFs/src/ff.c **** 		wsect = fs->winsect;	/* Current sector number */
 894:../libdaisy/Middlewares/Third_Party/FatFs/src/ff.c **** 		if (disk_write(fs->drv, fs->win, wsect, 1) != RES_OK) {
 895:../libdaisy/Middlewares/Third_Party/FatFs/src/ff.c **** 			res = FR_DISK_ERR;
 896:../libdaisy/Middlewares/Third_Party/FatFs/src/ff.c **** 		} else {
 897:../libdaisy/Middlewares/Third_Party/FatFs/src/ff.c **** 			fs->wflag = 0;
 898:../libdaisy/Middlewares/Third_Party/FatFs/src/ff.c **** 			if (wsect - fs->fatbase < fs->fsize) {		/* Is it in the FAT area? */
 899:../libdaisy/Middlewares/Third_Party/FatFs/src/ff.c **** 				for (nf = fs->n_fats; nf >= 2; nf--) {	/* Reflect the change to all FAT copies */
 900:../libdaisy/Middlewares/Third_Party/FatFs/src/ff.c **** 					wsect += fs->fsize;
ARM GAS  /var/folders/0d/2ntwfkp1791d52chq7d_xwdm0000gn/T//ccOVjVrq.s 			page 25


 901:../libdaisy/Middlewares/Third_Party/FatFs/src/ff.c **** 					disk_write(fs->drv, fs->win, wsect, 1);
 902:../libdaisy/Middlewares/Third_Party/FatFs/src/ff.c **** 				}
 903:../libdaisy/Middlewares/Third_Party/FatFs/src/ff.c **** 			}
 904:../libdaisy/Middlewares/Third_Party/FatFs/src/ff.c **** 		}
 905:../libdaisy/Middlewares/Third_Party/FatFs/src/ff.c **** 	}
 906:../libdaisy/Middlewares/Third_Party/FatFs/src/ff.c **** 	return res;
 907:../libdaisy/Middlewares/Third_Party/FatFs/src/ff.c **** }
 908:../libdaisy/Middlewares/Third_Party/FatFs/src/ff.c **** #endif
 909:../libdaisy/Middlewares/Third_Party/FatFs/src/ff.c **** 
 910:../libdaisy/Middlewares/Third_Party/FatFs/src/ff.c **** 
 911:../libdaisy/Middlewares/Third_Party/FatFs/src/ff.c **** static
 912:../libdaisy/Middlewares/Third_Party/FatFs/src/ff.c **** FRESULT move_window (	/* Returns FR_OK or FR_DISK_ERROR */
 913:../libdaisy/Middlewares/Third_Party/FatFs/src/ff.c **** 	FATFS* fs,			/* File system object */
 914:../libdaisy/Middlewares/Third_Party/FatFs/src/ff.c **** 	DWORD sector		/* Sector number to make appearance in the fs->win[] */
 915:../libdaisy/Middlewares/Third_Party/FatFs/src/ff.c **** )
 916:../libdaisy/Middlewares/Third_Party/FatFs/src/ff.c **** {
 917:../libdaisy/Middlewares/Third_Party/FatFs/src/ff.c **** 	FRESULT res = FR_OK;
 918:../libdaisy/Middlewares/Third_Party/FatFs/src/ff.c **** 
 919:../libdaisy/Middlewares/Third_Party/FatFs/src/ff.c **** 
 920:../libdaisy/Middlewares/Third_Party/FatFs/src/ff.c **** 	if (sector != fs->winsect) {	/* Window offset changed? */
 921:../libdaisy/Middlewares/Third_Party/FatFs/src/ff.c **** #if !_FS_READONLY
 922:../libdaisy/Middlewares/Third_Party/FatFs/src/ff.c **** 		res = sync_window(fs);		/* Write-back changes */
 923:../libdaisy/Middlewares/Third_Party/FatFs/src/ff.c **** #endif
 924:../libdaisy/Middlewares/Third_Party/FatFs/src/ff.c **** 		if (res == FR_OK) {			/* Fill sector window with new data */
 925:../libdaisy/Middlewares/Third_Party/FatFs/src/ff.c **** 			if (disk_read(fs->drv, fs->win, sector, 1) != RES_OK) {
 926:../libdaisy/Middlewares/Third_Party/FatFs/src/ff.c **** 				sector = 0xFFFFFFFF;	/* Invalidate window if data is not reliable */
 927:../libdaisy/Middlewares/Third_Party/FatFs/src/ff.c **** 				res = FR_DISK_ERR;
 928:../libdaisy/Middlewares/Third_Party/FatFs/src/ff.c **** 			}
 929:../libdaisy/Middlewares/Third_Party/FatFs/src/ff.c **** 			fs->winsect = sector;
 930:../libdaisy/Middlewares/Third_Party/FatFs/src/ff.c **** 		}
 931:../libdaisy/Middlewares/Third_Party/FatFs/src/ff.c **** 	}
 932:../libdaisy/Middlewares/Third_Party/FatFs/src/ff.c **** 	return res;
 933:../libdaisy/Middlewares/Third_Party/FatFs/src/ff.c **** }
 934:../libdaisy/Middlewares/Third_Party/FatFs/src/ff.c **** 
 935:../libdaisy/Middlewares/Third_Party/FatFs/src/ff.c **** 
 936:../libdaisy/Middlewares/Third_Party/FatFs/src/ff.c **** 
 937:../libdaisy/Middlewares/Third_Party/FatFs/src/ff.c **** 
 938:../libdaisy/Middlewares/Third_Party/FatFs/src/ff.c **** #if !_FS_READONLY
 939:../libdaisy/Middlewares/Third_Party/FatFs/src/ff.c **** /*-----------------------------------------------------------------------*/
 940:../libdaisy/Middlewares/Third_Party/FatFs/src/ff.c **** /* Synchronize file system and strage device                             */
 941:../libdaisy/Middlewares/Third_Party/FatFs/src/ff.c **** /*-----------------------------------------------------------------------*/
 942:../libdaisy/Middlewares/Third_Party/FatFs/src/ff.c **** 
 943:../libdaisy/Middlewares/Third_Party/FatFs/src/ff.c **** static
 944:../libdaisy/Middlewares/Third_Party/FatFs/src/ff.c **** FRESULT sync_fs (	/* FR_OK:succeeded, !=0:error */
 945:../libdaisy/Middlewares/Third_Party/FatFs/src/ff.c **** 	FATFS* fs		/* File system object */
 946:../libdaisy/Middlewares/Third_Party/FatFs/src/ff.c **** )
 947:../libdaisy/Middlewares/Third_Party/FatFs/src/ff.c **** {
 948:../libdaisy/Middlewares/Third_Party/FatFs/src/ff.c **** 	FRESULT res;
 949:../libdaisy/Middlewares/Third_Party/FatFs/src/ff.c **** 
 950:../libdaisy/Middlewares/Third_Party/FatFs/src/ff.c **** 
 951:../libdaisy/Middlewares/Third_Party/FatFs/src/ff.c **** 	res = sync_window(fs);
 952:../libdaisy/Middlewares/Third_Party/FatFs/src/ff.c **** 	if (res == FR_OK) {
 953:../libdaisy/Middlewares/Third_Party/FatFs/src/ff.c **** 		/* Update FSInfo sector if needed */
 954:../libdaisy/Middlewares/Third_Party/FatFs/src/ff.c **** 		if (fs->fs_type == FS_FAT32 && fs->fsi_flag == 1) {
 955:../libdaisy/Middlewares/Third_Party/FatFs/src/ff.c **** 			/* Create FSInfo structure */
 956:../libdaisy/Middlewares/Third_Party/FatFs/src/ff.c **** 			mem_set(fs->win, 0, SS(fs));
 957:../libdaisy/Middlewares/Third_Party/FatFs/src/ff.c **** 			st_word(fs->win + BS_55AA, 0xAA55);
ARM GAS  /var/folders/0d/2ntwfkp1791d52chq7d_xwdm0000gn/T//ccOVjVrq.s 			page 26


 958:../libdaisy/Middlewares/Third_Party/FatFs/src/ff.c **** 			st_dword(fs->win + FSI_LeadSig, 0x41615252);
 959:../libdaisy/Middlewares/Third_Party/FatFs/src/ff.c **** 			st_dword(fs->win + FSI_StrucSig, 0x61417272);
 960:../libdaisy/Middlewares/Third_Party/FatFs/src/ff.c **** 			st_dword(fs->win + FSI_Free_Count, fs->free_clst);
 961:../libdaisy/Middlewares/Third_Party/FatFs/src/ff.c **** 			st_dword(fs->win + FSI_Nxt_Free, fs->last_clst);
 962:../libdaisy/Middlewares/Third_Party/FatFs/src/ff.c **** 			/* Write it into the FSInfo sector */
 963:../libdaisy/Middlewares/Third_Party/FatFs/src/ff.c **** 			fs->winsect = fs->volbase + 1;
 964:../libdaisy/Middlewares/Third_Party/FatFs/src/ff.c **** 			disk_write(fs->drv, fs->win, fs->winsect, 1);
 965:../libdaisy/Middlewares/Third_Party/FatFs/src/ff.c **** 			fs->fsi_flag = 0;
 966:../libdaisy/Middlewares/Third_Party/FatFs/src/ff.c **** 		}
 967:../libdaisy/Middlewares/Third_Party/FatFs/src/ff.c **** 		/* Make sure that no pending write process in the physical drive */
 968:../libdaisy/Middlewares/Third_Party/FatFs/src/ff.c **** 		if (disk_ioctl(fs->drv, CTRL_SYNC, 0) != RES_OK) res = FR_DISK_ERR;
 969:../libdaisy/Middlewares/Third_Party/FatFs/src/ff.c **** 	}
 970:../libdaisy/Middlewares/Third_Party/FatFs/src/ff.c **** 
 971:../libdaisy/Middlewares/Third_Party/FatFs/src/ff.c **** 	return res;
 972:../libdaisy/Middlewares/Third_Party/FatFs/src/ff.c **** }
 973:../libdaisy/Middlewares/Third_Party/FatFs/src/ff.c **** 
 974:../libdaisy/Middlewares/Third_Party/FatFs/src/ff.c **** #endif
 975:../libdaisy/Middlewares/Third_Party/FatFs/src/ff.c **** 
 976:../libdaisy/Middlewares/Third_Party/FatFs/src/ff.c **** 
 977:../libdaisy/Middlewares/Third_Party/FatFs/src/ff.c **** 
 978:../libdaisy/Middlewares/Third_Party/FatFs/src/ff.c **** /*-----------------------------------------------------------------------*/
 979:../libdaisy/Middlewares/Third_Party/FatFs/src/ff.c **** /* Get sector# from cluster#                                             */
 980:../libdaisy/Middlewares/Third_Party/FatFs/src/ff.c **** /*-----------------------------------------------------------------------*/
 981:../libdaisy/Middlewares/Third_Party/FatFs/src/ff.c **** 
 982:../libdaisy/Middlewares/Third_Party/FatFs/src/ff.c **** static
 983:../libdaisy/Middlewares/Third_Party/FatFs/src/ff.c **** DWORD clust2sect (	/* !=0:Sector number, 0:Failed (invalid cluster#) */
 984:../libdaisy/Middlewares/Third_Party/FatFs/src/ff.c **** 	FATFS* fs,		/* File system object */
 985:../libdaisy/Middlewares/Third_Party/FatFs/src/ff.c **** 	DWORD clst		/* Cluster# to be converted */
 986:../libdaisy/Middlewares/Third_Party/FatFs/src/ff.c **** )
 987:../libdaisy/Middlewares/Third_Party/FatFs/src/ff.c **** {
 988:../libdaisy/Middlewares/Third_Party/FatFs/src/ff.c **** 	clst -= 2;
 989:../libdaisy/Middlewares/Third_Party/FatFs/src/ff.c **** 	if (clst >= fs->n_fatent - 2) return 0;		/* Invalid cluster# */
 990:../libdaisy/Middlewares/Third_Party/FatFs/src/ff.c **** 	return clst * fs->csize + fs->database;
 991:../libdaisy/Middlewares/Third_Party/FatFs/src/ff.c **** }
 992:../libdaisy/Middlewares/Third_Party/FatFs/src/ff.c **** 
 993:../libdaisy/Middlewares/Third_Party/FatFs/src/ff.c **** 
 994:../libdaisy/Middlewares/Third_Party/FatFs/src/ff.c **** 
 995:../libdaisy/Middlewares/Third_Party/FatFs/src/ff.c **** 
 996:../libdaisy/Middlewares/Third_Party/FatFs/src/ff.c **** /*-----------------------------------------------------------------------*/
 997:../libdaisy/Middlewares/Third_Party/FatFs/src/ff.c **** /* FAT access - Read value of a FAT entry                                */
 998:../libdaisy/Middlewares/Third_Party/FatFs/src/ff.c **** /*-----------------------------------------------------------------------*/
 999:../libdaisy/Middlewares/Third_Party/FatFs/src/ff.c **** 
1000:../libdaisy/Middlewares/Third_Party/FatFs/src/ff.c **** static
1001:../libdaisy/Middlewares/Third_Party/FatFs/src/ff.c **** DWORD get_fat (	/* 0xFFFFFFFF:Disk error, 1:Internal error, 2..0x7FFFFFFF:Cluster status */
1002:../libdaisy/Middlewares/Third_Party/FatFs/src/ff.c **** 	_FDID* obj,	/* Corresponding object */
1003:../libdaisy/Middlewares/Third_Party/FatFs/src/ff.c **** 	DWORD clst	/* Cluster number to get the value */
1004:../libdaisy/Middlewares/Third_Party/FatFs/src/ff.c **** )
1005:../libdaisy/Middlewares/Third_Party/FatFs/src/ff.c **** {
1006:../libdaisy/Middlewares/Third_Party/FatFs/src/ff.c **** 	UINT wc, bc;
1007:../libdaisy/Middlewares/Third_Party/FatFs/src/ff.c **** 	DWORD val;
1008:../libdaisy/Middlewares/Third_Party/FatFs/src/ff.c **** 	FATFS *fs = obj->fs;
1009:../libdaisy/Middlewares/Third_Party/FatFs/src/ff.c **** 
1010:../libdaisy/Middlewares/Third_Party/FatFs/src/ff.c **** 
1011:../libdaisy/Middlewares/Third_Party/FatFs/src/ff.c **** 	if (clst < 2 || clst >= fs->n_fatent) {	/* Check if in valid range */
1012:../libdaisy/Middlewares/Third_Party/FatFs/src/ff.c **** 		val = 1;	/* Internal error */
1013:../libdaisy/Middlewares/Third_Party/FatFs/src/ff.c **** 
1014:../libdaisy/Middlewares/Third_Party/FatFs/src/ff.c **** 	} else {
ARM GAS  /var/folders/0d/2ntwfkp1791d52chq7d_xwdm0000gn/T//ccOVjVrq.s 			page 27


1015:../libdaisy/Middlewares/Third_Party/FatFs/src/ff.c **** 		val = 0xFFFFFFFF;	/* Default value falls on disk error */
1016:../libdaisy/Middlewares/Third_Party/FatFs/src/ff.c **** 
1017:../libdaisy/Middlewares/Third_Party/FatFs/src/ff.c **** 		switch (fs->fs_type) {
1018:../libdaisy/Middlewares/Third_Party/FatFs/src/ff.c **** 		case FS_FAT12 :
1019:../libdaisy/Middlewares/Third_Party/FatFs/src/ff.c **** 			bc = (UINT)clst; bc += bc / 2;
1020:../libdaisy/Middlewares/Third_Party/FatFs/src/ff.c **** 			if (move_window(fs, fs->fatbase + (bc / SS(fs))) != FR_OK) break;
1021:../libdaisy/Middlewares/Third_Party/FatFs/src/ff.c **** 			wc = fs->win[bc++ % SS(fs)];
1022:../libdaisy/Middlewares/Third_Party/FatFs/src/ff.c **** 			if (move_window(fs, fs->fatbase + (bc / SS(fs))) != FR_OK) break;
1023:../libdaisy/Middlewares/Third_Party/FatFs/src/ff.c **** 			wc |= fs->win[bc % SS(fs)] << 8;
1024:../libdaisy/Middlewares/Third_Party/FatFs/src/ff.c **** 			val = (clst & 1) ? (wc >> 4) : (wc & 0xFFF);
1025:../libdaisy/Middlewares/Third_Party/FatFs/src/ff.c **** 			break;
1026:../libdaisy/Middlewares/Third_Party/FatFs/src/ff.c **** 
1027:../libdaisy/Middlewares/Third_Party/FatFs/src/ff.c **** 		case FS_FAT16 :
1028:../libdaisy/Middlewares/Third_Party/FatFs/src/ff.c **** 			if (move_window(fs, fs->fatbase + (clst / (SS(fs) / 2))) != FR_OK) break;
1029:../libdaisy/Middlewares/Third_Party/FatFs/src/ff.c **** 			val = ld_word(fs->win + clst * 2 % SS(fs));
1030:../libdaisy/Middlewares/Third_Party/FatFs/src/ff.c **** 			break;
1031:../libdaisy/Middlewares/Third_Party/FatFs/src/ff.c **** 
1032:../libdaisy/Middlewares/Third_Party/FatFs/src/ff.c **** 		case FS_FAT32 :
1033:../libdaisy/Middlewares/Third_Party/FatFs/src/ff.c **** 			if (move_window(fs, fs->fatbase + (clst / (SS(fs) / 4))) != FR_OK) break;
1034:../libdaisy/Middlewares/Third_Party/FatFs/src/ff.c **** 			val = ld_dword(fs->win + clst * 4 % SS(fs)) & 0x0FFFFFFF;
1035:../libdaisy/Middlewares/Third_Party/FatFs/src/ff.c **** 			break;
1036:../libdaisy/Middlewares/Third_Party/FatFs/src/ff.c **** #if _FS_EXFAT
1037:../libdaisy/Middlewares/Third_Party/FatFs/src/ff.c **** 		case FS_EXFAT :
1038:../libdaisy/Middlewares/Third_Party/FatFs/src/ff.c **** 			if (obj->objsize) {
1039:../libdaisy/Middlewares/Third_Party/FatFs/src/ff.c **** 				DWORD cofs = clst - obj->sclust;	/* Offset from start cluster */
1040:../libdaisy/Middlewares/Third_Party/FatFs/src/ff.c **** 				DWORD clen = (DWORD)((obj->objsize - 1) / SS(fs)) / fs->csize;	/* Number of clusters - 1 */
1041:../libdaisy/Middlewares/Third_Party/FatFs/src/ff.c **** 
1042:../libdaisy/Middlewares/Third_Party/FatFs/src/ff.c **** 				if (obj->stat == 2) {	/* Is there no valid chain on the FAT? */
1043:../libdaisy/Middlewares/Third_Party/FatFs/src/ff.c **** 					if (cofs <= clen) {
1044:../libdaisy/Middlewares/Third_Party/FatFs/src/ff.c **** 						val = (cofs == clen) ? 0x7FFFFFFF : clst + 1;	/* Generate the value */
1045:../libdaisy/Middlewares/Third_Party/FatFs/src/ff.c **** 						break;
1046:../libdaisy/Middlewares/Third_Party/FatFs/src/ff.c **** 					}
1047:../libdaisy/Middlewares/Third_Party/FatFs/src/ff.c **** 				}
1048:../libdaisy/Middlewares/Third_Party/FatFs/src/ff.c **** 				if (obj->stat == 3 && cofs < obj->n_cont) {	/* Is it in the 1st fragment? */
1049:../libdaisy/Middlewares/Third_Party/FatFs/src/ff.c **** 					val = clst + 1; 	/* Generate the value */
1050:../libdaisy/Middlewares/Third_Party/FatFs/src/ff.c **** 					break;
1051:../libdaisy/Middlewares/Third_Party/FatFs/src/ff.c **** 				}
1052:../libdaisy/Middlewares/Third_Party/FatFs/src/ff.c **** 				if (obj->stat != 2) {	/* Get value from FAT if FAT chain is valid */
1053:../libdaisy/Middlewares/Third_Party/FatFs/src/ff.c **** 					if (obj->n_frag != 0) {	/* Is it on the growing edge? */
1054:../libdaisy/Middlewares/Third_Party/FatFs/src/ff.c **** 						val = 0x7FFFFFFF;	/* Generate EOC */
1055:../libdaisy/Middlewares/Third_Party/FatFs/src/ff.c **** 					} else {
1056:../libdaisy/Middlewares/Third_Party/FatFs/src/ff.c **** 						if (move_window(fs, fs->fatbase + (clst / (SS(fs) / 4))) != FR_OK) break;
1057:../libdaisy/Middlewares/Third_Party/FatFs/src/ff.c **** 						val = ld_dword(fs->win + clst * 4 % SS(fs)) & 0x7FFFFFFF;
1058:../libdaisy/Middlewares/Third_Party/FatFs/src/ff.c **** 					}
1059:../libdaisy/Middlewares/Third_Party/FatFs/src/ff.c **** 					break;
1060:../libdaisy/Middlewares/Third_Party/FatFs/src/ff.c **** 				}
1061:../libdaisy/Middlewares/Third_Party/FatFs/src/ff.c **** 			}
1062:../libdaisy/Middlewares/Third_Party/FatFs/src/ff.c **** 			/* go to default */
1063:../libdaisy/Middlewares/Third_Party/FatFs/src/ff.c **** #endif
1064:../libdaisy/Middlewares/Third_Party/FatFs/src/ff.c **** 		default:
1065:../libdaisy/Middlewares/Third_Party/FatFs/src/ff.c **** 			val = 1;	/* Internal error */
1066:../libdaisy/Middlewares/Third_Party/FatFs/src/ff.c **** 		}
1067:../libdaisy/Middlewares/Third_Party/FatFs/src/ff.c **** 	}
1068:../libdaisy/Middlewares/Third_Party/FatFs/src/ff.c **** 
1069:../libdaisy/Middlewares/Third_Party/FatFs/src/ff.c **** 	return val;
1070:../libdaisy/Middlewares/Third_Party/FatFs/src/ff.c **** }
1071:../libdaisy/Middlewares/Third_Party/FatFs/src/ff.c **** 
ARM GAS  /var/folders/0d/2ntwfkp1791d52chq7d_xwdm0000gn/T//ccOVjVrq.s 			page 28


1072:../libdaisy/Middlewares/Third_Party/FatFs/src/ff.c **** 
1073:../libdaisy/Middlewares/Third_Party/FatFs/src/ff.c **** 
1074:../libdaisy/Middlewares/Third_Party/FatFs/src/ff.c **** 
1075:../libdaisy/Middlewares/Third_Party/FatFs/src/ff.c **** #if !_FS_READONLY
1076:../libdaisy/Middlewares/Third_Party/FatFs/src/ff.c **** /*-----------------------------------------------------------------------*/
1077:../libdaisy/Middlewares/Third_Party/FatFs/src/ff.c **** /* FAT access - Change value of a FAT entry                              */
1078:../libdaisy/Middlewares/Third_Party/FatFs/src/ff.c **** /*-----------------------------------------------------------------------*/
1079:../libdaisy/Middlewares/Third_Party/FatFs/src/ff.c **** 
1080:../libdaisy/Middlewares/Third_Party/FatFs/src/ff.c **** static
1081:../libdaisy/Middlewares/Third_Party/FatFs/src/ff.c **** FRESULT put_fat (	/* FR_OK(0):succeeded, !=0:error */
1082:../libdaisy/Middlewares/Third_Party/FatFs/src/ff.c **** 	FATFS* fs,		/* Corresponding file system object */
1083:../libdaisy/Middlewares/Third_Party/FatFs/src/ff.c **** 	DWORD clst,		/* FAT index number (cluster number) to be changed */
1084:../libdaisy/Middlewares/Third_Party/FatFs/src/ff.c **** 	DWORD val		/* New value to be set to the entry */
1085:../libdaisy/Middlewares/Third_Party/FatFs/src/ff.c **** )
1086:../libdaisy/Middlewares/Third_Party/FatFs/src/ff.c **** {
1087:../libdaisy/Middlewares/Third_Party/FatFs/src/ff.c **** 	UINT bc;
1088:../libdaisy/Middlewares/Third_Party/FatFs/src/ff.c **** 	BYTE *p;
1089:../libdaisy/Middlewares/Third_Party/FatFs/src/ff.c **** 	FRESULT res = FR_INT_ERR;
1090:../libdaisy/Middlewares/Third_Party/FatFs/src/ff.c **** 
1091:../libdaisy/Middlewares/Third_Party/FatFs/src/ff.c **** 	if (clst >= 2 && clst < fs->n_fatent) {	/* Check if in valid range */
1092:../libdaisy/Middlewares/Third_Party/FatFs/src/ff.c **** 		switch (fs->fs_type) {
1093:../libdaisy/Middlewares/Third_Party/FatFs/src/ff.c **** 		case FS_FAT12 :	/* Bitfield items */
1094:../libdaisy/Middlewares/Third_Party/FatFs/src/ff.c **** 			bc = (UINT)clst; bc += bc / 2;
1095:../libdaisy/Middlewares/Third_Party/FatFs/src/ff.c **** 			res = move_window(fs, fs->fatbase + (bc / SS(fs)));
1096:../libdaisy/Middlewares/Third_Party/FatFs/src/ff.c **** 			if (res != FR_OK) break;
1097:../libdaisy/Middlewares/Third_Party/FatFs/src/ff.c **** 			p = fs->win + bc++ % SS(fs);
1098:../libdaisy/Middlewares/Third_Party/FatFs/src/ff.c **** 			*p = (clst & 1) ? ((*p & 0x0F) | ((BYTE)val << 4)) : (BYTE)val;
1099:../libdaisy/Middlewares/Third_Party/FatFs/src/ff.c **** 			fs->wflag = 1;
1100:../libdaisy/Middlewares/Third_Party/FatFs/src/ff.c **** 			res = move_window(fs, fs->fatbase + (bc / SS(fs)));
1101:../libdaisy/Middlewares/Third_Party/FatFs/src/ff.c **** 			if (res != FR_OK) break;
1102:../libdaisy/Middlewares/Third_Party/FatFs/src/ff.c **** 			p = fs->win + bc % SS(fs);
1103:../libdaisy/Middlewares/Third_Party/FatFs/src/ff.c **** 			*p = (clst & 1) ? (BYTE)(val >> 4) : ((*p & 0xF0) | ((BYTE)(val >> 8) & 0x0F));
1104:../libdaisy/Middlewares/Third_Party/FatFs/src/ff.c **** 			fs->wflag = 1;
1105:../libdaisy/Middlewares/Third_Party/FatFs/src/ff.c **** 			break;
1106:../libdaisy/Middlewares/Third_Party/FatFs/src/ff.c **** 
1107:../libdaisy/Middlewares/Third_Party/FatFs/src/ff.c **** 		case FS_FAT16 :	/* WORD aligned items */
1108:../libdaisy/Middlewares/Third_Party/FatFs/src/ff.c **** 			res = move_window(fs, fs->fatbase + (clst / (SS(fs) / 2)));
1109:../libdaisy/Middlewares/Third_Party/FatFs/src/ff.c **** 			if (res != FR_OK) break;
1110:../libdaisy/Middlewares/Third_Party/FatFs/src/ff.c **** 			st_word(fs->win + clst * 2 % SS(fs), (WORD)val);
1111:../libdaisy/Middlewares/Third_Party/FatFs/src/ff.c **** 			fs->wflag = 1;
1112:../libdaisy/Middlewares/Third_Party/FatFs/src/ff.c **** 			break;
1113:../libdaisy/Middlewares/Third_Party/FatFs/src/ff.c **** 
1114:../libdaisy/Middlewares/Third_Party/FatFs/src/ff.c **** 		case FS_FAT32 :	/* DWORD aligned items */
1115:../libdaisy/Middlewares/Third_Party/FatFs/src/ff.c **** #if _FS_EXFAT
1116:../libdaisy/Middlewares/Third_Party/FatFs/src/ff.c **** 		case FS_EXFAT :
1117:../libdaisy/Middlewares/Third_Party/FatFs/src/ff.c **** #endif
1118:../libdaisy/Middlewares/Third_Party/FatFs/src/ff.c **** 			res = move_window(fs, fs->fatbase + (clst / (SS(fs) / 4)));
1119:../libdaisy/Middlewares/Third_Party/FatFs/src/ff.c **** 			if (res != FR_OK) break;
1120:../libdaisy/Middlewares/Third_Party/FatFs/src/ff.c **** 			if (!_FS_EXFAT || fs->fs_type != FS_EXFAT) {
1121:../libdaisy/Middlewares/Third_Party/FatFs/src/ff.c **** 				val = (val & 0x0FFFFFFF) | (ld_dword(fs->win + clst * 4 % SS(fs)) & 0xF0000000);
1122:../libdaisy/Middlewares/Third_Party/FatFs/src/ff.c **** 			}
1123:../libdaisy/Middlewares/Third_Party/FatFs/src/ff.c **** 			st_dword(fs->win + clst * 4 % SS(fs), val);
1124:../libdaisy/Middlewares/Third_Party/FatFs/src/ff.c **** 			fs->wflag = 1;
1125:../libdaisy/Middlewares/Third_Party/FatFs/src/ff.c **** 			break;
1126:../libdaisy/Middlewares/Third_Party/FatFs/src/ff.c **** 		}
1127:../libdaisy/Middlewares/Third_Party/FatFs/src/ff.c **** 	}
1128:../libdaisy/Middlewares/Third_Party/FatFs/src/ff.c **** 	return res;
ARM GAS  /var/folders/0d/2ntwfkp1791d52chq7d_xwdm0000gn/T//ccOVjVrq.s 			page 29


1129:../libdaisy/Middlewares/Third_Party/FatFs/src/ff.c **** }
1130:../libdaisy/Middlewares/Third_Party/FatFs/src/ff.c **** 
1131:../libdaisy/Middlewares/Third_Party/FatFs/src/ff.c **** #endif /* !_FS_READONLY */
1132:../libdaisy/Middlewares/Third_Party/FatFs/src/ff.c **** 
1133:../libdaisy/Middlewares/Third_Party/FatFs/src/ff.c **** 
1134:../libdaisy/Middlewares/Third_Party/FatFs/src/ff.c **** 
1135:../libdaisy/Middlewares/Third_Party/FatFs/src/ff.c **** 
1136:../libdaisy/Middlewares/Third_Party/FatFs/src/ff.c **** #if _FS_EXFAT && !_FS_READONLY
1137:../libdaisy/Middlewares/Third_Party/FatFs/src/ff.c **** /*-----------------------------------------------------------------------*/
1138:../libdaisy/Middlewares/Third_Party/FatFs/src/ff.c **** /* exFAT: Accessing FAT and Allocation Bitmap                            */
1139:../libdaisy/Middlewares/Third_Party/FatFs/src/ff.c **** /*-----------------------------------------------------------------------*/
1140:../libdaisy/Middlewares/Third_Party/FatFs/src/ff.c **** 
1141:../libdaisy/Middlewares/Third_Party/FatFs/src/ff.c **** /*--------------------------------------*/
1142:../libdaisy/Middlewares/Third_Party/FatFs/src/ff.c **** /* Find a contiguous free cluster block */
1143:../libdaisy/Middlewares/Third_Party/FatFs/src/ff.c **** /*--------------------------------------*/
1144:../libdaisy/Middlewares/Third_Party/FatFs/src/ff.c **** 
1145:../libdaisy/Middlewares/Third_Party/FatFs/src/ff.c **** static
1146:../libdaisy/Middlewares/Third_Party/FatFs/src/ff.c **** DWORD find_bitmap (	/* 0:Not found, 2..:Cluster block found, 0xFFFFFFFF:Disk error */
1147:../libdaisy/Middlewares/Third_Party/FatFs/src/ff.c **** 	FATFS* fs,	/* File system object */
1148:../libdaisy/Middlewares/Third_Party/FatFs/src/ff.c **** 	DWORD clst,	/* Cluster number to scan from */
1149:../libdaisy/Middlewares/Third_Party/FatFs/src/ff.c **** 	DWORD ncl	/* Number of contiguous clusters to find (1..) */
1150:../libdaisy/Middlewares/Third_Party/FatFs/src/ff.c **** )
1151:../libdaisy/Middlewares/Third_Party/FatFs/src/ff.c **** {
1152:../libdaisy/Middlewares/Third_Party/FatFs/src/ff.c **** 	BYTE bm, bv;
1153:../libdaisy/Middlewares/Third_Party/FatFs/src/ff.c **** 	UINT i;
1154:../libdaisy/Middlewares/Third_Party/FatFs/src/ff.c **** 	DWORD val, scl, ctr;
1155:../libdaisy/Middlewares/Third_Party/FatFs/src/ff.c **** 
1156:../libdaisy/Middlewares/Third_Party/FatFs/src/ff.c **** 
1157:../libdaisy/Middlewares/Third_Party/FatFs/src/ff.c **** 	clst -= 2;	/* The first bit in the bitmap corresponds to cluster #2 */
1158:../libdaisy/Middlewares/Third_Party/FatFs/src/ff.c **** 	if (clst >= fs->n_fatent - 2) clst = 0;
1159:../libdaisy/Middlewares/Third_Party/FatFs/src/ff.c **** 	scl = val = clst; ctr = 0;
1160:../libdaisy/Middlewares/Third_Party/FatFs/src/ff.c **** 	for (;;) {
1161:../libdaisy/Middlewares/Third_Party/FatFs/src/ff.c **** 		if (move_window(fs, fs->database + val / 8 / SS(fs)) != FR_OK) return 0xFFFFFFFF;	/* (assuming bi
1162:../libdaisy/Middlewares/Third_Party/FatFs/src/ff.c **** 		i = val / 8 % SS(fs); bm = 1 << (val % 8);
1163:../libdaisy/Middlewares/Third_Party/FatFs/src/ff.c **** 		do {
1164:../libdaisy/Middlewares/Third_Party/FatFs/src/ff.c **** 			do {
1165:../libdaisy/Middlewares/Third_Party/FatFs/src/ff.c **** 				bv = fs->win[i] & bm; bm <<= 1;		/* Get bit value */
1166:../libdaisy/Middlewares/Third_Party/FatFs/src/ff.c **** 				if (++val >= fs->n_fatent - 2) {	/* Next cluster (with wrap-around) */
1167:../libdaisy/Middlewares/Third_Party/FatFs/src/ff.c **** 					val = 0; bm = 0; i = SS(fs);
1168:../libdaisy/Middlewares/Third_Party/FatFs/src/ff.c **** 				}
1169:../libdaisy/Middlewares/Third_Party/FatFs/src/ff.c **** 				if (!bv) {	/* Is it a free cluster? */
1170:../libdaisy/Middlewares/Third_Party/FatFs/src/ff.c **** 					if (++ctr == ncl) return scl + 2;	/* Check if run length is sufficient for required */
1171:../libdaisy/Middlewares/Third_Party/FatFs/src/ff.c **** 				} else {
1172:../libdaisy/Middlewares/Third_Party/FatFs/src/ff.c **** 					scl = val; ctr = 0;		/* Encountered a cluster in-use, restart to scan */
1173:../libdaisy/Middlewares/Third_Party/FatFs/src/ff.c **** 				}
1174:../libdaisy/Middlewares/Third_Party/FatFs/src/ff.c **** 				if (val == clst) return 0;	/* All cluster scanned? */
1175:../libdaisy/Middlewares/Third_Party/FatFs/src/ff.c **** 			} while (bm);
1176:../libdaisy/Middlewares/Third_Party/FatFs/src/ff.c **** 			bm = 1;
1177:../libdaisy/Middlewares/Third_Party/FatFs/src/ff.c **** 		} while (++i < SS(fs));
1178:../libdaisy/Middlewares/Third_Party/FatFs/src/ff.c **** 	}
1179:../libdaisy/Middlewares/Third_Party/FatFs/src/ff.c **** }
1180:../libdaisy/Middlewares/Third_Party/FatFs/src/ff.c **** 
1181:../libdaisy/Middlewares/Third_Party/FatFs/src/ff.c **** 
1182:../libdaisy/Middlewares/Third_Party/FatFs/src/ff.c **** /*----------------------------------------*/
1183:../libdaisy/Middlewares/Third_Party/FatFs/src/ff.c **** /* Set/Clear a block of allocation bitmap */
1184:../libdaisy/Middlewares/Third_Party/FatFs/src/ff.c **** /*----------------------------------------*/
1185:../libdaisy/Middlewares/Third_Party/FatFs/src/ff.c **** 
ARM GAS  /var/folders/0d/2ntwfkp1791d52chq7d_xwdm0000gn/T//ccOVjVrq.s 			page 30


1186:../libdaisy/Middlewares/Third_Party/FatFs/src/ff.c **** static
1187:../libdaisy/Middlewares/Third_Party/FatFs/src/ff.c **** FRESULT change_bitmap (
1188:../libdaisy/Middlewares/Third_Party/FatFs/src/ff.c **** 	FATFS* fs,	/* File system object */
1189:../libdaisy/Middlewares/Third_Party/FatFs/src/ff.c **** 	DWORD clst,	/* Cluster number to change from */
1190:../libdaisy/Middlewares/Third_Party/FatFs/src/ff.c **** 	DWORD ncl,	/* Number of clusters to be changed */
1191:../libdaisy/Middlewares/Third_Party/FatFs/src/ff.c **** 	int bv		/* bit value to be set (0 or 1) */
1192:../libdaisy/Middlewares/Third_Party/FatFs/src/ff.c **** )
1193:../libdaisy/Middlewares/Third_Party/FatFs/src/ff.c **** {
1194:../libdaisy/Middlewares/Third_Party/FatFs/src/ff.c **** 	BYTE bm;
1195:../libdaisy/Middlewares/Third_Party/FatFs/src/ff.c **** 	UINT i;
1196:../libdaisy/Middlewares/Third_Party/FatFs/src/ff.c **** 	DWORD sect;
1197:../libdaisy/Middlewares/Third_Party/FatFs/src/ff.c **** 
1198:../libdaisy/Middlewares/Third_Party/FatFs/src/ff.c **** 	clst -= 2;	/* The first bit corresponds to cluster #2 */
1199:../libdaisy/Middlewares/Third_Party/FatFs/src/ff.c **** 	sect = fs->database + clst / 8 / SS(fs);	/* Sector address (assuming bitmap is located top of the 
1200:../libdaisy/Middlewares/Third_Party/FatFs/src/ff.c **** 	i = clst / 8 % SS(fs);						/* Byte offset in the sector */
1201:../libdaisy/Middlewares/Third_Party/FatFs/src/ff.c **** 	bm = 1 << (clst % 8);						/* Bit mask in the byte */
1202:../libdaisy/Middlewares/Third_Party/FatFs/src/ff.c **** 	for (;;) {
1203:../libdaisy/Middlewares/Third_Party/FatFs/src/ff.c **** 		if (move_window(fs, sect++) != FR_OK) return FR_DISK_ERR;
1204:../libdaisy/Middlewares/Third_Party/FatFs/src/ff.c **** 		do {
1205:../libdaisy/Middlewares/Third_Party/FatFs/src/ff.c **** 			do {
1206:../libdaisy/Middlewares/Third_Party/FatFs/src/ff.c **** 				if (bv == (int)((fs->win[i] & bm) != 0)) return FR_INT_ERR;	/* Is the bit expected value? */
1207:../libdaisy/Middlewares/Third_Party/FatFs/src/ff.c **** 				fs->win[i] ^= bm;	/* Flip the bit */
1208:../libdaisy/Middlewares/Third_Party/FatFs/src/ff.c **** 				fs->wflag = 1;
1209:../libdaisy/Middlewares/Third_Party/FatFs/src/ff.c **** 				if (--ncl == 0) return FR_OK;	/* All bits processed? */
1210:../libdaisy/Middlewares/Third_Party/FatFs/src/ff.c **** 			} while (bm <<= 1);		/* Next bit */
1211:../libdaisy/Middlewares/Third_Party/FatFs/src/ff.c **** 			bm = 1;
1212:../libdaisy/Middlewares/Third_Party/FatFs/src/ff.c **** 		} while (++i < SS(fs));		/* Next byte */
1213:../libdaisy/Middlewares/Third_Party/FatFs/src/ff.c **** 		i = 0;
1214:../libdaisy/Middlewares/Third_Party/FatFs/src/ff.c **** 	}
1215:../libdaisy/Middlewares/Third_Party/FatFs/src/ff.c **** }
1216:../libdaisy/Middlewares/Third_Party/FatFs/src/ff.c **** 
1217:../libdaisy/Middlewares/Third_Party/FatFs/src/ff.c **** 
1218:../libdaisy/Middlewares/Third_Party/FatFs/src/ff.c **** /*---------------------------------------------*/
1219:../libdaisy/Middlewares/Third_Party/FatFs/src/ff.c **** /* Fill the first fragment of the FAT chain    */
1220:../libdaisy/Middlewares/Third_Party/FatFs/src/ff.c **** /*---------------------------------------------*/
1221:../libdaisy/Middlewares/Third_Party/FatFs/src/ff.c **** 
1222:../libdaisy/Middlewares/Third_Party/FatFs/src/ff.c **** static
1223:../libdaisy/Middlewares/Third_Party/FatFs/src/ff.c **** FRESULT fill_first_frag (
1224:../libdaisy/Middlewares/Third_Party/FatFs/src/ff.c **** 	_FDID* obj	/* Pointer to the corresponding object */
1225:../libdaisy/Middlewares/Third_Party/FatFs/src/ff.c **** )
1226:../libdaisy/Middlewares/Third_Party/FatFs/src/ff.c **** {
1227:../libdaisy/Middlewares/Third_Party/FatFs/src/ff.c **** 	FRESULT res;
1228:../libdaisy/Middlewares/Third_Party/FatFs/src/ff.c **** 	DWORD cl, n;
1229:../libdaisy/Middlewares/Third_Party/FatFs/src/ff.c **** 
1230:../libdaisy/Middlewares/Third_Party/FatFs/src/ff.c **** 	if (obj->stat == 3) {	/* Has the object been changed 'fragmented'? */
1231:../libdaisy/Middlewares/Third_Party/FatFs/src/ff.c **** 		for (cl = obj->sclust, n = obj->n_cont; n; cl++, n--) {	/* Create cluster chain on the FAT */
1232:../libdaisy/Middlewares/Third_Party/FatFs/src/ff.c **** 			res = put_fat(obj->fs, cl, cl + 1);
1233:../libdaisy/Middlewares/Third_Party/FatFs/src/ff.c **** 			if (res != FR_OK) return res;
1234:../libdaisy/Middlewares/Third_Party/FatFs/src/ff.c **** 		}
1235:../libdaisy/Middlewares/Third_Party/FatFs/src/ff.c **** 		obj->stat = 0;	/* Change status 'FAT chain is valid' */
1236:../libdaisy/Middlewares/Third_Party/FatFs/src/ff.c **** 	}
1237:../libdaisy/Middlewares/Third_Party/FatFs/src/ff.c **** 	return FR_OK;
1238:../libdaisy/Middlewares/Third_Party/FatFs/src/ff.c **** }
1239:../libdaisy/Middlewares/Third_Party/FatFs/src/ff.c **** 
1240:../libdaisy/Middlewares/Third_Party/FatFs/src/ff.c **** 
1241:../libdaisy/Middlewares/Third_Party/FatFs/src/ff.c **** /*---------------------------------------------*/
1242:../libdaisy/Middlewares/Third_Party/FatFs/src/ff.c **** /* Fill the last fragment of the FAT chain     */
ARM GAS  /var/folders/0d/2ntwfkp1791d52chq7d_xwdm0000gn/T//ccOVjVrq.s 			page 31


1243:../libdaisy/Middlewares/Third_Party/FatFs/src/ff.c **** /*---------------------------------------------*/
1244:../libdaisy/Middlewares/Third_Party/FatFs/src/ff.c **** 
1245:../libdaisy/Middlewares/Third_Party/FatFs/src/ff.c **** static
1246:../libdaisy/Middlewares/Third_Party/FatFs/src/ff.c **** FRESULT fill_last_frag (
1247:../libdaisy/Middlewares/Third_Party/FatFs/src/ff.c **** 	_FDID* obj,	/* Pointer to the corresponding object */
1248:../libdaisy/Middlewares/Third_Party/FatFs/src/ff.c **** 	DWORD lcl,	/* Last cluster of the fragment */
1249:../libdaisy/Middlewares/Third_Party/FatFs/src/ff.c **** 	DWORD term	/* Value to set the last FAT entry */
1250:../libdaisy/Middlewares/Third_Party/FatFs/src/ff.c **** )
1251:../libdaisy/Middlewares/Third_Party/FatFs/src/ff.c **** {
1252:../libdaisy/Middlewares/Third_Party/FatFs/src/ff.c **** 	FRESULT res;
1253:../libdaisy/Middlewares/Third_Party/FatFs/src/ff.c **** 
1254:../libdaisy/Middlewares/Third_Party/FatFs/src/ff.c **** 	while (obj->n_frag > 0) {	/* Create the last chain on the FAT */
1255:../libdaisy/Middlewares/Third_Party/FatFs/src/ff.c **** 		res = put_fat(obj->fs, lcl - obj->n_frag + 1, (obj->n_frag > 1) ? lcl - obj->n_frag + 2 : term);
1256:../libdaisy/Middlewares/Third_Party/FatFs/src/ff.c **** 		if (res != FR_OK) return res;
1257:../libdaisy/Middlewares/Third_Party/FatFs/src/ff.c **** 		obj->n_frag--;
1258:../libdaisy/Middlewares/Third_Party/FatFs/src/ff.c **** 	}
1259:../libdaisy/Middlewares/Third_Party/FatFs/src/ff.c **** 	return FR_OK;
1260:../libdaisy/Middlewares/Third_Party/FatFs/src/ff.c **** }
1261:../libdaisy/Middlewares/Third_Party/FatFs/src/ff.c **** 
1262:../libdaisy/Middlewares/Third_Party/FatFs/src/ff.c **** #endif	/* _FS_EXFAT && !_FS_READONLY */
1263:../libdaisy/Middlewares/Third_Party/FatFs/src/ff.c **** 
1264:../libdaisy/Middlewares/Third_Party/FatFs/src/ff.c **** 
1265:../libdaisy/Middlewares/Third_Party/FatFs/src/ff.c **** 
1266:../libdaisy/Middlewares/Third_Party/FatFs/src/ff.c **** #if !_FS_READONLY
1267:../libdaisy/Middlewares/Third_Party/FatFs/src/ff.c **** /*-----------------------------------------------------------------------*/
1268:../libdaisy/Middlewares/Third_Party/FatFs/src/ff.c **** /* FAT handling - Remove a cluster chain                                 */
1269:../libdaisy/Middlewares/Third_Party/FatFs/src/ff.c **** /*-----------------------------------------------------------------------*/
1270:../libdaisy/Middlewares/Third_Party/FatFs/src/ff.c **** static
1271:../libdaisy/Middlewares/Third_Party/FatFs/src/ff.c **** FRESULT remove_chain (	/* FR_OK(0):succeeded, !=0:error */
1272:../libdaisy/Middlewares/Third_Party/FatFs/src/ff.c **** 	_FDID* obj,			/* Corresponding object */
1273:../libdaisy/Middlewares/Third_Party/FatFs/src/ff.c **** 	DWORD clst,			/* Cluster to remove a chain from */
1274:../libdaisy/Middlewares/Third_Party/FatFs/src/ff.c **** 	DWORD pclst			/* Previous cluster of clst (0:an entire chain) */
1275:../libdaisy/Middlewares/Third_Party/FatFs/src/ff.c **** )
1276:../libdaisy/Middlewares/Third_Party/FatFs/src/ff.c **** {
1277:../libdaisy/Middlewares/Third_Party/FatFs/src/ff.c **** 	FRESULT res = FR_OK;
1278:../libdaisy/Middlewares/Third_Party/FatFs/src/ff.c **** 	DWORD nxt;
1279:../libdaisy/Middlewares/Third_Party/FatFs/src/ff.c **** 	FATFS *fs = obj->fs;
1280:../libdaisy/Middlewares/Third_Party/FatFs/src/ff.c **** #if _FS_EXFAT || _USE_TRIM
1281:../libdaisy/Middlewares/Third_Party/FatFs/src/ff.c **** 	DWORD scl = clst, ecl = clst;
1282:../libdaisy/Middlewares/Third_Party/FatFs/src/ff.c **** #endif
1283:../libdaisy/Middlewares/Third_Party/FatFs/src/ff.c **** #if _USE_TRIM
1284:../libdaisy/Middlewares/Third_Party/FatFs/src/ff.c **** 	DWORD rt[2];
1285:../libdaisy/Middlewares/Third_Party/FatFs/src/ff.c **** #endif
1286:../libdaisy/Middlewares/Third_Party/FatFs/src/ff.c **** 
1287:../libdaisy/Middlewares/Third_Party/FatFs/src/ff.c **** 	if (clst < 2 || clst >= fs->n_fatent) return FR_INT_ERR;	/* Check if in valid range */
1288:../libdaisy/Middlewares/Third_Party/FatFs/src/ff.c **** 
1289:../libdaisy/Middlewares/Third_Party/FatFs/src/ff.c **** 	/* Mark the previous cluster 'EOC' on the FAT if it exists */
1290:../libdaisy/Middlewares/Third_Party/FatFs/src/ff.c **** 	if (pclst && (!_FS_EXFAT || fs->fs_type != FS_EXFAT || obj->stat != 2)) {
1291:../libdaisy/Middlewares/Third_Party/FatFs/src/ff.c **** 		res = put_fat(fs, pclst, 0xFFFFFFFF);
1292:../libdaisy/Middlewares/Third_Party/FatFs/src/ff.c **** 		if (res != FR_OK) return res;
1293:../libdaisy/Middlewares/Third_Party/FatFs/src/ff.c **** 	}
1294:../libdaisy/Middlewares/Third_Party/FatFs/src/ff.c **** 
1295:../libdaisy/Middlewares/Third_Party/FatFs/src/ff.c **** 	/* Remove the chain */
1296:../libdaisy/Middlewares/Third_Party/FatFs/src/ff.c **** 	do {
1297:../libdaisy/Middlewares/Third_Party/FatFs/src/ff.c **** 		nxt = get_fat(obj, clst);			/* Get cluster status */
1298:../libdaisy/Middlewares/Third_Party/FatFs/src/ff.c **** 		if (nxt == 0) break;				/* Empty cluster? */
1299:../libdaisy/Middlewares/Third_Party/FatFs/src/ff.c **** 		if (nxt == 1) return FR_INT_ERR;	/* Internal error? */
ARM GAS  /var/folders/0d/2ntwfkp1791d52chq7d_xwdm0000gn/T//ccOVjVrq.s 			page 32


1300:../libdaisy/Middlewares/Third_Party/FatFs/src/ff.c **** 		if (nxt == 0xFFFFFFFF) return FR_DISK_ERR;	/* Disk error? */
1301:../libdaisy/Middlewares/Third_Party/FatFs/src/ff.c **** 		if (!_FS_EXFAT || fs->fs_type != FS_EXFAT) {
1302:../libdaisy/Middlewares/Third_Party/FatFs/src/ff.c **** 			res = put_fat(fs, clst, 0);		/* Mark the cluster 'free' on the FAT */
1303:../libdaisy/Middlewares/Third_Party/FatFs/src/ff.c **** 			if (res != FR_OK) return res;
1304:../libdaisy/Middlewares/Third_Party/FatFs/src/ff.c **** 		}
1305:../libdaisy/Middlewares/Third_Party/FatFs/src/ff.c **** 		if (fs->free_clst < fs->n_fatent - 2) {	/* Update FSINFO */
1306:../libdaisy/Middlewares/Third_Party/FatFs/src/ff.c **** 			fs->free_clst++;
1307:../libdaisy/Middlewares/Third_Party/FatFs/src/ff.c **** 			fs->fsi_flag |= 1;
1308:../libdaisy/Middlewares/Third_Party/FatFs/src/ff.c **** 		}
1309:../libdaisy/Middlewares/Third_Party/FatFs/src/ff.c **** #if _FS_EXFAT || _USE_TRIM
1310:../libdaisy/Middlewares/Third_Party/FatFs/src/ff.c **** 		if (ecl + 1 == nxt) {	/* Is next cluster contiguous? */
1311:../libdaisy/Middlewares/Third_Party/FatFs/src/ff.c **** 			ecl = nxt;
1312:../libdaisy/Middlewares/Third_Party/FatFs/src/ff.c **** 		} else {				/* End of contiguous cluster block */
1313:../libdaisy/Middlewares/Third_Party/FatFs/src/ff.c **** #if _FS_EXFAT
1314:../libdaisy/Middlewares/Third_Party/FatFs/src/ff.c **** 			if (fs->fs_type == FS_EXFAT) {
1315:../libdaisy/Middlewares/Third_Party/FatFs/src/ff.c **** 				res = change_bitmap(fs, scl, ecl - scl + 1, 0);	/* Mark the cluster block 'free' on the bitmap 
1316:../libdaisy/Middlewares/Third_Party/FatFs/src/ff.c **** 				if (res != FR_OK) return res;
1317:../libdaisy/Middlewares/Third_Party/FatFs/src/ff.c **** 			}
1318:../libdaisy/Middlewares/Third_Party/FatFs/src/ff.c **** #endif
1319:../libdaisy/Middlewares/Third_Party/FatFs/src/ff.c **** #if _USE_TRIM
1320:../libdaisy/Middlewares/Third_Party/FatFs/src/ff.c **** 			rt[0] = clust2sect(fs, scl);					/* Start sector */
1321:../libdaisy/Middlewares/Third_Party/FatFs/src/ff.c **** 			rt[1] = clust2sect(fs, ecl) + fs->csize - 1;	/* End sector */
1322:../libdaisy/Middlewares/Third_Party/FatFs/src/ff.c **** 			disk_ioctl(fs->drv, CTRL_TRIM, rt);				/* Inform device the block can be erased */
1323:../libdaisy/Middlewares/Third_Party/FatFs/src/ff.c **** #endif
1324:../libdaisy/Middlewares/Third_Party/FatFs/src/ff.c **** 			scl = ecl = nxt;
1325:../libdaisy/Middlewares/Third_Party/FatFs/src/ff.c **** 		}
1326:../libdaisy/Middlewares/Third_Party/FatFs/src/ff.c **** #endif
1327:../libdaisy/Middlewares/Third_Party/FatFs/src/ff.c **** 		clst = nxt;					/* Next cluster */
1328:../libdaisy/Middlewares/Third_Party/FatFs/src/ff.c **** 	} while (clst < fs->n_fatent);	/* Repeat while not the last link */
1329:../libdaisy/Middlewares/Third_Party/FatFs/src/ff.c **** 
1330:../libdaisy/Middlewares/Third_Party/FatFs/src/ff.c **** #if _FS_EXFAT
1331:../libdaisy/Middlewares/Third_Party/FatFs/src/ff.c **** 	if (fs->fs_type == FS_EXFAT) {
1332:../libdaisy/Middlewares/Third_Party/FatFs/src/ff.c **** 		if (pclst == 0) {	/* Does the object have no chain? */
1333:../libdaisy/Middlewares/Third_Party/FatFs/src/ff.c **** 			obj->stat = 0;		/* Change the object status 'initial' */
1334:../libdaisy/Middlewares/Third_Party/FatFs/src/ff.c **** 		} else {
1335:../libdaisy/Middlewares/Third_Party/FatFs/src/ff.c **** 			if (obj->stat == 3 && pclst >= obj->sclust && pclst <= obj->sclust + obj->n_cont) {	/* Did the c
1336:../libdaisy/Middlewares/Third_Party/FatFs/src/ff.c **** 				obj->stat = 2;	/* Change the object status 'contiguous' */
1337:../libdaisy/Middlewares/Third_Party/FatFs/src/ff.c **** 			}
1338:../libdaisy/Middlewares/Third_Party/FatFs/src/ff.c **** 		}
1339:../libdaisy/Middlewares/Third_Party/FatFs/src/ff.c **** 	}
1340:../libdaisy/Middlewares/Third_Party/FatFs/src/ff.c **** #endif
1341:../libdaisy/Middlewares/Third_Party/FatFs/src/ff.c **** 	return FR_OK;
1342:../libdaisy/Middlewares/Third_Party/FatFs/src/ff.c **** }
1343:../libdaisy/Middlewares/Third_Party/FatFs/src/ff.c **** 
1344:../libdaisy/Middlewares/Third_Party/FatFs/src/ff.c **** 
1345:../libdaisy/Middlewares/Third_Party/FatFs/src/ff.c **** 
1346:../libdaisy/Middlewares/Third_Party/FatFs/src/ff.c **** 
1347:../libdaisy/Middlewares/Third_Party/FatFs/src/ff.c **** /*-----------------------------------------------------------------------*/
1348:../libdaisy/Middlewares/Third_Party/FatFs/src/ff.c **** /* FAT handling - Stretch a chain or Create a new chain                  */
1349:../libdaisy/Middlewares/Third_Party/FatFs/src/ff.c **** /*-----------------------------------------------------------------------*/
1350:../libdaisy/Middlewares/Third_Party/FatFs/src/ff.c **** static
1351:../libdaisy/Middlewares/Third_Party/FatFs/src/ff.c **** DWORD create_chain (	/* 0:No free cluster, 1:Internal error, 0xFFFFFFFF:Disk error, >=2:New cluster
1352:../libdaisy/Middlewares/Third_Party/FatFs/src/ff.c **** 	_FDID* obj,			/* Corresponding object */
1353:../libdaisy/Middlewares/Third_Party/FatFs/src/ff.c **** 	DWORD clst			/* Cluster# to stretch, 0:Create a new chain */
1354:../libdaisy/Middlewares/Third_Party/FatFs/src/ff.c **** )
1355:../libdaisy/Middlewares/Third_Party/FatFs/src/ff.c **** {
1356:../libdaisy/Middlewares/Third_Party/FatFs/src/ff.c **** 	DWORD cs, ncl, scl;
ARM GAS  /var/folders/0d/2ntwfkp1791d52chq7d_xwdm0000gn/T//ccOVjVrq.s 			page 33


1357:../libdaisy/Middlewares/Third_Party/FatFs/src/ff.c **** 	FRESULT res;
1358:../libdaisy/Middlewares/Third_Party/FatFs/src/ff.c **** 	FATFS *fs = obj->fs;
1359:../libdaisy/Middlewares/Third_Party/FatFs/src/ff.c **** 
1360:../libdaisy/Middlewares/Third_Party/FatFs/src/ff.c **** 
1361:../libdaisy/Middlewares/Third_Party/FatFs/src/ff.c **** 	if (clst == 0) {	/* Create a new chain */
1362:../libdaisy/Middlewares/Third_Party/FatFs/src/ff.c **** 		scl = fs->last_clst;				/* Get suggested cluster to start from */
1363:../libdaisy/Middlewares/Third_Party/FatFs/src/ff.c **** 		if (scl == 0 || scl >= fs->n_fatent) scl = 1;
1364:../libdaisy/Middlewares/Third_Party/FatFs/src/ff.c **** 	}
1365:../libdaisy/Middlewares/Third_Party/FatFs/src/ff.c **** 	else {				/* Stretch current chain */
1366:../libdaisy/Middlewares/Third_Party/FatFs/src/ff.c **** 		cs = get_fat(obj, clst);			/* Check the cluster status */
1367:../libdaisy/Middlewares/Third_Party/FatFs/src/ff.c **** 		if (cs < 2) return 1;				/* Invalid FAT value */
1368:../libdaisy/Middlewares/Third_Party/FatFs/src/ff.c **** 		if (cs == 0xFFFFFFFF) return cs;	/* A disk error occurred */
1369:../libdaisy/Middlewares/Third_Party/FatFs/src/ff.c **** 		if (cs < fs->n_fatent) return cs;	/* It is already followed by next cluster */
1370:../libdaisy/Middlewares/Third_Party/FatFs/src/ff.c **** 		scl = clst;
1371:../libdaisy/Middlewares/Third_Party/FatFs/src/ff.c **** 	}
1372:../libdaisy/Middlewares/Third_Party/FatFs/src/ff.c **** 
1373:../libdaisy/Middlewares/Third_Party/FatFs/src/ff.c **** #if _FS_EXFAT
1374:../libdaisy/Middlewares/Third_Party/FatFs/src/ff.c **** 	if (fs->fs_type == FS_EXFAT) {	/* On the exFAT volume */
1375:../libdaisy/Middlewares/Third_Party/FatFs/src/ff.c **** 		ncl = find_bitmap(fs, scl, 1);				/* Find a free cluster */
1376:../libdaisy/Middlewares/Third_Party/FatFs/src/ff.c **** 		if (ncl == 0 || ncl == 0xFFFFFFFF) return ncl;	/* No free cluster or hard error? */
1377:../libdaisy/Middlewares/Third_Party/FatFs/src/ff.c **** 		res = change_bitmap(fs, ncl, 1, 1);			/* Mark the cluster 'in use' */
1378:../libdaisy/Middlewares/Third_Party/FatFs/src/ff.c **** 		if (res == FR_INT_ERR) return 1;
1379:../libdaisy/Middlewares/Third_Party/FatFs/src/ff.c **** 		if (res == FR_DISK_ERR) return 0xFFFFFFFF;
1380:../libdaisy/Middlewares/Third_Party/FatFs/src/ff.c **** 		if (clst == 0) {							/* Is it a new chain? */
1381:../libdaisy/Middlewares/Third_Party/FatFs/src/ff.c **** 			obj->stat = 2;							/* Set status 'contiguous' */
1382:../libdaisy/Middlewares/Third_Party/FatFs/src/ff.c **** 		} else {									/* It is a stretched chain */
1383:../libdaisy/Middlewares/Third_Party/FatFs/src/ff.c **** 			if (obj->stat == 2 && ncl != scl + 1) {	/* Is the chain got fragmented? */
1384:../libdaisy/Middlewares/Third_Party/FatFs/src/ff.c **** 				obj->n_cont = scl - obj->sclust;	/* Set size of the contiguous part */
1385:../libdaisy/Middlewares/Third_Party/FatFs/src/ff.c **** 				obj->stat = 3;						/* Change status 'just fragmented' */
1386:../libdaisy/Middlewares/Third_Party/FatFs/src/ff.c **** 			}
1387:../libdaisy/Middlewares/Third_Party/FatFs/src/ff.c **** 		}
1388:../libdaisy/Middlewares/Third_Party/FatFs/src/ff.c **** 		if (obj->stat != 2) {	/* Is the file non-contiguous? */
1389:../libdaisy/Middlewares/Third_Party/FatFs/src/ff.c **** 			if (ncl == clst + 1) {	/* Is the cluster next to previous one? */
1390:../libdaisy/Middlewares/Third_Party/FatFs/src/ff.c **** 				obj->n_frag = obj->n_frag ? obj->n_frag + 1 : 2;	/* Increment size of last framgent */
1391:../libdaisy/Middlewares/Third_Party/FatFs/src/ff.c **** 			} else {				/* New fragment */
1392:../libdaisy/Middlewares/Third_Party/FatFs/src/ff.c **** 				if (obj->n_frag == 0) obj->n_frag = 1;
1393:../libdaisy/Middlewares/Third_Party/FatFs/src/ff.c **** 				res = fill_last_frag(obj, clst, ncl);	/* Fill last fragment on the FAT and link it to new one *
1394:../libdaisy/Middlewares/Third_Party/FatFs/src/ff.c **** 				if (res == FR_OK) obj->n_frag = 1;
1395:../libdaisy/Middlewares/Third_Party/FatFs/src/ff.c **** 			}
1396:../libdaisy/Middlewares/Third_Party/FatFs/src/ff.c **** 		}
1397:../libdaisy/Middlewares/Third_Party/FatFs/src/ff.c **** 	} else
1398:../libdaisy/Middlewares/Third_Party/FatFs/src/ff.c **** #endif
1399:../libdaisy/Middlewares/Third_Party/FatFs/src/ff.c **** 	{	/* On the FAT12/16/32 volume */
1400:../libdaisy/Middlewares/Third_Party/FatFs/src/ff.c **** 		ncl = scl;	/* Start cluster */
1401:../libdaisy/Middlewares/Third_Party/FatFs/src/ff.c **** 		for (;;) {
1402:../libdaisy/Middlewares/Third_Party/FatFs/src/ff.c **** 			ncl++;							/* Next cluster */
1403:../libdaisy/Middlewares/Third_Party/FatFs/src/ff.c **** 			if (ncl >= fs->n_fatent) {		/* Check wrap-around */
1404:../libdaisy/Middlewares/Third_Party/FatFs/src/ff.c **** 				ncl = 2;
1405:../libdaisy/Middlewares/Third_Party/FatFs/src/ff.c **** 				if (ncl > scl) return 0;	/* No free cluster */
1406:../libdaisy/Middlewares/Third_Party/FatFs/src/ff.c **** 			}
1407:../libdaisy/Middlewares/Third_Party/FatFs/src/ff.c **** 			cs = get_fat(obj, ncl);			/* Get the cluster status */
1408:../libdaisy/Middlewares/Third_Party/FatFs/src/ff.c **** 			if (cs == 0) break;				/* Found a free cluster */
1409:../libdaisy/Middlewares/Third_Party/FatFs/src/ff.c **** 			if (cs == 1 || cs == 0xFFFFFFFF) return cs;	/* An error occurred */
1410:../libdaisy/Middlewares/Third_Party/FatFs/src/ff.c **** 			if (ncl == scl) return 0;		/* No free cluster */
1411:../libdaisy/Middlewares/Third_Party/FatFs/src/ff.c **** 		}
1412:../libdaisy/Middlewares/Third_Party/FatFs/src/ff.c **** 		res = put_fat(fs, ncl, 0xFFFFFFFF);	/* Mark the new cluster 'EOC' */
1413:../libdaisy/Middlewares/Third_Party/FatFs/src/ff.c **** 		if (res == FR_OK && clst != 0) {
ARM GAS  /var/folders/0d/2ntwfkp1791d52chq7d_xwdm0000gn/T//ccOVjVrq.s 			page 34


1414:../libdaisy/Middlewares/Third_Party/FatFs/src/ff.c **** 			res = put_fat(fs, clst, ncl);	/* Link it from the previous one if needed */
1415:../libdaisy/Middlewares/Third_Party/FatFs/src/ff.c **** 		}
1416:../libdaisy/Middlewares/Third_Party/FatFs/src/ff.c **** 	}
1417:../libdaisy/Middlewares/Third_Party/FatFs/src/ff.c **** 
1418:../libdaisy/Middlewares/Third_Party/FatFs/src/ff.c **** 	if (res == FR_OK) {			/* Update FSINFO if function succeeded. */
1419:../libdaisy/Middlewares/Third_Party/FatFs/src/ff.c **** 		fs->last_clst = ncl;
1420:../libdaisy/Middlewares/Third_Party/FatFs/src/ff.c **** 		if (fs->free_clst <= fs->n_fatent - 2) fs->free_clst--;
1421:../libdaisy/Middlewares/Third_Party/FatFs/src/ff.c **** 		fs->fsi_flag |= 1;
1422:../libdaisy/Middlewares/Third_Party/FatFs/src/ff.c **** 	} else {
1423:../libdaisy/Middlewares/Third_Party/FatFs/src/ff.c **** 		ncl = (res == FR_DISK_ERR) ? 0xFFFFFFFF : 1;	/* Failed. Generate error status */
1424:../libdaisy/Middlewares/Third_Party/FatFs/src/ff.c **** 	}
1425:../libdaisy/Middlewares/Third_Party/FatFs/src/ff.c **** 
1426:../libdaisy/Middlewares/Third_Party/FatFs/src/ff.c **** 	return ncl;		/* Return new cluster number or error status */
1427:../libdaisy/Middlewares/Third_Party/FatFs/src/ff.c **** }
1428:../libdaisy/Middlewares/Third_Party/FatFs/src/ff.c **** 
1429:../libdaisy/Middlewares/Third_Party/FatFs/src/ff.c **** #endif /* !_FS_READONLY */
1430:../libdaisy/Middlewares/Third_Party/FatFs/src/ff.c **** 
1431:../libdaisy/Middlewares/Third_Party/FatFs/src/ff.c **** 
1432:../libdaisy/Middlewares/Third_Party/FatFs/src/ff.c **** 
1433:../libdaisy/Middlewares/Third_Party/FatFs/src/ff.c **** 
1434:../libdaisy/Middlewares/Third_Party/FatFs/src/ff.c **** #if _USE_FASTSEEK
1435:../libdaisy/Middlewares/Third_Party/FatFs/src/ff.c **** /*-----------------------------------------------------------------------*/
1436:../libdaisy/Middlewares/Third_Party/FatFs/src/ff.c **** /* FAT handling - Convert offset into cluster with link map table        */
1437:../libdaisy/Middlewares/Third_Party/FatFs/src/ff.c **** /*-----------------------------------------------------------------------*/
1438:../libdaisy/Middlewares/Third_Party/FatFs/src/ff.c **** 
1439:../libdaisy/Middlewares/Third_Party/FatFs/src/ff.c **** static
1440:../libdaisy/Middlewares/Third_Party/FatFs/src/ff.c **** DWORD clmt_clust (	/* <2:Error, >=2:Cluster number */
1441:../libdaisy/Middlewares/Third_Party/FatFs/src/ff.c **** 	FIL* fp,		/* Pointer to the file object */
1442:../libdaisy/Middlewares/Third_Party/FatFs/src/ff.c **** 	FSIZE_t ofs		/* File offset to be converted to cluster# */
1443:../libdaisy/Middlewares/Third_Party/FatFs/src/ff.c **** )
1444:../libdaisy/Middlewares/Third_Party/FatFs/src/ff.c **** {
1445:../libdaisy/Middlewares/Third_Party/FatFs/src/ff.c **** 	DWORD cl, ncl, *tbl;
1446:../libdaisy/Middlewares/Third_Party/FatFs/src/ff.c **** 	FATFS *fs = fp->obj.fs;
1447:../libdaisy/Middlewares/Third_Party/FatFs/src/ff.c **** 
1448:../libdaisy/Middlewares/Third_Party/FatFs/src/ff.c **** 
1449:../libdaisy/Middlewares/Third_Party/FatFs/src/ff.c **** 	tbl = fp->cltbl + 1;	/* Top of CLMT */
1450:../libdaisy/Middlewares/Third_Party/FatFs/src/ff.c **** 	cl = (DWORD)(ofs / SS(fs) / fs->csize);	/* Cluster order from top of the file */
1451:../libdaisy/Middlewares/Third_Party/FatFs/src/ff.c **** 	for (;;) {
1452:../libdaisy/Middlewares/Third_Party/FatFs/src/ff.c **** 		ncl = *tbl++;			/* Number of cluters in the fragment */
1453:../libdaisy/Middlewares/Third_Party/FatFs/src/ff.c **** 		if (ncl == 0) return 0;	/* End of table? (error) */
1454:../libdaisy/Middlewares/Third_Party/FatFs/src/ff.c **** 		if (cl < ncl) break;	/* In this fragment? */
1455:../libdaisy/Middlewares/Third_Party/FatFs/src/ff.c **** 		cl -= ncl; tbl++;		/* Next fragment */
1456:../libdaisy/Middlewares/Third_Party/FatFs/src/ff.c **** 	}
1457:../libdaisy/Middlewares/Third_Party/FatFs/src/ff.c **** 	return cl + *tbl;	/* Return the cluster number */
1458:../libdaisy/Middlewares/Third_Party/FatFs/src/ff.c **** }
1459:../libdaisy/Middlewares/Third_Party/FatFs/src/ff.c **** 
1460:../libdaisy/Middlewares/Third_Party/FatFs/src/ff.c **** #endif	/* _USE_FASTSEEK */
1461:../libdaisy/Middlewares/Third_Party/FatFs/src/ff.c **** 
1462:../libdaisy/Middlewares/Third_Party/FatFs/src/ff.c **** 
1463:../libdaisy/Middlewares/Third_Party/FatFs/src/ff.c **** 
1464:../libdaisy/Middlewares/Third_Party/FatFs/src/ff.c **** 
1465:../libdaisy/Middlewares/Third_Party/FatFs/src/ff.c **** /*-----------------------------------------------------------------------*/
1466:../libdaisy/Middlewares/Third_Party/FatFs/src/ff.c **** /* Directory handling - Set directory index                              */
1467:../libdaisy/Middlewares/Third_Party/FatFs/src/ff.c **** /*-----------------------------------------------------------------------*/
1468:../libdaisy/Middlewares/Third_Party/FatFs/src/ff.c **** 
1469:../libdaisy/Middlewares/Third_Party/FatFs/src/ff.c **** static
1470:../libdaisy/Middlewares/Third_Party/FatFs/src/ff.c **** FRESULT dir_sdi (	/* FR_OK(0):succeeded, !=0:error */
ARM GAS  /var/folders/0d/2ntwfkp1791d52chq7d_xwdm0000gn/T//ccOVjVrq.s 			page 35


1471:../libdaisy/Middlewares/Third_Party/FatFs/src/ff.c **** 	DIR* dp,		/* Pointer to directory object */
1472:../libdaisy/Middlewares/Third_Party/FatFs/src/ff.c **** 	DWORD ofs		/* Offset of directory table */
1473:../libdaisy/Middlewares/Third_Party/FatFs/src/ff.c **** )
1474:../libdaisy/Middlewares/Third_Party/FatFs/src/ff.c **** {
1475:../libdaisy/Middlewares/Third_Party/FatFs/src/ff.c **** 	DWORD csz, clst;
1476:../libdaisy/Middlewares/Third_Party/FatFs/src/ff.c **** 	FATFS *fs = dp->obj.fs;
1477:../libdaisy/Middlewares/Third_Party/FatFs/src/ff.c **** 
1478:../libdaisy/Middlewares/Third_Party/FatFs/src/ff.c **** 
1479:../libdaisy/Middlewares/Third_Party/FatFs/src/ff.c **** 	if (ofs >= (DWORD)((_FS_EXFAT && fs->fs_type == FS_EXFAT) ? MAX_DIR_EX : MAX_DIR) || ofs % SZDIRE)
1480:../libdaisy/Middlewares/Third_Party/FatFs/src/ff.c **** 		return FR_INT_ERR;
1481:../libdaisy/Middlewares/Third_Party/FatFs/src/ff.c **** 	}
1482:../libdaisy/Middlewares/Third_Party/FatFs/src/ff.c **** 	dp->dptr = ofs;				/* Set current offset */
1483:../libdaisy/Middlewares/Third_Party/FatFs/src/ff.c **** 	clst = dp->obj.sclust;		/* Table start cluster (0:root) */
1484:../libdaisy/Middlewares/Third_Party/FatFs/src/ff.c **** 	if (clst == 0 && fs->fs_type >= FS_FAT32) {	/* Replace cluster# 0 with root cluster# */
1485:../libdaisy/Middlewares/Third_Party/FatFs/src/ff.c **** 		clst = fs->dirbase;
1486:../libdaisy/Middlewares/Third_Party/FatFs/src/ff.c **** 		if (_FS_EXFAT) dp->obj.stat = 0;	/* exFAT: Root dir has an FAT chain */
1487:../libdaisy/Middlewares/Third_Party/FatFs/src/ff.c **** 	}
1488:../libdaisy/Middlewares/Third_Party/FatFs/src/ff.c **** 
1489:../libdaisy/Middlewares/Third_Party/FatFs/src/ff.c **** 	if (clst == 0) {	/* Static table (root-directory in FAT12/16) */
1490:../libdaisy/Middlewares/Third_Party/FatFs/src/ff.c **** 		if (ofs / SZDIRE >= fs->n_rootdir)	return FR_INT_ERR;	/* Is index out of range? */
1491:../libdaisy/Middlewares/Third_Party/FatFs/src/ff.c **** 		dp->sect = fs->dirbase;
1492:../libdaisy/Middlewares/Third_Party/FatFs/src/ff.c **** 
1493:../libdaisy/Middlewares/Third_Party/FatFs/src/ff.c **** 	} else {			/* Dynamic table (sub-directory or root-directory in FAT32+) */
1494:../libdaisy/Middlewares/Third_Party/FatFs/src/ff.c **** 		csz = (DWORD)fs->csize * SS(fs);	/* Bytes per cluster */
1495:../libdaisy/Middlewares/Third_Party/FatFs/src/ff.c **** 		while (ofs >= csz) {				/* Follow cluster chain */
1496:../libdaisy/Middlewares/Third_Party/FatFs/src/ff.c **** 			clst = get_fat(&dp->obj, clst);				/* Get next cluster */
1497:../libdaisy/Middlewares/Third_Party/FatFs/src/ff.c **** 			if (clst == 0xFFFFFFFF) return FR_DISK_ERR;	/* Disk error */
1498:../libdaisy/Middlewares/Third_Party/FatFs/src/ff.c **** 			if (clst < 2 || clst >= fs->n_fatent) return FR_INT_ERR;	/* Reached to end of table or internal 
1499:../libdaisy/Middlewares/Third_Party/FatFs/src/ff.c **** 			ofs -= csz;
1500:../libdaisy/Middlewares/Third_Party/FatFs/src/ff.c **** 		}
1501:../libdaisy/Middlewares/Third_Party/FatFs/src/ff.c **** 		dp->sect = clust2sect(fs, clst);
1502:../libdaisy/Middlewares/Third_Party/FatFs/src/ff.c **** 	}
1503:../libdaisy/Middlewares/Third_Party/FatFs/src/ff.c **** 	dp->clust = clst;					/* Current cluster# */
1504:../libdaisy/Middlewares/Third_Party/FatFs/src/ff.c **** 	if (!dp->sect) return FR_INT_ERR;
1505:../libdaisy/Middlewares/Third_Party/FatFs/src/ff.c **** 	dp->sect += ofs / SS(fs);			/* Sector# of the directory entry */
1506:../libdaisy/Middlewares/Third_Party/FatFs/src/ff.c **** 	dp->dir = fs->win + (ofs % SS(fs));	/* Pointer to the entry in the win[] */
1507:../libdaisy/Middlewares/Third_Party/FatFs/src/ff.c **** 
1508:../libdaisy/Middlewares/Third_Party/FatFs/src/ff.c **** 	return FR_OK;
1509:../libdaisy/Middlewares/Third_Party/FatFs/src/ff.c **** }
1510:../libdaisy/Middlewares/Third_Party/FatFs/src/ff.c **** 
1511:../libdaisy/Middlewares/Third_Party/FatFs/src/ff.c **** 
1512:../libdaisy/Middlewares/Third_Party/FatFs/src/ff.c **** 
1513:../libdaisy/Middlewares/Third_Party/FatFs/src/ff.c **** 
1514:../libdaisy/Middlewares/Third_Party/FatFs/src/ff.c **** /*-----------------------------------------------------------------------*/
1515:../libdaisy/Middlewares/Third_Party/FatFs/src/ff.c **** /* Directory handling - Move directory table index next                  */
1516:../libdaisy/Middlewares/Third_Party/FatFs/src/ff.c **** /*-----------------------------------------------------------------------*/
1517:../libdaisy/Middlewares/Third_Party/FatFs/src/ff.c **** 
1518:../libdaisy/Middlewares/Third_Party/FatFs/src/ff.c **** static
1519:../libdaisy/Middlewares/Third_Party/FatFs/src/ff.c **** FRESULT dir_next (	/* FR_OK(0):succeeded, FR_NO_FILE:End of table, FR_DENIED:Could not stretch */
1520:../libdaisy/Middlewares/Third_Party/FatFs/src/ff.c **** 	DIR* dp,		/* Pointer to the directory object */
1521:../libdaisy/Middlewares/Third_Party/FatFs/src/ff.c **** 	int stretch		/* 0: Do not stretch table, 1: Stretch table if needed */
1522:../libdaisy/Middlewares/Third_Party/FatFs/src/ff.c **** )
1523:../libdaisy/Middlewares/Third_Party/FatFs/src/ff.c **** {
1524:../libdaisy/Middlewares/Third_Party/FatFs/src/ff.c **** 	DWORD ofs, clst;
1525:../libdaisy/Middlewares/Third_Party/FatFs/src/ff.c **** 	FATFS *fs = dp->obj.fs;
1526:../libdaisy/Middlewares/Third_Party/FatFs/src/ff.c **** #if !_FS_READONLY
1527:../libdaisy/Middlewares/Third_Party/FatFs/src/ff.c **** 	UINT n;
ARM GAS  /var/folders/0d/2ntwfkp1791d52chq7d_xwdm0000gn/T//ccOVjVrq.s 			page 36


1528:../libdaisy/Middlewares/Third_Party/FatFs/src/ff.c **** #endif
1529:../libdaisy/Middlewares/Third_Party/FatFs/src/ff.c **** 
1530:../libdaisy/Middlewares/Third_Party/FatFs/src/ff.c **** 	ofs = dp->dptr + SZDIRE;	/* Next entry */
1531:../libdaisy/Middlewares/Third_Party/FatFs/src/ff.c **** 	if (!dp->sect || ofs >= (DWORD)((_FS_EXFAT && fs->fs_type == FS_EXFAT) ? MAX_DIR_EX : MAX_DIR)) re
1532:../libdaisy/Middlewares/Third_Party/FatFs/src/ff.c **** 
1533:../libdaisy/Middlewares/Third_Party/FatFs/src/ff.c **** 	if (ofs % SS(fs) == 0) {	/* Sector changed? */
1534:../libdaisy/Middlewares/Third_Party/FatFs/src/ff.c **** 		dp->sect++;				/* Next sector */
1535:../libdaisy/Middlewares/Third_Party/FatFs/src/ff.c **** 
1536:../libdaisy/Middlewares/Third_Party/FatFs/src/ff.c **** 		if (!dp->clust) {		/* Static table */
1537:../libdaisy/Middlewares/Third_Party/FatFs/src/ff.c **** 			if (ofs / SZDIRE >= fs->n_rootdir) {	/* Report EOT if it reached end of static table */
1538:../libdaisy/Middlewares/Third_Party/FatFs/src/ff.c **** 				dp->sect = 0; return FR_NO_FILE;
1539:../libdaisy/Middlewares/Third_Party/FatFs/src/ff.c **** 			}
1540:../libdaisy/Middlewares/Third_Party/FatFs/src/ff.c **** 		}
1541:../libdaisy/Middlewares/Third_Party/FatFs/src/ff.c **** 		else {					/* Dynamic table */
1542:../libdaisy/Middlewares/Third_Party/FatFs/src/ff.c **** 			if ((ofs / SS(fs) & (fs->csize - 1)) == 0) {		/* Cluster changed? */
1543:../libdaisy/Middlewares/Third_Party/FatFs/src/ff.c **** 				clst = get_fat(&dp->obj, dp->clust);			/* Get next cluster */
1544:../libdaisy/Middlewares/Third_Party/FatFs/src/ff.c **** 				if (clst <= 1) return FR_INT_ERR;				/* Internal error */
1545:../libdaisy/Middlewares/Third_Party/FatFs/src/ff.c **** 				if (clst == 0xFFFFFFFF) return FR_DISK_ERR;		/* Disk error */
1546:../libdaisy/Middlewares/Third_Party/FatFs/src/ff.c **** 				if (clst >= fs->n_fatent) {						/* Reached end of dynamic table */
1547:../libdaisy/Middlewares/Third_Party/FatFs/src/ff.c **** #if !_FS_READONLY
1548:../libdaisy/Middlewares/Third_Party/FatFs/src/ff.c **** 					if (!stretch) {								/* If no stretch, report EOT */
1549:../libdaisy/Middlewares/Third_Party/FatFs/src/ff.c **** 						dp->sect = 0; return FR_NO_FILE;
1550:../libdaisy/Middlewares/Third_Party/FatFs/src/ff.c **** 					}
1551:../libdaisy/Middlewares/Third_Party/FatFs/src/ff.c **** 					clst = create_chain(&dp->obj, dp->clust);	/* Allocate a cluster */
1552:../libdaisy/Middlewares/Third_Party/FatFs/src/ff.c **** 					if (clst == 0) return FR_DENIED;			/* No free cluster */
1553:../libdaisy/Middlewares/Third_Party/FatFs/src/ff.c **** 					if (clst == 1) return FR_INT_ERR;			/* Internal error */
1554:../libdaisy/Middlewares/Third_Party/FatFs/src/ff.c **** 					if (clst == 0xFFFFFFFF) return FR_DISK_ERR;	/* Disk error */
1555:../libdaisy/Middlewares/Third_Party/FatFs/src/ff.c **** 					/* Clean-up the stretched table */
1556:../libdaisy/Middlewares/Third_Party/FatFs/src/ff.c **** 					if (_FS_EXFAT) dp->obj.stat |= 4;			/* The directory needs to be updated */
1557:../libdaisy/Middlewares/Third_Party/FatFs/src/ff.c **** 					if (sync_window(fs) != FR_OK) return FR_DISK_ERR;	/* Flush disk access window */
1558:../libdaisy/Middlewares/Third_Party/FatFs/src/ff.c **** 					mem_set(fs->win, 0, SS(fs));				/* Clear window buffer */
1559:../libdaisy/Middlewares/Third_Party/FatFs/src/ff.c **** 					for (n = 0, fs->winsect = clust2sect(fs, clst); n < fs->csize; n++, fs->winsect++) {	/* Fill t
1560:../libdaisy/Middlewares/Third_Party/FatFs/src/ff.c **** 						fs->wflag = 1;
1561:../libdaisy/Middlewares/Third_Party/FatFs/src/ff.c **** 						if (sync_window(fs) != FR_OK) return FR_DISK_ERR;
1562:../libdaisy/Middlewares/Third_Party/FatFs/src/ff.c **** 					}
1563:../libdaisy/Middlewares/Third_Party/FatFs/src/ff.c **** 					fs->winsect -= n;							/* Restore window offset */
1564:../libdaisy/Middlewares/Third_Party/FatFs/src/ff.c **** #else
1565:../libdaisy/Middlewares/Third_Party/FatFs/src/ff.c **** 					if (!stretch) dp->sect = 0;					/* (this line is to suppress compiler warning) */
1566:../libdaisy/Middlewares/Third_Party/FatFs/src/ff.c **** 					dp->sect = 0; return FR_NO_FILE;			/* Report EOT */
1567:../libdaisy/Middlewares/Third_Party/FatFs/src/ff.c **** #endif
1568:../libdaisy/Middlewares/Third_Party/FatFs/src/ff.c **** 				}
1569:../libdaisy/Middlewares/Third_Party/FatFs/src/ff.c **** 				dp->clust = clst;		/* Initialize data for new cluster */
1570:../libdaisy/Middlewares/Third_Party/FatFs/src/ff.c **** 				dp->sect = clust2sect(fs, clst);
1571:../libdaisy/Middlewares/Third_Party/FatFs/src/ff.c **** 			}
1572:../libdaisy/Middlewares/Third_Party/FatFs/src/ff.c **** 		}
1573:../libdaisy/Middlewares/Third_Party/FatFs/src/ff.c **** 	}
1574:../libdaisy/Middlewares/Third_Party/FatFs/src/ff.c **** 	dp->dptr = ofs;						/* Current entry */
1575:../libdaisy/Middlewares/Third_Party/FatFs/src/ff.c **** 	dp->dir = fs->win + ofs % SS(fs);	/* Pointer to the entry in the win[] */
1576:../libdaisy/Middlewares/Third_Party/FatFs/src/ff.c **** 
1577:../libdaisy/Middlewares/Third_Party/FatFs/src/ff.c **** 	return FR_OK;
1578:../libdaisy/Middlewares/Third_Party/FatFs/src/ff.c **** }
1579:../libdaisy/Middlewares/Third_Party/FatFs/src/ff.c **** 
1580:../libdaisy/Middlewares/Third_Party/FatFs/src/ff.c **** 
1581:../libdaisy/Middlewares/Third_Party/FatFs/src/ff.c **** 
1582:../libdaisy/Middlewares/Third_Party/FatFs/src/ff.c **** 
1583:../libdaisy/Middlewares/Third_Party/FatFs/src/ff.c **** #if !_FS_READONLY
1584:../libdaisy/Middlewares/Third_Party/FatFs/src/ff.c **** /*-----------------------------------------------------------------------*/
ARM GAS  /var/folders/0d/2ntwfkp1791d52chq7d_xwdm0000gn/T//ccOVjVrq.s 			page 37


1585:../libdaisy/Middlewares/Third_Party/FatFs/src/ff.c **** /* Directory handling - Reserve a block of directory entries             */
1586:../libdaisy/Middlewares/Third_Party/FatFs/src/ff.c **** /*-----------------------------------------------------------------------*/
1587:../libdaisy/Middlewares/Third_Party/FatFs/src/ff.c **** 
1588:../libdaisy/Middlewares/Third_Party/FatFs/src/ff.c **** static
1589:../libdaisy/Middlewares/Third_Party/FatFs/src/ff.c **** FRESULT dir_alloc (	/* FR_OK(0):succeeded, !=0:error */
1590:../libdaisy/Middlewares/Third_Party/FatFs/src/ff.c **** 	DIR* dp,		/* Pointer to the directory object */
1591:../libdaisy/Middlewares/Third_Party/FatFs/src/ff.c **** 	UINT nent		/* Number of contiguous entries to allocate */
1592:../libdaisy/Middlewares/Third_Party/FatFs/src/ff.c **** )
1593:../libdaisy/Middlewares/Third_Party/FatFs/src/ff.c **** {
1594:../libdaisy/Middlewares/Third_Party/FatFs/src/ff.c **** 	FRESULT res;
1595:../libdaisy/Middlewares/Third_Party/FatFs/src/ff.c **** 	UINT n;
1596:../libdaisy/Middlewares/Third_Party/FatFs/src/ff.c **** 	FATFS *fs = dp->obj.fs;
1597:../libdaisy/Middlewares/Third_Party/FatFs/src/ff.c **** 
1598:../libdaisy/Middlewares/Third_Party/FatFs/src/ff.c **** 
1599:../libdaisy/Middlewares/Third_Party/FatFs/src/ff.c **** 	res = dir_sdi(dp, 0);
1600:../libdaisy/Middlewares/Third_Party/FatFs/src/ff.c **** 	if (res == FR_OK) {
1601:../libdaisy/Middlewares/Third_Party/FatFs/src/ff.c **** 		n = 0;
1602:../libdaisy/Middlewares/Third_Party/FatFs/src/ff.c **** 		do {
1603:../libdaisy/Middlewares/Third_Party/FatFs/src/ff.c **** 			res = move_window(fs, dp->sect);
1604:../libdaisy/Middlewares/Third_Party/FatFs/src/ff.c **** 			if (res != FR_OK) break;
1605:../libdaisy/Middlewares/Third_Party/FatFs/src/ff.c **** #if _FS_EXFAT
1606:../libdaisy/Middlewares/Third_Party/FatFs/src/ff.c **** 			if ((fs->fs_type == FS_EXFAT) ? (int)((dp->dir[XDIR_Type] & 0x80) == 0) : (int)(dp->dir[DIR_Name
1607:../libdaisy/Middlewares/Third_Party/FatFs/src/ff.c **** #else
1608:../libdaisy/Middlewares/Third_Party/FatFs/src/ff.c **** 			if (dp->dir[DIR_Name] == DDEM || dp->dir[DIR_Name] == 0) {
1609:../libdaisy/Middlewares/Third_Party/FatFs/src/ff.c **** #endif
1610:../libdaisy/Middlewares/Third_Party/FatFs/src/ff.c **** 				if (++n == nent) break;	/* A block of contiguous free entries is found */
1611:../libdaisy/Middlewares/Third_Party/FatFs/src/ff.c **** 			} else {
1612:../libdaisy/Middlewares/Third_Party/FatFs/src/ff.c **** 				n = 0;					/* Not a blank entry. Restart to search */
1613:../libdaisy/Middlewares/Third_Party/FatFs/src/ff.c **** 			}
1614:../libdaisy/Middlewares/Third_Party/FatFs/src/ff.c **** 			res = dir_next(dp, 1);
1615:../libdaisy/Middlewares/Third_Party/FatFs/src/ff.c **** 		} while (res == FR_OK);	/* Next entry with table stretch enabled */
1616:../libdaisy/Middlewares/Third_Party/FatFs/src/ff.c **** 	}
1617:../libdaisy/Middlewares/Third_Party/FatFs/src/ff.c **** 
1618:../libdaisy/Middlewares/Third_Party/FatFs/src/ff.c **** 	if (res == FR_NO_FILE) res = FR_DENIED;	/* No directory entry to allocate */
1619:../libdaisy/Middlewares/Third_Party/FatFs/src/ff.c **** 	return res;
1620:../libdaisy/Middlewares/Third_Party/FatFs/src/ff.c **** }
1621:../libdaisy/Middlewares/Third_Party/FatFs/src/ff.c **** 
1622:../libdaisy/Middlewares/Third_Party/FatFs/src/ff.c **** #endif	/* !_FS_READONLY */
1623:../libdaisy/Middlewares/Third_Party/FatFs/src/ff.c **** 
1624:../libdaisy/Middlewares/Third_Party/FatFs/src/ff.c **** 
1625:../libdaisy/Middlewares/Third_Party/FatFs/src/ff.c **** 
1626:../libdaisy/Middlewares/Third_Party/FatFs/src/ff.c **** 
1627:../libdaisy/Middlewares/Third_Party/FatFs/src/ff.c **** /*-----------------------------------------------------------------------*/
1628:../libdaisy/Middlewares/Third_Party/FatFs/src/ff.c **** /* FAT: Directory handling - Load/Store start cluster number             */
1629:../libdaisy/Middlewares/Third_Party/FatFs/src/ff.c **** /*-----------------------------------------------------------------------*/
1630:../libdaisy/Middlewares/Third_Party/FatFs/src/ff.c **** 
1631:../libdaisy/Middlewares/Third_Party/FatFs/src/ff.c **** static
1632:../libdaisy/Middlewares/Third_Party/FatFs/src/ff.c **** DWORD ld_clust (	/* Returns the top cluster value of the SFN entry */
1633:../libdaisy/Middlewares/Third_Party/FatFs/src/ff.c **** 	FATFS* fs,		/* Pointer to the fs object */
1634:../libdaisy/Middlewares/Third_Party/FatFs/src/ff.c **** 	const BYTE* dir	/* Pointer to the key entry */
1635:../libdaisy/Middlewares/Third_Party/FatFs/src/ff.c **** )
1636:../libdaisy/Middlewares/Third_Party/FatFs/src/ff.c **** {
1637:../libdaisy/Middlewares/Third_Party/FatFs/src/ff.c **** 	DWORD cl;
1638:../libdaisy/Middlewares/Third_Party/FatFs/src/ff.c **** 
1639:../libdaisy/Middlewares/Third_Party/FatFs/src/ff.c **** 	cl = ld_word(dir + DIR_FstClusLO);
1640:../libdaisy/Middlewares/Third_Party/FatFs/src/ff.c **** 	if (fs->fs_type == FS_FAT32) {
1641:../libdaisy/Middlewares/Third_Party/FatFs/src/ff.c **** 		cl |= (DWORD)ld_word(dir + DIR_FstClusHI) << 16;
ARM GAS  /var/folders/0d/2ntwfkp1791d52chq7d_xwdm0000gn/T//ccOVjVrq.s 			page 38


1642:../libdaisy/Middlewares/Third_Party/FatFs/src/ff.c **** 	}
1643:../libdaisy/Middlewares/Third_Party/FatFs/src/ff.c **** 
1644:../libdaisy/Middlewares/Third_Party/FatFs/src/ff.c **** 	return cl;
1645:../libdaisy/Middlewares/Third_Party/FatFs/src/ff.c **** }
1646:../libdaisy/Middlewares/Third_Party/FatFs/src/ff.c **** 
1647:../libdaisy/Middlewares/Third_Party/FatFs/src/ff.c **** 
1648:../libdaisy/Middlewares/Third_Party/FatFs/src/ff.c **** #if !_FS_READONLY
1649:../libdaisy/Middlewares/Third_Party/FatFs/src/ff.c **** static
1650:../libdaisy/Middlewares/Third_Party/FatFs/src/ff.c **** void st_clust (
1651:../libdaisy/Middlewares/Third_Party/FatFs/src/ff.c **** 	FATFS* fs,	/* Pointer to the fs object */
1652:../libdaisy/Middlewares/Third_Party/FatFs/src/ff.c **** 	BYTE* dir,	/* Pointer to the key entry */
1653:../libdaisy/Middlewares/Third_Party/FatFs/src/ff.c **** 	DWORD cl	/* Value to be set */
1654:../libdaisy/Middlewares/Third_Party/FatFs/src/ff.c **** )
1655:../libdaisy/Middlewares/Third_Party/FatFs/src/ff.c **** {
1656:../libdaisy/Middlewares/Third_Party/FatFs/src/ff.c **** 	st_word(dir + DIR_FstClusLO, (WORD)cl);
1657:../libdaisy/Middlewares/Third_Party/FatFs/src/ff.c **** 	if (fs->fs_type == FS_FAT32) {
1658:../libdaisy/Middlewares/Third_Party/FatFs/src/ff.c **** 		st_word(dir + DIR_FstClusHI, (WORD)(cl >> 16));
1659:../libdaisy/Middlewares/Third_Party/FatFs/src/ff.c **** 	}
1660:../libdaisy/Middlewares/Third_Party/FatFs/src/ff.c **** }
1661:../libdaisy/Middlewares/Third_Party/FatFs/src/ff.c **** #endif
1662:../libdaisy/Middlewares/Third_Party/FatFs/src/ff.c **** 
1663:../libdaisy/Middlewares/Third_Party/FatFs/src/ff.c **** 
1664:../libdaisy/Middlewares/Third_Party/FatFs/src/ff.c **** 
1665:../libdaisy/Middlewares/Third_Party/FatFs/src/ff.c **** #if _USE_LFN != 0
1666:../libdaisy/Middlewares/Third_Party/FatFs/src/ff.c **** /*------------------------------------------------------------------------*/
1667:../libdaisy/Middlewares/Third_Party/FatFs/src/ff.c **** /* FAT-LFN: LFN handling                                                  */
1668:../libdaisy/Middlewares/Third_Party/FatFs/src/ff.c **** /*------------------------------------------------------------------------*/
1669:../libdaisy/Middlewares/Third_Party/FatFs/src/ff.c **** static
1670:../libdaisy/Middlewares/Third_Party/FatFs/src/ff.c **** const BYTE LfnOfs[] = {1,3,5,7,9,14,16,18,20,22,24,28,30};	/* Offset of LFN characters in the direc
1671:../libdaisy/Middlewares/Third_Party/FatFs/src/ff.c **** 
1672:../libdaisy/Middlewares/Third_Party/FatFs/src/ff.c **** 
1673:../libdaisy/Middlewares/Third_Party/FatFs/src/ff.c **** /*--------------------------------------------------------*/
1674:../libdaisy/Middlewares/Third_Party/FatFs/src/ff.c **** /* FAT-LFN: Compare a part of file name with an LFN entry */
1675:../libdaisy/Middlewares/Third_Party/FatFs/src/ff.c **** /*--------------------------------------------------------*/
1676:../libdaisy/Middlewares/Third_Party/FatFs/src/ff.c **** static
1677:../libdaisy/Middlewares/Third_Party/FatFs/src/ff.c **** int cmp_lfn (				/* 1:matched, 0:not matched */
1678:../libdaisy/Middlewares/Third_Party/FatFs/src/ff.c **** 	const WCHAR* lfnbuf,	/* Pointer to the LFN working buffer to be compared */
1679:../libdaisy/Middlewares/Third_Party/FatFs/src/ff.c **** 	BYTE* dir				/* Pointer to the directory entry containing the part of LFN */
1680:../libdaisy/Middlewares/Third_Party/FatFs/src/ff.c **** )
1681:../libdaisy/Middlewares/Third_Party/FatFs/src/ff.c **** {
1682:../libdaisy/Middlewares/Third_Party/FatFs/src/ff.c **** 	UINT i, s;
1683:../libdaisy/Middlewares/Third_Party/FatFs/src/ff.c **** 	WCHAR wc, uc;
1684:../libdaisy/Middlewares/Third_Party/FatFs/src/ff.c **** 
1685:../libdaisy/Middlewares/Third_Party/FatFs/src/ff.c **** 
1686:../libdaisy/Middlewares/Third_Party/FatFs/src/ff.c **** 	if (ld_word(dir + LDIR_FstClusLO) != 0) return 0;	/* Check LDIR_FstClusLO */
1687:../libdaisy/Middlewares/Third_Party/FatFs/src/ff.c **** 
1688:../libdaisy/Middlewares/Third_Party/FatFs/src/ff.c **** 	i = ((dir[LDIR_Ord] & 0x3F) - 1) * 13;	/* Offset in the LFN buffer */
1689:../libdaisy/Middlewares/Third_Party/FatFs/src/ff.c **** 
1690:../libdaisy/Middlewares/Third_Party/FatFs/src/ff.c **** 	for (wc = 1, s = 0; s < 13; s++) {		/* Process all characters in the entry */
1691:../libdaisy/Middlewares/Third_Party/FatFs/src/ff.c **** 		uc = ld_word(dir + LfnOfs[s]);		/* Pick an LFN character */
1692:../libdaisy/Middlewares/Third_Party/FatFs/src/ff.c **** 		if (wc) {
1693:../libdaisy/Middlewares/Third_Party/FatFs/src/ff.c **** 			if (i >= _MAX_LFN || ff_wtoupper(uc) != ff_wtoupper(lfnbuf[i++])) {	/* Compare it */
1694:../libdaisy/Middlewares/Third_Party/FatFs/src/ff.c **** 				return 0;					/* Not matched */
1695:../libdaisy/Middlewares/Third_Party/FatFs/src/ff.c **** 			}
1696:../libdaisy/Middlewares/Third_Party/FatFs/src/ff.c **** 			wc = uc;
1697:../libdaisy/Middlewares/Third_Party/FatFs/src/ff.c **** 		} else {
1698:../libdaisy/Middlewares/Third_Party/FatFs/src/ff.c **** 			if (uc != 0xFFFF) return 0;		/* Check filler */
ARM GAS  /var/folders/0d/2ntwfkp1791d52chq7d_xwdm0000gn/T//ccOVjVrq.s 			page 39


1699:../libdaisy/Middlewares/Third_Party/FatFs/src/ff.c **** 		}
1700:../libdaisy/Middlewares/Third_Party/FatFs/src/ff.c **** 	}
1701:../libdaisy/Middlewares/Third_Party/FatFs/src/ff.c **** 
1702:../libdaisy/Middlewares/Third_Party/FatFs/src/ff.c **** 	if ((dir[LDIR_Ord] & LLEF) && wc && lfnbuf[i]) return 0;	/* Last segment matched but different len
1703:../libdaisy/Middlewares/Third_Party/FatFs/src/ff.c **** 
1704:../libdaisy/Middlewares/Third_Party/FatFs/src/ff.c **** 	return 1;		/* The part of LFN matched */
1705:../libdaisy/Middlewares/Third_Party/FatFs/src/ff.c **** }
1706:../libdaisy/Middlewares/Third_Party/FatFs/src/ff.c **** 
1707:../libdaisy/Middlewares/Third_Party/FatFs/src/ff.c **** 
1708:../libdaisy/Middlewares/Third_Party/FatFs/src/ff.c **** #if _FS_MINIMIZE <= 1 || _FS_RPATH >= 2 || _USE_LABEL || _FS_EXFAT
1709:../libdaisy/Middlewares/Third_Party/FatFs/src/ff.c **** /*-----------------------------------------------------*/
1710:../libdaisy/Middlewares/Third_Party/FatFs/src/ff.c **** /* FAT-LFN: Pick a part of file name from an LFN entry */
1711:../libdaisy/Middlewares/Third_Party/FatFs/src/ff.c **** /*-----------------------------------------------------*/
1712:../libdaisy/Middlewares/Third_Party/FatFs/src/ff.c **** static
1713:../libdaisy/Middlewares/Third_Party/FatFs/src/ff.c **** int pick_lfn (			/* 1:succeeded, 0:buffer overflow or invalid LFN entry */
1714:../libdaisy/Middlewares/Third_Party/FatFs/src/ff.c **** 	WCHAR* lfnbuf,		/* Pointer to the LFN working buffer */
1715:../libdaisy/Middlewares/Third_Party/FatFs/src/ff.c **** 	BYTE* dir			/* Pointer to the LFN entry */
1716:../libdaisy/Middlewares/Third_Party/FatFs/src/ff.c **** )
1717:../libdaisy/Middlewares/Third_Party/FatFs/src/ff.c **** {
1718:../libdaisy/Middlewares/Third_Party/FatFs/src/ff.c **** 	UINT i, s;
1719:../libdaisy/Middlewares/Third_Party/FatFs/src/ff.c **** 	WCHAR wc, uc;
1720:../libdaisy/Middlewares/Third_Party/FatFs/src/ff.c **** 
1721:../libdaisy/Middlewares/Third_Party/FatFs/src/ff.c **** 
1722:../libdaisy/Middlewares/Third_Party/FatFs/src/ff.c **** 	if (ld_word(dir + LDIR_FstClusLO) != 0) return 0;	/* Check LDIR_FstClusLO is 0 */
1723:../libdaisy/Middlewares/Third_Party/FatFs/src/ff.c **** 
1724:../libdaisy/Middlewares/Third_Party/FatFs/src/ff.c **** 	i = ((dir[LDIR_Ord] & ~LLEF) - 1) * 13;	/* Offset in the LFN buffer */
1725:../libdaisy/Middlewares/Third_Party/FatFs/src/ff.c **** 
1726:../libdaisy/Middlewares/Third_Party/FatFs/src/ff.c **** 	for (wc = 1, s = 0; s < 13; s++) {		/* Process all characters in the entry */
1727:../libdaisy/Middlewares/Third_Party/FatFs/src/ff.c **** 		uc = ld_word(dir + LfnOfs[s]);		/* Pick an LFN character */
1728:../libdaisy/Middlewares/Third_Party/FatFs/src/ff.c **** 		if (wc) {
1729:../libdaisy/Middlewares/Third_Party/FatFs/src/ff.c **** 			if (i >= _MAX_LFN) return 0;	/* Buffer overflow? */
1730:../libdaisy/Middlewares/Third_Party/FatFs/src/ff.c **** 			lfnbuf[i++] = wc = uc;			/* Store it */
1731:../libdaisy/Middlewares/Third_Party/FatFs/src/ff.c **** 		} else {
1732:../libdaisy/Middlewares/Third_Party/FatFs/src/ff.c **** 			if (uc != 0xFFFF) return 0;		/* Check filler */
1733:../libdaisy/Middlewares/Third_Party/FatFs/src/ff.c **** 		}
1734:../libdaisy/Middlewares/Third_Party/FatFs/src/ff.c **** 	}
1735:../libdaisy/Middlewares/Third_Party/FatFs/src/ff.c **** 
1736:../libdaisy/Middlewares/Third_Party/FatFs/src/ff.c **** 	if (dir[LDIR_Ord] & LLEF) {				/* Put terminator if it is the last LFN part */
1737:../libdaisy/Middlewares/Third_Party/FatFs/src/ff.c **** 		if (i >= _MAX_LFN) return 0;		/* Buffer overflow? */
1738:../libdaisy/Middlewares/Third_Party/FatFs/src/ff.c **** 		lfnbuf[i] = 0;
1739:../libdaisy/Middlewares/Third_Party/FatFs/src/ff.c **** 	}
1740:../libdaisy/Middlewares/Third_Party/FatFs/src/ff.c **** 
1741:../libdaisy/Middlewares/Third_Party/FatFs/src/ff.c **** 	return 1;		/* The part of LFN is valid */
1742:../libdaisy/Middlewares/Third_Party/FatFs/src/ff.c **** }
1743:../libdaisy/Middlewares/Third_Party/FatFs/src/ff.c **** #endif
1744:../libdaisy/Middlewares/Third_Party/FatFs/src/ff.c **** 
1745:../libdaisy/Middlewares/Third_Party/FatFs/src/ff.c **** 
1746:../libdaisy/Middlewares/Third_Party/FatFs/src/ff.c **** #if !_FS_READONLY
1747:../libdaisy/Middlewares/Third_Party/FatFs/src/ff.c **** /*-----------------------------------------*/
1748:../libdaisy/Middlewares/Third_Party/FatFs/src/ff.c **** /* FAT-LFN: Create an entry of LFN entries */
1749:../libdaisy/Middlewares/Third_Party/FatFs/src/ff.c **** /*-----------------------------------------*/
1750:../libdaisy/Middlewares/Third_Party/FatFs/src/ff.c **** static
1751:../libdaisy/Middlewares/Third_Party/FatFs/src/ff.c **** void put_lfn (
1752:../libdaisy/Middlewares/Third_Party/FatFs/src/ff.c **** 	const WCHAR* lfn,	/* Pointer to the LFN */
1753:../libdaisy/Middlewares/Third_Party/FatFs/src/ff.c **** 	BYTE* dir,			/* Pointer to the LFN entry to be created */
1754:../libdaisy/Middlewares/Third_Party/FatFs/src/ff.c **** 	BYTE ord,			/* LFN order (1-20) */
1755:../libdaisy/Middlewares/Third_Party/FatFs/src/ff.c **** 	BYTE sum			/* Checksum of the corresponding SFN */
ARM GAS  /var/folders/0d/2ntwfkp1791d52chq7d_xwdm0000gn/T//ccOVjVrq.s 			page 40


1756:../libdaisy/Middlewares/Third_Party/FatFs/src/ff.c **** )
1757:../libdaisy/Middlewares/Third_Party/FatFs/src/ff.c **** {
1758:../libdaisy/Middlewares/Third_Party/FatFs/src/ff.c **** 	UINT i, s;
1759:../libdaisy/Middlewares/Third_Party/FatFs/src/ff.c **** 	WCHAR wc;
1760:../libdaisy/Middlewares/Third_Party/FatFs/src/ff.c **** 
1761:../libdaisy/Middlewares/Third_Party/FatFs/src/ff.c **** 
1762:../libdaisy/Middlewares/Third_Party/FatFs/src/ff.c **** 	dir[LDIR_Chksum] = sum;			/* Set checksum */
1763:../libdaisy/Middlewares/Third_Party/FatFs/src/ff.c **** 	dir[LDIR_Attr] = AM_LFN;		/* Set attribute. LFN entry */
1764:../libdaisy/Middlewares/Third_Party/FatFs/src/ff.c **** 	dir[LDIR_Type] = 0;
1765:../libdaisy/Middlewares/Third_Party/FatFs/src/ff.c **** 	st_word(dir + LDIR_FstClusLO, 0);
1766:../libdaisy/Middlewares/Third_Party/FatFs/src/ff.c **** 
1767:../libdaisy/Middlewares/Third_Party/FatFs/src/ff.c **** 	i = (ord - 1) * 13;				/* Get offset in the LFN working buffer */
1768:../libdaisy/Middlewares/Third_Party/FatFs/src/ff.c **** 	s = wc = 0;
1769:../libdaisy/Middlewares/Third_Party/FatFs/src/ff.c **** 	do {
1770:../libdaisy/Middlewares/Third_Party/FatFs/src/ff.c **** 		if (wc != 0xFFFF) wc = lfn[i++];	/* Get an effective character */
1771:../libdaisy/Middlewares/Third_Party/FatFs/src/ff.c **** 		st_word(dir + LfnOfs[s], wc);		/* Put it */
1772:../libdaisy/Middlewares/Third_Party/FatFs/src/ff.c **** 		if (wc == 0) wc = 0xFFFF;		/* Padding characters for left locations */
1773:../libdaisy/Middlewares/Third_Party/FatFs/src/ff.c **** 	} while (++s < 13);
1774:../libdaisy/Middlewares/Third_Party/FatFs/src/ff.c **** 	if (wc == 0xFFFF || !lfn[i]) ord |= LLEF;	/* Last LFN part is the start of LFN sequence */
1775:../libdaisy/Middlewares/Third_Party/FatFs/src/ff.c **** 	dir[LDIR_Ord] = ord;			/* Set the LFN order */
1776:../libdaisy/Middlewares/Third_Party/FatFs/src/ff.c **** }
1777:../libdaisy/Middlewares/Third_Party/FatFs/src/ff.c **** 
1778:../libdaisy/Middlewares/Third_Party/FatFs/src/ff.c **** #endif	/* !_FS_READONLY */
1779:../libdaisy/Middlewares/Third_Party/FatFs/src/ff.c **** #endif	/* _USE_LFN != 0 */
1780:../libdaisy/Middlewares/Third_Party/FatFs/src/ff.c **** 
1781:../libdaisy/Middlewares/Third_Party/FatFs/src/ff.c **** 
1782:../libdaisy/Middlewares/Third_Party/FatFs/src/ff.c **** 
1783:../libdaisy/Middlewares/Third_Party/FatFs/src/ff.c **** #if _USE_LFN != 0 && !_FS_READONLY
1784:../libdaisy/Middlewares/Third_Party/FatFs/src/ff.c **** /*-----------------------------------------------------------------------*/
1785:../libdaisy/Middlewares/Third_Party/FatFs/src/ff.c **** /* FAT-LFN: Create a Numbered SFN                                        */
1786:../libdaisy/Middlewares/Third_Party/FatFs/src/ff.c **** /*-----------------------------------------------------------------------*/
1787:../libdaisy/Middlewares/Third_Party/FatFs/src/ff.c **** 
1788:../libdaisy/Middlewares/Third_Party/FatFs/src/ff.c **** static
1789:../libdaisy/Middlewares/Third_Party/FatFs/src/ff.c **** void gen_numname (
1790:../libdaisy/Middlewares/Third_Party/FatFs/src/ff.c **** 	BYTE* dst,			/* Pointer to the buffer to store numbered SFN */
1791:../libdaisy/Middlewares/Third_Party/FatFs/src/ff.c **** 	const BYTE* src,	/* Pointer to SFN */
1792:../libdaisy/Middlewares/Third_Party/FatFs/src/ff.c **** 	const WCHAR* lfn,	/* Pointer to LFN */
1793:../libdaisy/Middlewares/Third_Party/FatFs/src/ff.c **** 	UINT seq			/* Sequence number */
1794:../libdaisy/Middlewares/Third_Party/FatFs/src/ff.c **** )
1795:../libdaisy/Middlewares/Third_Party/FatFs/src/ff.c **** {
1796:../libdaisy/Middlewares/Third_Party/FatFs/src/ff.c **** 	BYTE ns[8], c;
1797:../libdaisy/Middlewares/Third_Party/FatFs/src/ff.c **** 	UINT i, j;
1798:../libdaisy/Middlewares/Third_Party/FatFs/src/ff.c **** 	WCHAR wc;
1799:../libdaisy/Middlewares/Third_Party/FatFs/src/ff.c **** 	DWORD sr;
1800:../libdaisy/Middlewares/Third_Party/FatFs/src/ff.c **** 
1801:../libdaisy/Middlewares/Third_Party/FatFs/src/ff.c **** 
1802:../libdaisy/Middlewares/Third_Party/FatFs/src/ff.c **** 	mem_cpy(dst, src, 11);
1803:../libdaisy/Middlewares/Third_Party/FatFs/src/ff.c **** 
1804:../libdaisy/Middlewares/Third_Party/FatFs/src/ff.c **** 	if (seq > 5) {	/* In case of many collisions, generate a hash number instead of sequential number 
1805:../libdaisy/Middlewares/Third_Party/FatFs/src/ff.c **** 		sr = seq;
1806:../libdaisy/Middlewares/Third_Party/FatFs/src/ff.c **** 		while (*lfn) {	/* Create a CRC */
1807:../libdaisy/Middlewares/Third_Party/FatFs/src/ff.c **** 			wc = *lfn++;
1808:../libdaisy/Middlewares/Third_Party/FatFs/src/ff.c **** 			for (i = 0; i < 16; i++) {
1809:../libdaisy/Middlewares/Third_Party/FatFs/src/ff.c **** 				sr = (sr << 1) + (wc & 1);
1810:../libdaisy/Middlewares/Third_Party/FatFs/src/ff.c **** 				wc >>= 1;
1811:../libdaisy/Middlewares/Third_Party/FatFs/src/ff.c **** 				if (sr & 0x10000) sr ^= 0x11021;
1812:../libdaisy/Middlewares/Third_Party/FatFs/src/ff.c **** 			}
ARM GAS  /var/folders/0d/2ntwfkp1791d52chq7d_xwdm0000gn/T//ccOVjVrq.s 			page 41


1813:../libdaisy/Middlewares/Third_Party/FatFs/src/ff.c **** 		}
1814:../libdaisy/Middlewares/Third_Party/FatFs/src/ff.c **** 		seq = (UINT)sr;
1815:../libdaisy/Middlewares/Third_Party/FatFs/src/ff.c **** 	}
1816:../libdaisy/Middlewares/Third_Party/FatFs/src/ff.c **** 
1817:../libdaisy/Middlewares/Third_Party/FatFs/src/ff.c **** 	/* itoa (hexdecimal) */
1818:../libdaisy/Middlewares/Third_Party/FatFs/src/ff.c **** 	i = 7;
1819:../libdaisy/Middlewares/Third_Party/FatFs/src/ff.c **** 	do {
1820:../libdaisy/Middlewares/Third_Party/FatFs/src/ff.c **** 		c = (BYTE)((seq % 16) + '0');
1821:../libdaisy/Middlewares/Third_Party/FatFs/src/ff.c **** 		if (c > '9') c += 7;
1822:../libdaisy/Middlewares/Third_Party/FatFs/src/ff.c **** 		ns[i--] = c;
1823:../libdaisy/Middlewares/Third_Party/FatFs/src/ff.c **** 		seq /= 16;
1824:../libdaisy/Middlewares/Third_Party/FatFs/src/ff.c **** 	} while (seq);
1825:../libdaisy/Middlewares/Third_Party/FatFs/src/ff.c **** 	ns[i] = '~';
1826:../libdaisy/Middlewares/Third_Party/FatFs/src/ff.c **** 
1827:../libdaisy/Middlewares/Third_Party/FatFs/src/ff.c **** 	/* Append the number */
1828:../libdaisy/Middlewares/Third_Party/FatFs/src/ff.c **** 	for (j = 0; j < i && dst[j] != ' '; j++) {
1829:../libdaisy/Middlewares/Third_Party/FatFs/src/ff.c **** 		if (IsDBCS1(dst[j])) {
1830:../libdaisy/Middlewares/Third_Party/FatFs/src/ff.c **** 			if (j == i - 1) break;
1831:../libdaisy/Middlewares/Third_Party/FatFs/src/ff.c **** 			j++;
1832:../libdaisy/Middlewares/Third_Party/FatFs/src/ff.c **** 		}
1833:../libdaisy/Middlewares/Third_Party/FatFs/src/ff.c **** 	}
1834:../libdaisy/Middlewares/Third_Party/FatFs/src/ff.c **** 	do {
1835:../libdaisy/Middlewares/Third_Party/FatFs/src/ff.c **** 		dst[j++] = (i < 8) ? ns[i++] : ' ';
1836:../libdaisy/Middlewares/Third_Party/FatFs/src/ff.c **** 	} while (j < 8);
1837:../libdaisy/Middlewares/Third_Party/FatFs/src/ff.c **** }
1838:../libdaisy/Middlewares/Third_Party/FatFs/src/ff.c **** #endif	/* _USE_LFN != 0 && !_FS_READONLY */
1839:../libdaisy/Middlewares/Third_Party/FatFs/src/ff.c **** 
1840:../libdaisy/Middlewares/Third_Party/FatFs/src/ff.c **** 
1841:../libdaisy/Middlewares/Third_Party/FatFs/src/ff.c **** 
1842:../libdaisy/Middlewares/Third_Party/FatFs/src/ff.c **** #if _USE_LFN != 0
1843:../libdaisy/Middlewares/Third_Party/FatFs/src/ff.c **** /*-----------------------------------------------------------------------*/
1844:../libdaisy/Middlewares/Third_Party/FatFs/src/ff.c **** /* FAT-LFN: Calculate checksum of an SFN entry                           */
1845:../libdaisy/Middlewares/Third_Party/FatFs/src/ff.c **** /*-----------------------------------------------------------------------*/
1846:../libdaisy/Middlewares/Third_Party/FatFs/src/ff.c **** 
1847:../libdaisy/Middlewares/Third_Party/FatFs/src/ff.c **** static
1848:../libdaisy/Middlewares/Third_Party/FatFs/src/ff.c **** BYTE sum_sfn (
1849:../libdaisy/Middlewares/Third_Party/FatFs/src/ff.c **** 	const BYTE* dir		/* Pointer to the SFN entry */
1850:../libdaisy/Middlewares/Third_Party/FatFs/src/ff.c **** )
1851:../libdaisy/Middlewares/Third_Party/FatFs/src/ff.c **** {
1852:../libdaisy/Middlewares/Third_Party/FatFs/src/ff.c **** 	BYTE sum = 0;
1853:../libdaisy/Middlewares/Third_Party/FatFs/src/ff.c **** 	UINT n = 11;
1854:../libdaisy/Middlewares/Third_Party/FatFs/src/ff.c **** 
1855:../libdaisy/Middlewares/Third_Party/FatFs/src/ff.c **** 	do {
1856:../libdaisy/Middlewares/Third_Party/FatFs/src/ff.c **** 		sum = (sum >> 1) + (sum << 7) + *dir++;
1857:../libdaisy/Middlewares/Third_Party/FatFs/src/ff.c **** 	} while (--n);
1858:../libdaisy/Middlewares/Third_Party/FatFs/src/ff.c **** 	return sum;
1859:../libdaisy/Middlewares/Third_Party/FatFs/src/ff.c **** }
1860:../libdaisy/Middlewares/Third_Party/FatFs/src/ff.c **** 
1861:../libdaisy/Middlewares/Third_Party/FatFs/src/ff.c **** #endif	/* _USE_LFN != 0 */
1862:../libdaisy/Middlewares/Third_Party/FatFs/src/ff.c **** 
1863:../libdaisy/Middlewares/Third_Party/FatFs/src/ff.c **** 
1864:../libdaisy/Middlewares/Third_Party/FatFs/src/ff.c **** 
1865:../libdaisy/Middlewares/Third_Party/FatFs/src/ff.c **** #if _FS_EXFAT
1866:../libdaisy/Middlewares/Third_Party/FatFs/src/ff.c **** /*-----------------------------------------------------------------------*/
1867:../libdaisy/Middlewares/Third_Party/FatFs/src/ff.c **** /* exFAT: Checksum                                                       */
1868:../libdaisy/Middlewares/Third_Party/FatFs/src/ff.c **** /*-----------------------------------------------------------------------*/
1869:../libdaisy/Middlewares/Third_Party/FatFs/src/ff.c **** 
ARM GAS  /var/folders/0d/2ntwfkp1791d52chq7d_xwdm0000gn/T//ccOVjVrq.s 			page 42


1870:../libdaisy/Middlewares/Third_Party/FatFs/src/ff.c **** static
1871:../libdaisy/Middlewares/Third_Party/FatFs/src/ff.c **** WORD xdir_sum (			/* Get checksum of the directoly block */
1872:../libdaisy/Middlewares/Third_Party/FatFs/src/ff.c **** 	const BYTE* dir		/* Directory entry block to be calculated */
1873:../libdaisy/Middlewares/Third_Party/FatFs/src/ff.c **** )
1874:../libdaisy/Middlewares/Third_Party/FatFs/src/ff.c **** {
1875:../libdaisy/Middlewares/Third_Party/FatFs/src/ff.c **** 	UINT i, szblk;
1876:../libdaisy/Middlewares/Third_Party/FatFs/src/ff.c **** 	WORD sum;
1877:../libdaisy/Middlewares/Third_Party/FatFs/src/ff.c **** 
1878:../libdaisy/Middlewares/Third_Party/FatFs/src/ff.c **** 
1879:../libdaisy/Middlewares/Third_Party/FatFs/src/ff.c **** 	szblk = (dir[XDIR_NumSec] + 1) * SZDIRE;
1880:../libdaisy/Middlewares/Third_Party/FatFs/src/ff.c **** 	for (i = sum = 0; i < szblk; i++) {
1881:../libdaisy/Middlewares/Third_Party/FatFs/src/ff.c **** 		if (i == XDIR_SetSum) {	/* Skip sum field */
1882:../libdaisy/Middlewares/Third_Party/FatFs/src/ff.c **** 			i++;
1883:../libdaisy/Middlewares/Third_Party/FatFs/src/ff.c **** 		} else {
1884:../libdaisy/Middlewares/Third_Party/FatFs/src/ff.c **** 			sum = ((sum & 1) ? 0x8000 : 0) + (sum >> 1) + dir[i];
1885:../libdaisy/Middlewares/Third_Party/FatFs/src/ff.c **** 		}
1886:../libdaisy/Middlewares/Third_Party/FatFs/src/ff.c **** 	}
1887:../libdaisy/Middlewares/Third_Party/FatFs/src/ff.c **** 	return sum;
1888:../libdaisy/Middlewares/Third_Party/FatFs/src/ff.c **** }
1889:../libdaisy/Middlewares/Third_Party/FatFs/src/ff.c **** 
1890:../libdaisy/Middlewares/Third_Party/FatFs/src/ff.c **** 
1891:../libdaisy/Middlewares/Third_Party/FatFs/src/ff.c **** 
1892:../libdaisy/Middlewares/Third_Party/FatFs/src/ff.c **** static
1893:../libdaisy/Middlewares/Third_Party/FatFs/src/ff.c **** WORD xname_sum (		/* Get check sum (to be used as hash) of the name */
1894:../libdaisy/Middlewares/Third_Party/FatFs/src/ff.c **** 	const WCHAR* name	/* File name to be calculated */
1895:../libdaisy/Middlewares/Third_Party/FatFs/src/ff.c **** )
1896:../libdaisy/Middlewares/Third_Party/FatFs/src/ff.c **** {
1897:../libdaisy/Middlewares/Third_Party/FatFs/src/ff.c **** 	WCHAR chr;
1898:../libdaisy/Middlewares/Third_Party/FatFs/src/ff.c **** 	WORD sum = 0;
1899:../libdaisy/Middlewares/Third_Party/FatFs/src/ff.c **** 
1900:../libdaisy/Middlewares/Third_Party/FatFs/src/ff.c **** 
1901:../libdaisy/Middlewares/Third_Party/FatFs/src/ff.c **** 	while ((chr = *name++) != 0) {
1902:../libdaisy/Middlewares/Third_Party/FatFs/src/ff.c **** 		chr = ff_wtoupper(chr);		/* File name needs to be ignored case */
1903:../libdaisy/Middlewares/Third_Party/FatFs/src/ff.c **** 		sum = ((sum & 1) ? 0x8000 : 0) + (sum >> 1) + (chr & 0xFF);
1904:../libdaisy/Middlewares/Third_Party/FatFs/src/ff.c **** 		sum = ((sum & 1) ? 0x8000 : 0) + (sum >> 1) + (chr >> 8);
1905:../libdaisy/Middlewares/Third_Party/FatFs/src/ff.c **** 	}
1906:../libdaisy/Middlewares/Third_Party/FatFs/src/ff.c **** 	return sum;
1907:../libdaisy/Middlewares/Third_Party/FatFs/src/ff.c **** }
1908:../libdaisy/Middlewares/Third_Party/FatFs/src/ff.c **** 
1909:../libdaisy/Middlewares/Third_Party/FatFs/src/ff.c **** 
1910:../libdaisy/Middlewares/Third_Party/FatFs/src/ff.c **** #if !_FS_READONLY && _USE_MKFS
1911:../libdaisy/Middlewares/Third_Party/FatFs/src/ff.c **** static
1912:../libdaisy/Middlewares/Third_Party/FatFs/src/ff.c **** DWORD xsum32 (
1913:../libdaisy/Middlewares/Third_Party/FatFs/src/ff.c **** 	BYTE  dat,	/* Data to be sumed */
1914:../libdaisy/Middlewares/Third_Party/FatFs/src/ff.c **** 	DWORD sum	/* Previous value */
1915:../libdaisy/Middlewares/Third_Party/FatFs/src/ff.c **** )
1916:../libdaisy/Middlewares/Third_Party/FatFs/src/ff.c **** {
1917:../libdaisy/Middlewares/Third_Party/FatFs/src/ff.c **** 	sum = ((sum & 1) ? 0x80000000 : 0) + (sum >> 1) + dat;
1918:../libdaisy/Middlewares/Third_Party/FatFs/src/ff.c **** 	return sum;
1919:../libdaisy/Middlewares/Third_Party/FatFs/src/ff.c **** }
1920:../libdaisy/Middlewares/Third_Party/FatFs/src/ff.c **** #endif
1921:../libdaisy/Middlewares/Third_Party/FatFs/src/ff.c **** 
1922:../libdaisy/Middlewares/Third_Party/FatFs/src/ff.c **** 
1923:../libdaisy/Middlewares/Third_Party/FatFs/src/ff.c **** #if _FS_MINIMIZE <= 1 || _FS_RPATH >= 2
1924:../libdaisy/Middlewares/Third_Party/FatFs/src/ff.c **** /*------------------------------------------------------*/
1925:../libdaisy/Middlewares/Third_Party/FatFs/src/ff.c **** /* exFAT: Get object information from a directory block */
1926:../libdaisy/Middlewares/Third_Party/FatFs/src/ff.c **** /*------------------------------------------------------*/
ARM GAS  /var/folders/0d/2ntwfkp1791d52chq7d_xwdm0000gn/T//ccOVjVrq.s 			page 43


1927:../libdaisy/Middlewares/Third_Party/FatFs/src/ff.c **** 
1928:../libdaisy/Middlewares/Third_Party/FatFs/src/ff.c **** static
1929:../libdaisy/Middlewares/Third_Party/FatFs/src/ff.c **** void get_xdir_info (
1930:../libdaisy/Middlewares/Third_Party/FatFs/src/ff.c **** 	BYTE* dirb,			/* Pointer to the direcotry entry block 85+C0+C1s */
1931:../libdaisy/Middlewares/Third_Party/FatFs/src/ff.c **** 	FILINFO* fno		/* Buffer to store the extracted file information */
1932:../libdaisy/Middlewares/Third_Party/FatFs/src/ff.c **** )
1933:../libdaisy/Middlewares/Third_Party/FatFs/src/ff.c **** {
1934:../libdaisy/Middlewares/Third_Party/FatFs/src/ff.c **** 	UINT di, si;
1935:../libdaisy/Middlewares/Third_Party/FatFs/src/ff.c **** 	WCHAR w;
1936:../libdaisy/Middlewares/Third_Party/FatFs/src/ff.c **** #if !_LFN_UNICODE
1937:../libdaisy/Middlewares/Third_Party/FatFs/src/ff.c **** 	UINT nc;
1938:../libdaisy/Middlewares/Third_Party/FatFs/src/ff.c **** #endif
1939:../libdaisy/Middlewares/Third_Party/FatFs/src/ff.c **** 
1940:../libdaisy/Middlewares/Third_Party/FatFs/src/ff.c **** 	/* Get file name */
1941:../libdaisy/Middlewares/Third_Party/FatFs/src/ff.c **** 	di = 0;
1942:../libdaisy/Middlewares/Third_Party/FatFs/src/ff.c **** #if _LFN_UNICODE
1943:../libdaisy/Middlewares/Third_Party/FatFs/src/ff.c **** 	for (si = SZDIRE * 2; di < dirb[XDIR_NumName]; si += 2, di++) {
1944:../libdaisy/Middlewares/Third_Party/FatFs/src/ff.c **** 		if ((si % SZDIRE) == 0) si += 2;		/* Skip entry type field */
1945:../libdaisy/Middlewares/Third_Party/FatFs/src/ff.c **** 		w = ld_word(dirb + si);					/* Get a character */
1946:../libdaisy/Middlewares/Third_Party/FatFs/src/ff.c **** 		if (di >= _MAX_LFN) { di = 0; break; }	/* Buffer overflow --> inaccessible object name */
1947:../libdaisy/Middlewares/Third_Party/FatFs/src/ff.c **** 		fno->fname[di] = w;						/* Store it */
1948:../libdaisy/Middlewares/Third_Party/FatFs/src/ff.c **** 	}
1949:../libdaisy/Middlewares/Third_Party/FatFs/src/ff.c **** #else
1950:../libdaisy/Middlewares/Third_Party/FatFs/src/ff.c **** 	for (si = SZDIRE * 2, nc = 0; nc < dirb[XDIR_NumName]; si += 2, nc++) {
1951:../libdaisy/Middlewares/Third_Party/FatFs/src/ff.c **** 		if ((si % SZDIRE) == 0) si += 2;		/* Skip entry type field */
1952:../libdaisy/Middlewares/Third_Party/FatFs/src/ff.c **** 		w = ff_convert(ld_word(dirb + si), 0);	/* Get a character and Unicode -> OEM */
1953:../libdaisy/Middlewares/Third_Party/FatFs/src/ff.c **** 		if (_DF1S && w >= 0x100) {				/* Is it a double byte char? (always false at SBCS cfg) */
1954:../libdaisy/Middlewares/Third_Party/FatFs/src/ff.c **** 			fno->fname[di++] = (char)(w >> 8);	/* Put 1st byte of the DBC */
1955:../libdaisy/Middlewares/Third_Party/FatFs/src/ff.c **** 		}
1956:../libdaisy/Middlewares/Third_Party/FatFs/src/ff.c **** 		if (w == 0 || di >= _MAX_LFN) { di = 0; break; }	/* Invalid char or buffer overflow --> inaccessi
1957:../libdaisy/Middlewares/Third_Party/FatFs/src/ff.c **** 		fno->fname[di++] = (char)w;
1958:../libdaisy/Middlewares/Third_Party/FatFs/src/ff.c **** 	}
1959:../libdaisy/Middlewares/Third_Party/FatFs/src/ff.c **** #endif
1960:../libdaisy/Middlewares/Third_Party/FatFs/src/ff.c **** 	if (di == 0) fno->fname[di++] = '?';	/* Inaccessible object name? */
1961:../libdaisy/Middlewares/Third_Party/FatFs/src/ff.c **** 	fno->fname[di] = 0;						/* Terminate file name */
1962:../libdaisy/Middlewares/Third_Party/FatFs/src/ff.c **** 
1963:../libdaisy/Middlewares/Third_Party/FatFs/src/ff.c **** 	fno->altname[0] = 0;							/* No SFN */
1964:../libdaisy/Middlewares/Third_Party/FatFs/src/ff.c **** 	fno->fattrib = dirb[XDIR_Attr];					/* Attribute */
1965:../libdaisy/Middlewares/Third_Party/FatFs/src/ff.c **** 	fno->fsize = (fno->fattrib & AM_DIR) ? 0 : ld_qword(dirb + XDIR_FileSize);	/* Size */
1966:../libdaisy/Middlewares/Third_Party/FatFs/src/ff.c **** 	fno->ftime = ld_word(dirb + XDIR_ModTime + 0);	/* Time */
1967:../libdaisy/Middlewares/Third_Party/FatFs/src/ff.c **** 	fno->fdate = ld_word(dirb + XDIR_ModTime + 2);	/* Date */
1968:../libdaisy/Middlewares/Third_Party/FatFs/src/ff.c **** }
1969:../libdaisy/Middlewares/Third_Party/FatFs/src/ff.c **** 
1970:../libdaisy/Middlewares/Third_Party/FatFs/src/ff.c **** #endif	/* _FS_MINIMIZE <= 1 || _FS_RPATH >= 2 */
1971:../libdaisy/Middlewares/Third_Party/FatFs/src/ff.c **** 
1972:../libdaisy/Middlewares/Third_Party/FatFs/src/ff.c **** 
1973:../libdaisy/Middlewares/Third_Party/FatFs/src/ff.c **** /*-----------------------------------*/
1974:../libdaisy/Middlewares/Third_Party/FatFs/src/ff.c **** /* exFAT: Get a directry entry block */
1975:../libdaisy/Middlewares/Third_Party/FatFs/src/ff.c **** /*-----------------------------------*/
1976:../libdaisy/Middlewares/Third_Party/FatFs/src/ff.c **** 
1977:../libdaisy/Middlewares/Third_Party/FatFs/src/ff.c **** static
1978:../libdaisy/Middlewares/Third_Party/FatFs/src/ff.c **** FRESULT load_xdir (	/* FR_INT_ERR: invalid entry block */
1979:../libdaisy/Middlewares/Third_Party/FatFs/src/ff.c **** 	DIR* dp			/* Pointer to the reading direcotry object pointing the 85 entry */
1980:../libdaisy/Middlewares/Third_Party/FatFs/src/ff.c **** )
1981:../libdaisy/Middlewares/Third_Party/FatFs/src/ff.c **** {
1982:../libdaisy/Middlewares/Third_Party/FatFs/src/ff.c **** 	FRESULT res;
1983:../libdaisy/Middlewares/Third_Party/FatFs/src/ff.c **** 	UINT i, sz_ent;
ARM GAS  /var/folders/0d/2ntwfkp1791d52chq7d_xwdm0000gn/T//ccOVjVrq.s 			page 44


1984:../libdaisy/Middlewares/Third_Party/FatFs/src/ff.c **** 	BYTE* dirb = dp->obj.fs->dirbuf;	/* Pointer to the on-memory direcotry entry block 85+C0+C1s */
1985:../libdaisy/Middlewares/Third_Party/FatFs/src/ff.c **** 
1986:../libdaisy/Middlewares/Third_Party/FatFs/src/ff.c **** 
1987:../libdaisy/Middlewares/Third_Party/FatFs/src/ff.c **** 	/* Load 85 entry */
1988:../libdaisy/Middlewares/Third_Party/FatFs/src/ff.c **** 	res = move_window(dp->obj.fs, dp->sect);
1989:../libdaisy/Middlewares/Third_Party/FatFs/src/ff.c **** 	if (res != FR_OK) return res;
1990:../libdaisy/Middlewares/Third_Party/FatFs/src/ff.c **** 	if (dp->dir[XDIR_Type] != 0x85) return FR_INT_ERR;
1991:../libdaisy/Middlewares/Third_Party/FatFs/src/ff.c **** 	mem_cpy(dirb + 0, dp->dir, SZDIRE);
1992:../libdaisy/Middlewares/Third_Party/FatFs/src/ff.c **** 	sz_ent = (dirb[XDIR_NumSec] + 1) * SZDIRE;
1993:../libdaisy/Middlewares/Third_Party/FatFs/src/ff.c **** 	if (sz_ent < 3 * SZDIRE || sz_ent > 19 * SZDIRE) return FR_INT_ERR;
1994:../libdaisy/Middlewares/Third_Party/FatFs/src/ff.c **** 
1995:../libdaisy/Middlewares/Third_Party/FatFs/src/ff.c **** 	/* Load C0 entry */
1996:../libdaisy/Middlewares/Third_Party/FatFs/src/ff.c **** 	res = dir_next(dp, 0);
1997:../libdaisy/Middlewares/Third_Party/FatFs/src/ff.c **** 	if (res != FR_OK) return res;
1998:../libdaisy/Middlewares/Third_Party/FatFs/src/ff.c **** 	res = move_window(dp->obj.fs, dp->sect);
1999:../libdaisy/Middlewares/Third_Party/FatFs/src/ff.c **** 	if (res != FR_OK) return res;
2000:../libdaisy/Middlewares/Third_Party/FatFs/src/ff.c **** 	if (dp->dir[XDIR_Type] != 0xC0) return FR_INT_ERR;
2001:../libdaisy/Middlewares/Third_Party/FatFs/src/ff.c **** 	mem_cpy(dirb + SZDIRE, dp->dir, SZDIRE);
2002:../libdaisy/Middlewares/Third_Party/FatFs/src/ff.c **** 	if (MAXDIRB(dirb[XDIR_NumName]) > sz_ent) return FR_INT_ERR;
2003:../libdaisy/Middlewares/Third_Party/FatFs/src/ff.c **** 
2004:../libdaisy/Middlewares/Third_Party/FatFs/src/ff.c **** 	/* Load C1 entries */
2005:../libdaisy/Middlewares/Third_Party/FatFs/src/ff.c **** 	i = SZDIRE * 2;	/* C1 offset */
2006:../libdaisy/Middlewares/Third_Party/FatFs/src/ff.c **** 	do {
2007:../libdaisy/Middlewares/Third_Party/FatFs/src/ff.c **** 		res = dir_next(dp, 0);
2008:../libdaisy/Middlewares/Third_Party/FatFs/src/ff.c **** 		if (res != FR_OK) return res;
2009:../libdaisy/Middlewares/Third_Party/FatFs/src/ff.c **** 		res = move_window(dp->obj.fs, dp->sect);
2010:../libdaisy/Middlewares/Third_Party/FatFs/src/ff.c **** 		if (res != FR_OK) return res;
2011:../libdaisy/Middlewares/Third_Party/FatFs/src/ff.c **** 		if (dp->dir[XDIR_Type] != 0xC1) return FR_INT_ERR;
2012:../libdaisy/Middlewares/Third_Party/FatFs/src/ff.c **** 		if (i < MAXDIRB(_MAX_LFN)) mem_cpy(dirb + i, dp->dir, SZDIRE);
2013:../libdaisy/Middlewares/Third_Party/FatFs/src/ff.c **** 	} while ((i += SZDIRE) < sz_ent);
2014:../libdaisy/Middlewares/Third_Party/FatFs/src/ff.c **** 
2015:../libdaisy/Middlewares/Third_Party/FatFs/src/ff.c **** 	/* Sanity check (do it when accessible object name) */
2016:../libdaisy/Middlewares/Third_Party/FatFs/src/ff.c **** 	if (i <= MAXDIRB(_MAX_LFN)) {
2017:../libdaisy/Middlewares/Third_Party/FatFs/src/ff.c **** 		if (xdir_sum(dirb) != ld_word(dirb + XDIR_SetSum)) return FR_INT_ERR;
2018:../libdaisy/Middlewares/Third_Party/FatFs/src/ff.c **** 	}
2019:../libdaisy/Middlewares/Third_Party/FatFs/src/ff.c **** 	return FR_OK;
2020:../libdaisy/Middlewares/Third_Party/FatFs/src/ff.c **** }
2021:../libdaisy/Middlewares/Third_Party/FatFs/src/ff.c **** 
2022:../libdaisy/Middlewares/Third_Party/FatFs/src/ff.c **** 
2023:../libdaisy/Middlewares/Third_Party/FatFs/src/ff.c **** #if !_FS_READONLY || _FS_RPATH != 0
2024:../libdaisy/Middlewares/Third_Party/FatFs/src/ff.c **** /*------------------------------------------------*/
2025:../libdaisy/Middlewares/Third_Party/FatFs/src/ff.c **** /* exFAT: Load the object's directory entry block */
2026:../libdaisy/Middlewares/Third_Party/FatFs/src/ff.c **** /*------------------------------------------------*/
2027:../libdaisy/Middlewares/Third_Party/FatFs/src/ff.c **** static
2028:../libdaisy/Middlewares/Third_Party/FatFs/src/ff.c **** FRESULT load_obj_dir (
2029:../libdaisy/Middlewares/Third_Party/FatFs/src/ff.c **** 	DIR* dp,			/* Blank directory object to be used to access containing direcotry */
2030:../libdaisy/Middlewares/Third_Party/FatFs/src/ff.c **** 	const _FDID* obj	/* Object with its containing directory information */
2031:../libdaisy/Middlewares/Third_Party/FatFs/src/ff.c **** )
2032:../libdaisy/Middlewares/Third_Party/FatFs/src/ff.c **** {
2033:../libdaisy/Middlewares/Third_Party/FatFs/src/ff.c **** 	FRESULT res;
2034:../libdaisy/Middlewares/Third_Party/FatFs/src/ff.c **** 
2035:../libdaisy/Middlewares/Third_Party/FatFs/src/ff.c **** 	/* Open object containing directory */
2036:../libdaisy/Middlewares/Third_Party/FatFs/src/ff.c **** 	dp->obj.fs = obj->fs;
2037:../libdaisy/Middlewares/Third_Party/FatFs/src/ff.c **** 	dp->obj.sclust = obj->c_scl;
2038:../libdaisy/Middlewares/Third_Party/FatFs/src/ff.c **** 	dp->obj.stat = (BYTE)obj->c_size;
2039:../libdaisy/Middlewares/Third_Party/FatFs/src/ff.c **** 	dp->obj.objsize = obj->c_size & 0xFFFFFF00;
2040:../libdaisy/Middlewares/Third_Party/FatFs/src/ff.c **** 	dp->blk_ofs = obj->c_ofs;
ARM GAS  /var/folders/0d/2ntwfkp1791d52chq7d_xwdm0000gn/T//ccOVjVrq.s 			page 45


2041:../libdaisy/Middlewares/Third_Party/FatFs/src/ff.c **** 
2042:../libdaisy/Middlewares/Third_Party/FatFs/src/ff.c **** 	res = dir_sdi(dp, dp->blk_ofs);	/* Goto object's entry block */
2043:../libdaisy/Middlewares/Third_Party/FatFs/src/ff.c **** 	if (res == FR_OK) {
2044:../libdaisy/Middlewares/Third_Party/FatFs/src/ff.c **** 		res = load_xdir(dp);		/* Load the object's entry block */
2045:../libdaisy/Middlewares/Third_Party/FatFs/src/ff.c **** 	}
2046:../libdaisy/Middlewares/Third_Party/FatFs/src/ff.c **** 	return res;
2047:../libdaisy/Middlewares/Third_Party/FatFs/src/ff.c **** }
2048:../libdaisy/Middlewares/Third_Party/FatFs/src/ff.c **** #endif
2049:../libdaisy/Middlewares/Third_Party/FatFs/src/ff.c **** 
2050:../libdaisy/Middlewares/Third_Party/FatFs/src/ff.c **** 
2051:../libdaisy/Middlewares/Third_Party/FatFs/src/ff.c **** #if !_FS_READONLY
2052:../libdaisy/Middlewares/Third_Party/FatFs/src/ff.c **** /*-----------------------------------------------*/
2053:../libdaisy/Middlewares/Third_Party/FatFs/src/ff.c **** /* exFAT: Store the directory block to the media */
2054:../libdaisy/Middlewares/Third_Party/FatFs/src/ff.c **** /*-----------------------------------------------*/
2055:../libdaisy/Middlewares/Third_Party/FatFs/src/ff.c **** static
2056:../libdaisy/Middlewares/Third_Party/FatFs/src/ff.c **** FRESULT store_xdir (
2057:../libdaisy/Middlewares/Third_Party/FatFs/src/ff.c **** 	DIR* dp				/* Pointer to the direcotry object */
2058:../libdaisy/Middlewares/Third_Party/FatFs/src/ff.c **** )
2059:../libdaisy/Middlewares/Third_Party/FatFs/src/ff.c **** {
2060:../libdaisy/Middlewares/Third_Party/FatFs/src/ff.c **** 	FRESULT res;
2061:../libdaisy/Middlewares/Third_Party/FatFs/src/ff.c **** 	UINT nent;
2062:../libdaisy/Middlewares/Third_Party/FatFs/src/ff.c **** 	BYTE* dirb = dp->obj.fs->dirbuf;	/* Pointer to the direcotry entry block 85+C0+C1s */
2063:../libdaisy/Middlewares/Third_Party/FatFs/src/ff.c **** 
2064:../libdaisy/Middlewares/Third_Party/FatFs/src/ff.c **** 	/* Create set sum */
2065:../libdaisy/Middlewares/Third_Party/FatFs/src/ff.c **** 	st_word(dirb + XDIR_SetSum, xdir_sum(dirb));
2066:../libdaisy/Middlewares/Third_Party/FatFs/src/ff.c **** 	nent = dirb[XDIR_NumSec] + 1;
2067:../libdaisy/Middlewares/Third_Party/FatFs/src/ff.c **** 
2068:../libdaisy/Middlewares/Third_Party/FatFs/src/ff.c **** 	/* Store the set of directory to the volume */
2069:../libdaisy/Middlewares/Third_Party/FatFs/src/ff.c **** 	res = dir_sdi(dp, dp->blk_ofs);
2070:../libdaisy/Middlewares/Third_Party/FatFs/src/ff.c **** 	while (res == FR_OK) {
2071:../libdaisy/Middlewares/Third_Party/FatFs/src/ff.c **** 		res = move_window(dp->obj.fs, dp->sect);
2072:../libdaisy/Middlewares/Third_Party/FatFs/src/ff.c **** 		if (res != FR_OK) break;
2073:../libdaisy/Middlewares/Third_Party/FatFs/src/ff.c **** 		mem_cpy(dp->dir, dirb, SZDIRE);
2074:../libdaisy/Middlewares/Third_Party/FatFs/src/ff.c **** 		dp->obj.fs->wflag = 1;
2075:../libdaisy/Middlewares/Third_Party/FatFs/src/ff.c **** 		if (--nent == 0) break;
2076:../libdaisy/Middlewares/Third_Party/FatFs/src/ff.c **** 		dirb += SZDIRE;
2077:../libdaisy/Middlewares/Third_Party/FatFs/src/ff.c **** 		res = dir_next(dp, 0);
2078:../libdaisy/Middlewares/Third_Party/FatFs/src/ff.c **** 	}
2079:../libdaisy/Middlewares/Third_Party/FatFs/src/ff.c **** 	return (res == FR_OK || res == FR_DISK_ERR) ? res : FR_INT_ERR;
2080:../libdaisy/Middlewares/Third_Party/FatFs/src/ff.c **** }
2081:../libdaisy/Middlewares/Third_Party/FatFs/src/ff.c **** 
2082:../libdaisy/Middlewares/Third_Party/FatFs/src/ff.c **** 
2083:../libdaisy/Middlewares/Third_Party/FatFs/src/ff.c **** 
2084:../libdaisy/Middlewares/Third_Party/FatFs/src/ff.c **** /*-------------------------------------------*/
2085:../libdaisy/Middlewares/Third_Party/FatFs/src/ff.c **** /* exFAT: Create a new directory enrty block */
2086:../libdaisy/Middlewares/Third_Party/FatFs/src/ff.c **** /*-------------------------------------------*/
2087:../libdaisy/Middlewares/Third_Party/FatFs/src/ff.c **** 
2088:../libdaisy/Middlewares/Third_Party/FatFs/src/ff.c **** static
2089:../libdaisy/Middlewares/Third_Party/FatFs/src/ff.c **** void create_xdir (
2090:../libdaisy/Middlewares/Third_Party/FatFs/src/ff.c **** 	BYTE* dirb,			/* Pointer to the direcotry entry block buffer */
2091:../libdaisy/Middlewares/Third_Party/FatFs/src/ff.c **** 	const WCHAR* lfn	/* Pointer to the nul terminated file name */
2092:../libdaisy/Middlewares/Third_Party/FatFs/src/ff.c **** )
2093:../libdaisy/Middlewares/Third_Party/FatFs/src/ff.c **** {
2094:../libdaisy/Middlewares/Third_Party/FatFs/src/ff.c **** 	UINT i;
2095:../libdaisy/Middlewares/Third_Party/FatFs/src/ff.c **** 	BYTE nb, nc;
2096:../libdaisy/Middlewares/Third_Party/FatFs/src/ff.c **** 	WCHAR chr;
2097:../libdaisy/Middlewares/Third_Party/FatFs/src/ff.c **** 
ARM GAS  /var/folders/0d/2ntwfkp1791d52chq7d_xwdm0000gn/T//ccOVjVrq.s 			page 46


2098:../libdaisy/Middlewares/Third_Party/FatFs/src/ff.c **** 
2099:../libdaisy/Middlewares/Third_Party/FatFs/src/ff.c **** 	/* Create 85+C0 entry */
2100:../libdaisy/Middlewares/Third_Party/FatFs/src/ff.c **** 	mem_set(dirb, 0, 2 * SZDIRE);
2101:../libdaisy/Middlewares/Third_Party/FatFs/src/ff.c **** 	dirb[XDIR_Type] = 0x85;
2102:../libdaisy/Middlewares/Third_Party/FatFs/src/ff.c **** 	dirb[XDIR_Type + SZDIRE] = 0xC0;
2103:../libdaisy/Middlewares/Third_Party/FatFs/src/ff.c **** 
2104:../libdaisy/Middlewares/Third_Party/FatFs/src/ff.c **** 	/* Create C1 entries */
2105:../libdaisy/Middlewares/Third_Party/FatFs/src/ff.c **** 	nc = 0; nb = 1; chr = 1; i = SZDIRE * 2;
2106:../libdaisy/Middlewares/Third_Party/FatFs/src/ff.c **** 	do {
2107:../libdaisy/Middlewares/Third_Party/FatFs/src/ff.c **** 		dirb[i++] = 0xC1; dirb[i++] = 0;	/* Entry type C1 */
2108:../libdaisy/Middlewares/Third_Party/FatFs/src/ff.c **** 		do {	/* Fill name field */
2109:../libdaisy/Middlewares/Third_Party/FatFs/src/ff.c **** 			if (chr && (chr = lfn[nc]) != 0) nc++;	/* Get a character if exist */
2110:../libdaisy/Middlewares/Third_Party/FatFs/src/ff.c **** 			st_word(dirb + i, chr); 		/* Store it */
2111:../libdaisy/Middlewares/Third_Party/FatFs/src/ff.c **** 		} while ((i += 2) % SZDIRE != 0);
2112:../libdaisy/Middlewares/Third_Party/FatFs/src/ff.c **** 		nb++;
2113:../libdaisy/Middlewares/Third_Party/FatFs/src/ff.c **** 	} while (lfn[nc]);	/* Fill next entry if any char follows */
2114:../libdaisy/Middlewares/Third_Party/FatFs/src/ff.c **** 
2115:../libdaisy/Middlewares/Third_Party/FatFs/src/ff.c **** 	dirb[XDIR_NumName] = nc;	/* Set name length */
2116:../libdaisy/Middlewares/Third_Party/FatFs/src/ff.c **** 	dirb[XDIR_NumSec] = nb;		/* Set block length */
2117:../libdaisy/Middlewares/Third_Party/FatFs/src/ff.c **** 	st_word(dirb + XDIR_NameHash, xname_sum(lfn));	/* Set name hash */
2118:../libdaisy/Middlewares/Third_Party/FatFs/src/ff.c **** }
2119:../libdaisy/Middlewares/Third_Party/FatFs/src/ff.c **** 
2120:../libdaisy/Middlewares/Third_Party/FatFs/src/ff.c **** #endif	/* !_FS_READONLY */
2121:../libdaisy/Middlewares/Third_Party/FatFs/src/ff.c **** #endif	/* _FS_EXFAT */
2122:../libdaisy/Middlewares/Third_Party/FatFs/src/ff.c **** 
2123:../libdaisy/Middlewares/Third_Party/FatFs/src/ff.c **** 
2124:../libdaisy/Middlewares/Third_Party/FatFs/src/ff.c **** 
2125:../libdaisy/Middlewares/Third_Party/FatFs/src/ff.c **** #if _FS_MINIMIZE <= 1 || _FS_RPATH >= 2 || _USE_LABEL || _FS_EXFAT
2126:../libdaisy/Middlewares/Third_Party/FatFs/src/ff.c **** /*-----------------------------------------------------------------------*/
2127:../libdaisy/Middlewares/Third_Party/FatFs/src/ff.c **** /* Read an object from the directory                                     */
2128:../libdaisy/Middlewares/Third_Party/FatFs/src/ff.c **** /*-----------------------------------------------------------------------*/
2129:../libdaisy/Middlewares/Third_Party/FatFs/src/ff.c **** 
2130:../libdaisy/Middlewares/Third_Party/FatFs/src/ff.c **** static
2131:../libdaisy/Middlewares/Third_Party/FatFs/src/ff.c **** FRESULT dir_read (
2132:../libdaisy/Middlewares/Third_Party/FatFs/src/ff.c **** 	DIR* dp,		/* Pointer to the directory object */
2133:../libdaisy/Middlewares/Third_Party/FatFs/src/ff.c **** 	int vol			/* Filtered by 0:file/directory or 1:volume label */
2134:../libdaisy/Middlewares/Third_Party/FatFs/src/ff.c **** )
2135:../libdaisy/Middlewares/Third_Party/FatFs/src/ff.c **** {
2136:../libdaisy/Middlewares/Third_Party/FatFs/src/ff.c **** 	FRESULT res = FR_NO_FILE;
2137:../libdaisy/Middlewares/Third_Party/FatFs/src/ff.c **** 	FATFS *fs = dp->obj.fs;
2138:../libdaisy/Middlewares/Third_Party/FatFs/src/ff.c **** 	BYTE a, c;
2139:../libdaisy/Middlewares/Third_Party/FatFs/src/ff.c **** #if _USE_LFN != 0
2140:../libdaisy/Middlewares/Third_Party/FatFs/src/ff.c **** 	BYTE ord = 0xFF, sum = 0xFF;
2141:../libdaisy/Middlewares/Third_Party/FatFs/src/ff.c **** #endif
2142:../libdaisy/Middlewares/Third_Party/FatFs/src/ff.c **** 
2143:../libdaisy/Middlewares/Third_Party/FatFs/src/ff.c **** 	while (dp->sect) {
2144:../libdaisy/Middlewares/Third_Party/FatFs/src/ff.c **** 		res = move_window(fs, dp->sect);
2145:../libdaisy/Middlewares/Third_Party/FatFs/src/ff.c **** 		if (res != FR_OK) break;
2146:../libdaisy/Middlewares/Third_Party/FatFs/src/ff.c **** 		c = dp->dir[DIR_Name];	/* Test for the entry type */
2147:../libdaisy/Middlewares/Third_Party/FatFs/src/ff.c **** 		if (c == 0) {
2148:../libdaisy/Middlewares/Third_Party/FatFs/src/ff.c **** 			res = FR_NO_FILE; break; /* Reached to end of the directory */
2149:../libdaisy/Middlewares/Third_Party/FatFs/src/ff.c **** 		}
2150:../libdaisy/Middlewares/Third_Party/FatFs/src/ff.c **** #if _FS_EXFAT
2151:../libdaisy/Middlewares/Third_Party/FatFs/src/ff.c **** 		if (fs->fs_type == FS_EXFAT) {	/* On the exFAT volume */
2152:../libdaisy/Middlewares/Third_Party/FatFs/src/ff.c **** 			if (_USE_LABEL && vol) {
2153:../libdaisy/Middlewares/Third_Party/FatFs/src/ff.c **** 				if (c == 0x83) break;	/* Volume label entry? */
2154:../libdaisy/Middlewares/Third_Party/FatFs/src/ff.c **** 			} else {
ARM GAS  /var/folders/0d/2ntwfkp1791d52chq7d_xwdm0000gn/T//ccOVjVrq.s 			page 47


2155:../libdaisy/Middlewares/Third_Party/FatFs/src/ff.c **** 				if (c == 0x85) {		/* Start of the file entry block? */
2156:../libdaisy/Middlewares/Third_Party/FatFs/src/ff.c **** 					dp->blk_ofs = dp->dptr;	/* Get location of the block */
2157:../libdaisy/Middlewares/Third_Party/FatFs/src/ff.c **** 					res = load_xdir(dp);	/* Load the entry block */
2158:../libdaisy/Middlewares/Third_Party/FatFs/src/ff.c **** 					if (res == FR_OK) {
2159:../libdaisy/Middlewares/Third_Party/FatFs/src/ff.c **** 						dp->obj.attr = fs->dirbuf[XDIR_Attr] & AM_MASK;	/* Get attribute */
2160:../libdaisy/Middlewares/Third_Party/FatFs/src/ff.c **** 					}
2161:../libdaisy/Middlewares/Third_Party/FatFs/src/ff.c **** 					break;
2162:../libdaisy/Middlewares/Third_Party/FatFs/src/ff.c **** 				}
2163:../libdaisy/Middlewares/Third_Party/FatFs/src/ff.c **** 			}
2164:../libdaisy/Middlewares/Third_Party/FatFs/src/ff.c **** 		} else
2165:../libdaisy/Middlewares/Third_Party/FatFs/src/ff.c **** #endif
2166:../libdaisy/Middlewares/Third_Party/FatFs/src/ff.c **** 		{	/* On the FAT12/16/32 volume */
2167:../libdaisy/Middlewares/Third_Party/FatFs/src/ff.c **** 			dp->obj.attr = a = dp->dir[DIR_Attr] & AM_MASK;	/* Get attribute */
2168:../libdaisy/Middlewares/Third_Party/FatFs/src/ff.c **** #if _USE_LFN != 0	/* LFN configuration */
2169:../libdaisy/Middlewares/Third_Party/FatFs/src/ff.c **** 			if (c == DDEM || c == '.' || (int)((a & ~AM_ARC) == AM_VOL) != vol) {	/* An entry without valid 
2170:../libdaisy/Middlewares/Third_Party/FatFs/src/ff.c **** 				ord = 0xFF;
2171:../libdaisy/Middlewares/Third_Party/FatFs/src/ff.c **** 			} else {
2172:../libdaisy/Middlewares/Third_Party/FatFs/src/ff.c **** 				if (a == AM_LFN) {			/* An LFN entry is found */
2173:../libdaisy/Middlewares/Third_Party/FatFs/src/ff.c **** 					if (c & LLEF) {			/* Is it start of an LFN sequence? */
2174:../libdaisy/Middlewares/Third_Party/FatFs/src/ff.c **** 						sum = dp->dir[LDIR_Chksum];
2175:../libdaisy/Middlewares/Third_Party/FatFs/src/ff.c **** 						c &= (BYTE)~LLEF; ord = c;
2176:../libdaisy/Middlewares/Third_Party/FatFs/src/ff.c **** 						dp->blk_ofs = dp->dptr;
2177:../libdaisy/Middlewares/Third_Party/FatFs/src/ff.c **** 					}
2178:../libdaisy/Middlewares/Third_Party/FatFs/src/ff.c **** 					/* Check LFN validity and capture it */
2179:../libdaisy/Middlewares/Third_Party/FatFs/src/ff.c **** 					ord = (c == ord && sum == dp->dir[LDIR_Chksum] && pick_lfn(fs->lfnbuf, dp->dir)) ? ord - 1 : 0
2180:../libdaisy/Middlewares/Third_Party/FatFs/src/ff.c **** 				} else {					/* An SFN entry is found */
2181:../libdaisy/Middlewares/Third_Party/FatFs/src/ff.c **** 					if (ord || sum != sum_sfn(dp->dir)) {	/* Is there a valid LFN? */
2182:../libdaisy/Middlewares/Third_Party/FatFs/src/ff.c **** 						dp->blk_ofs = 0xFFFFFFFF;			/* It has no LFN. */
2183:../libdaisy/Middlewares/Third_Party/FatFs/src/ff.c **** 					}
2184:../libdaisy/Middlewares/Third_Party/FatFs/src/ff.c **** 					break;
2185:../libdaisy/Middlewares/Third_Party/FatFs/src/ff.c **** 				}
2186:../libdaisy/Middlewares/Third_Party/FatFs/src/ff.c **** 			}
2187:../libdaisy/Middlewares/Third_Party/FatFs/src/ff.c **** #else		/* Non LFN configuration */
2188:../libdaisy/Middlewares/Third_Party/FatFs/src/ff.c **** 			if (c != DDEM && c != '.' && a != AM_LFN && (int)((a & ~AM_ARC) == AM_VOL) == vol) {	/* Is it a 
2189:../libdaisy/Middlewares/Third_Party/FatFs/src/ff.c **** 				break;
2190:../libdaisy/Middlewares/Third_Party/FatFs/src/ff.c **** 			}
2191:../libdaisy/Middlewares/Third_Party/FatFs/src/ff.c **** #endif
2192:../libdaisy/Middlewares/Third_Party/FatFs/src/ff.c **** 		}
2193:../libdaisy/Middlewares/Third_Party/FatFs/src/ff.c **** 		res = dir_next(dp, 0);		/* Next entry */
2194:../libdaisy/Middlewares/Third_Party/FatFs/src/ff.c **** 		if (res != FR_OK) break;
2195:../libdaisy/Middlewares/Third_Party/FatFs/src/ff.c **** 	}
2196:../libdaisy/Middlewares/Third_Party/FatFs/src/ff.c **** 
2197:../libdaisy/Middlewares/Third_Party/FatFs/src/ff.c **** 	if (res != FR_OK) dp->sect = 0;		/* Terminate the read operation on error or EOT */
2198:../libdaisy/Middlewares/Third_Party/FatFs/src/ff.c **** 	return res;
2199:../libdaisy/Middlewares/Third_Party/FatFs/src/ff.c **** }
2200:../libdaisy/Middlewares/Third_Party/FatFs/src/ff.c **** 
2201:../libdaisy/Middlewares/Third_Party/FatFs/src/ff.c **** #endif	/* _FS_MINIMIZE <= 1 || _USE_LABEL || _FS_RPATH >= 2 */
2202:../libdaisy/Middlewares/Third_Party/FatFs/src/ff.c **** 
2203:../libdaisy/Middlewares/Third_Party/FatFs/src/ff.c **** 
2204:../libdaisy/Middlewares/Third_Party/FatFs/src/ff.c **** 
2205:../libdaisy/Middlewares/Third_Party/FatFs/src/ff.c **** /*-----------------------------------------------------------------------*/
2206:../libdaisy/Middlewares/Third_Party/FatFs/src/ff.c **** /* Directory handling - Find an object in the directory                  */
2207:../libdaisy/Middlewares/Third_Party/FatFs/src/ff.c **** /*-----------------------------------------------------------------------*/
2208:../libdaisy/Middlewares/Third_Party/FatFs/src/ff.c **** 
2209:../libdaisy/Middlewares/Third_Party/FatFs/src/ff.c **** static
2210:../libdaisy/Middlewares/Third_Party/FatFs/src/ff.c **** FRESULT dir_find (	/* FR_OK(0):succeeded, !=0:error */
2211:../libdaisy/Middlewares/Third_Party/FatFs/src/ff.c **** 	DIR* dp			/* Pointer to the directory object with the file name */
ARM GAS  /var/folders/0d/2ntwfkp1791d52chq7d_xwdm0000gn/T//ccOVjVrq.s 			page 48


2212:../libdaisy/Middlewares/Third_Party/FatFs/src/ff.c **** )
2213:../libdaisy/Middlewares/Third_Party/FatFs/src/ff.c **** {
2214:../libdaisy/Middlewares/Third_Party/FatFs/src/ff.c **** 	FRESULT res;
2215:../libdaisy/Middlewares/Third_Party/FatFs/src/ff.c **** 	FATFS *fs = dp->obj.fs;
2216:../libdaisy/Middlewares/Third_Party/FatFs/src/ff.c **** 	BYTE c;
2217:../libdaisy/Middlewares/Third_Party/FatFs/src/ff.c **** #if _USE_LFN != 0
2218:../libdaisy/Middlewares/Third_Party/FatFs/src/ff.c **** 	BYTE a, ord, sum;
2219:../libdaisy/Middlewares/Third_Party/FatFs/src/ff.c **** #endif
2220:../libdaisy/Middlewares/Third_Party/FatFs/src/ff.c **** 
2221:../libdaisy/Middlewares/Third_Party/FatFs/src/ff.c **** 	res = dir_sdi(dp, 0);			/* Rewind directory object */
2222:../libdaisy/Middlewares/Third_Party/FatFs/src/ff.c **** 	if (res != FR_OK) return res;
2223:../libdaisy/Middlewares/Third_Party/FatFs/src/ff.c **** #if _FS_EXFAT
2224:../libdaisy/Middlewares/Third_Party/FatFs/src/ff.c **** 	if (fs->fs_type == FS_EXFAT) {	/* On the exFAT volume */
2225:../libdaisy/Middlewares/Third_Party/FatFs/src/ff.c **** 		BYTE nc;
2226:../libdaisy/Middlewares/Third_Party/FatFs/src/ff.c **** 		UINT di, ni;
2227:../libdaisy/Middlewares/Third_Party/FatFs/src/ff.c **** 		WORD hash = xname_sum(fs->lfnbuf);		/* Hash value of the name to find */
2228:../libdaisy/Middlewares/Third_Party/FatFs/src/ff.c **** 
2229:../libdaisy/Middlewares/Third_Party/FatFs/src/ff.c **** 		while ((res = dir_read(dp, 0)) == FR_OK) {	/* Read an item */
2230:../libdaisy/Middlewares/Third_Party/FatFs/src/ff.c **** #if _MAX_LFN < 255
2231:../libdaisy/Middlewares/Third_Party/FatFs/src/ff.c **** 			if (fs->dirbuf[XDIR_NumName] > _MAX_LFN) continue;			/* Skip comparison if inaccessible object n
2232:../libdaisy/Middlewares/Third_Party/FatFs/src/ff.c **** #endif
2233:../libdaisy/Middlewares/Third_Party/FatFs/src/ff.c **** 			if (ld_word(fs->dirbuf + XDIR_NameHash) != hash) continue;	/* Skip comparison if hash mismatched
2234:../libdaisy/Middlewares/Third_Party/FatFs/src/ff.c **** 			for (nc = fs->dirbuf[XDIR_NumName], di = SZDIRE * 2, ni = 0; nc; nc--, di += 2, ni++) {	/* Compa
2235:../libdaisy/Middlewares/Third_Party/FatFs/src/ff.c **** 				if ((di % SZDIRE) == 0) di += 2;
2236:../libdaisy/Middlewares/Third_Party/FatFs/src/ff.c **** 				if (ff_wtoupper(ld_word(fs->dirbuf + di)) != ff_wtoupper(fs->lfnbuf[ni])) break;
2237:../libdaisy/Middlewares/Third_Party/FatFs/src/ff.c **** 			}
2238:../libdaisy/Middlewares/Third_Party/FatFs/src/ff.c **** 			if (nc == 0 && !fs->lfnbuf[ni]) break;	/* Name matched? */
2239:../libdaisy/Middlewares/Third_Party/FatFs/src/ff.c **** 		}
2240:../libdaisy/Middlewares/Third_Party/FatFs/src/ff.c **** 		return res;
2241:../libdaisy/Middlewares/Third_Party/FatFs/src/ff.c **** 	}
2242:../libdaisy/Middlewares/Third_Party/FatFs/src/ff.c **** #endif
2243:../libdaisy/Middlewares/Third_Party/FatFs/src/ff.c **** 	/* On the FAT12/16/32 volume */
2244:../libdaisy/Middlewares/Third_Party/FatFs/src/ff.c **** #if _USE_LFN != 0
2245:../libdaisy/Middlewares/Third_Party/FatFs/src/ff.c **** 	ord = sum = 0xFF; dp->blk_ofs = 0xFFFFFFFF;	/* Reset LFN sequence */
2246:../libdaisy/Middlewares/Third_Party/FatFs/src/ff.c **** #endif
2247:../libdaisy/Middlewares/Third_Party/FatFs/src/ff.c **** 	do {
2248:../libdaisy/Middlewares/Third_Party/FatFs/src/ff.c **** 		res = move_window(fs, dp->sect);
2249:../libdaisy/Middlewares/Third_Party/FatFs/src/ff.c **** 		if (res != FR_OK) break;
2250:../libdaisy/Middlewares/Third_Party/FatFs/src/ff.c **** 		c = dp->dir[DIR_Name];
2251:../libdaisy/Middlewares/Third_Party/FatFs/src/ff.c **** 		if (c == 0) { res = FR_NO_FILE; break; }	/* Reached to end of table */
2252:../libdaisy/Middlewares/Third_Party/FatFs/src/ff.c **** #if _USE_LFN != 0	/* LFN configuration */
2253:../libdaisy/Middlewares/Third_Party/FatFs/src/ff.c **** 		dp->obj.attr = a = dp->dir[DIR_Attr] & AM_MASK;
2254:../libdaisy/Middlewares/Third_Party/FatFs/src/ff.c **** 		if (c == DDEM || ((a & AM_VOL) && a != AM_LFN)) {	/* An entry without valid data */
2255:../libdaisy/Middlewares/Third_Party/FatFs/src/ff.c **** 			ord = 0xFF; dp->blk_ofs = 0xFFFFFFFF;	/* Reset LFN sequence */
2256:../libdaisy/Middlewares/Third_Party/FatFs/src/ff.c **** 		} else {
2257:../libdaisy/Middlewares/Third_Party/FatFs/src/ff.c **** 			if (a == AM_LFN) {			/* An LFN entry is found */
2258:../libdaisy/Middlewares/Third_Party/FatFs/src/ff.c **** 				if (!(dp->fn[NSFLAG] & NS_NOLFN)) {
2259:../libdaisy/Middlewares/Third_Party/FatFs/src/ff.c **** 					if (c & LLEF) {		/* Is it start of LFN sequence? */
2260:../libdaisy/Middlewares/Third_Party/FatFs/src/ff.c **** 						sum = dp->dir[LDIR_Chksum];
2261:../libdaisy/Middlewares/Third_Party/FatFs/src/ff.c **** 						c &= (BYTE)~LLEF; ord = c;	/* LFN start order */
2262:../libdaisy/Middlewares/Third_Party/FatFs/src/ff.c **** 						dp->blk_ofs = dp->dptr;	/* Start offset of LFN */
2263:../libdaisy/Middlewares/Third_Party/FatFs/src/ff.c **** 					}
2264:../libdaisy/Middlewares/Third_Party/FatFs/src/ff.c **** 					/* Check validity of the LFN entry and compare it with given name */
2265:../libdaisy/Middlewares/Third_Party/FatFs/src/ff.c **** 					ord = (c == ord && sum == dp->dir[LDIR_Chksum] && cmp_lfn(fs->lfnbuf, dp->dir)) ? ord - 1 : 0x
2266:../libdaisy/Middlewares/Third_Party/FatFs/src/ff.c **** 				}
2267:../libdaisy/Middlewares/Third_Party/FatFs/src/ff.c **** 			} else {					/* An SFN entry is found */
2268:../libdaisy/Middlewares/Third_Party/FatFs/src/ff.c **** 				if (!ord && sum == sum_sfn(dp->dir)) break;	/* LFN matched? */
ARM GAS  /var/folders/0d/2ntwfkp1791d52chq7d_xwdm0000gn/T//ccOVjVrq.s 			page 49


2269:../libdaisy/Middlewares/Third_Party/FatFs/src/ff.c **** 				if (!(dp->fn[NSFLAG] & NS_LOSS) && !mem_cmp(dp->dir, dp->fn, 11)) break;	/* SFN matched? */
2270:../libdaisy/Middlewares/Third_Party/FatFs/src/ff.c **** 				ord = 0xFF; dp->blk_ofs = 0xFFFFFFFF;	/* Reset LFN sequence */
2271:../libdaisy/Middlewares/Third_Party/FatFs/src/ff.c **** 			}
2272:../libdaisy/Middlewares/Third_Party/FatFs/src/ff.c **** 		}
2273:../libdaisy/Middlewares/Third_Party/FatFs/src/ff.c **** #else		/* Non LFN configuration */
2274:../libdaisy/Middlewares/Third_Party/FatFs/src/ff.c **** 		dp->obj.attr = dp->dir[DIR_Attr] & AM_MASK;
2275:../libdaisy/Middlewares/Third_Party/FatFs/src/ff.c **** 		if (!(dp->dir[DIR_Attr] & AM_VOL) && !mem_cmp(dp->dir, dp->fn, 11)) break;	/* Is it a valid entry
2276:../libdaisy/Middlewares/Third_Party/FatFs/src/ff.c **** #endif
2277:../libdaisy/Middlewares/Third_Party/FatFs/src/ff.c **** 		res = dir_next(dp, 0);	/* Next entry */
2278:../libdaisy/Middlewares/Third_Party/FatFs/src/ff.c **** 	} while (res == FR_OK);
2279:../libdaisy/Middlewares/Third_Party/FatFs/src/ff.c **** 
2280:../libdaisy/Middlewares/Third_Party/FatFs/src/ff.c **** 	return res;
2281:../libdaisy/Middlewares/Third_Party/FatFs/src/ff.c **** }
2282:../libdaisy/Middlewares/Third_Party/FatFs/src/ff.c **** 
2283:../libdaisy/Middlewares/Third_Party/FatFs/src/ff.c **** 
2284:../libdaisy/Middlewares/Third_Party/FatFs/src/ff.c **** 
2285:../libdaisy/Middlewares/Third_Party/FatFs/src/ff.c **** 
2286:../libdaisy/Middlewares/Third_Party/FatFs/src/ff.c **** #if !_FS_READONLY
2287:../libdaisy/Middlewares/Third_Party/FatFs/src/ff.c **** /*-----------------------------------------------------------------------*/
2288:../libdaisy/Middlewares/Third_Party/FatFs/src/ff.c **** /* Register an object to the directory                                   */
2289:../libdaisy/Middlewares/Third_Party/FatFs/src/ff.c **** /*-----------------------------------------------------------------------*/
2290:../libdaisy/Middlewares/Third_Party/FatFs/src/ff.c **** 
2291:../libdaisy/Middlewares/Third_Party/FatFs/src/ff.c **** static
2292:../libdaisy/Middlewares/Third_Party/FatFs/src/ff.c **** FRESULT dir_register (	/* FR_OK:succeeded, FR_DENIED:no free entry or too many SFN collision, FR_DI
2293:../libdaisy/Middlewares/Third_Party/FatFs/src/ff.c **** 	DIR* dp				/* Target directory with object name to be created */
2294:../libdaisy/Middlewares/Third_Party/FatFs/src/ff.c **** )
2295:../libdaisy/Middlewares/Third_Party/FatFs/src/ff.c **** {
2296:../libdaisy/Middlewares/Third_Party/FatFs/src/ff.c **** 	FRESULT res;
2297:../libdaisy/Middlewares/Third_Party/FatFs/src/ff.c **** 	FATFS *fs = dp->obj.fs;
2298:../libdaisy/Middlewares/Third_Party/FatFs/src/ff.c **** #if _USE_LFN != 0	/* LFN configuration */
2299:../libdaisy/Middlewares/Third_Party/FatFs/src/ff.c **** 	UINT n, nlen, nent;
2300:../libdaisy/Middlewares/Third_Party/FatFs/src/ff.c **** 	BYTE sn[12], sum;
2301:../libdaisy/Middlewares/Third_Party/FatFs/src/ff.c **** 
2302:../libdaisy/Middlewares/Third_Party/FatFs/src/ff.c **** 
2303:../libdaisy/Middlewares/Third_Party/FatFs/src/ff.c **** 	if (dp->fn[NSFLAG] & (NS_DOT | NS_NONAME)) return FR_INVALID_NAME;	/* Check name validity */
2304:../libdaisy/Middlewares/Third_Party/FatFs/src/ff.c **** 	for (nlen = 0; fs->lfnbuf[nlen]; nlen++) ;	/* Get lfn length */
2305:../libdaisy/Middlewares/Third_Party/FatFs/src/ff.c **** 
2306:../libdaisy/Middlewares/Third_Party/FatFs/src/ff.c **** #if _FS_EXFAT
2307:../libdaisy/Middlewares/Third_Party/FatFs/src/ff.c **** 	if (fs->fs_type == FS_EXFAT) {	/* On the exFAT volume */
2308:../libdaisy/Middlewares/Third_Party/FatFs/src/ff.c **** 		DIR dj;
2309:../libdaisy/Middlewares/Third_Party/FatFs/src/ff.c **** 
2310:../libdaisy/Middlewares/Third_Party/FatFs/src/ff.c **** 		nent = (nlen + 14) / 15 + 2;	/* Number of entries to allocate (85+C0+C1s) */
2311:../libdaisy/Middlewares/Third_Party/FatFs/src/ff.c **** 		res = dir_alloc(dp, nent);		/* Allocate entries */
2312:../libdaisy/Middlewares/Third_Party/FatFs/src/ff.c **** 		if (res != FR_OK) return res;
2313:../libdaisy/Middlewares/Third_Party/FatFs/src/ff.c **** 		dp->blk_ofs = dp->dptr - SZDIRE * (nent - 1);	/* Set the allocated entry block offset */
2314:../libdaisy/Middlewares/Third_Party/FatFs/src/ff.c **** 
2315:../libdaisy/Middlewares/Third_Party/FatFs/src/ff.c **** 		if (dp->obj.sclust != 0 && (dp->obj.stat & 4)) {	/* Has the sub-directory been stretched? */
2316:../libdaisy/Middlewares/Third_Party/FatFs/src/ff.c **** 			dp->obj.objsize += (DWORD)fs->csize * SS(fs);	/* Increase the directory size by cluster size */
2317:../libdaisy/Middlewares/Third_Party/FatFs/src/ff.c **** 			res = fill_first_frag(&dp->obj);				/* Fill first fragment on the FAT if needed */
2318:../libdaisy/Middlewares/Third_Party/FatFs/src/ff.c **** 			if (res != FR_OK) return res;
2319:../libdaisy/Middlewares/Third_Party/FatFs/src/ff.c **** 			res = fill_last_frag(&dp->obj, dp->clust, 0xFFFFFFFF);	/* Fill last fragment on the FAT if neede
2320:../libdaisy/Middlewares/Third_Party/FatFs/src/ff.c **** 			if (res != FR_OK) return res;
2321:../libdaisy/Middlewares/Third_Party/FatFs/src/ff.c **** 			res = load_obj_dir(&dj, &dp->obj);				/* Load the object status */
2322:../libdaisy/Middlewares/Third_Party/FatFs/src/ff.c **** 			if (res != FR_OK) return res;
2323:../libdaisy/Middlewares/Third_Party/FatFs/src/ff.c **** 			st_qword(fs->dirbuf + XDIR_FileSize, dp->obj.objsize);		/* Update the allocation status */
2324:../libdaisy/Middlewares/Third_Party/FatFs/src/ff.c **** 			st_qword(fs->dirbuf + XDIR_ValidFileSize, dp->obj.objsize);
2325:../libdaisy/Middlewares/Third_Party/FatFs/src/ff.c **** 			fs->dirbuf[XDIR_GenFlags] = dp->obj.stat | 1;
ARM GAS  /var/folders/0d/2ntwfkp1791d52chq7d_xwdm0000gn/T//ccOVjVrq.s 			page 50


2326:../libdaisy/Middlewares/Third_Party/FatFs/src/ff.c **** 			res = store_xdir(&dj);							/* Store the object status */
2327:../libdaisy/Middlewares/Third_Party/FatFs/src/ff.c **** 			if (res != FR_OK) return res;
2328:../libdaisy/Middlewares/Third_Party/FatFs/src/ff.c **** 		}
2329:../libdaisy/Middlewares/Third_Party/FatFs/src/ff.c **** 
2330:../libdaisy/Middlewares/Third_Party/FatFs/src/ff.c **** 		create_xdir(fs->dirbuf, fs->lfnbuf);	/* Create on-memory directory block to be written later */
2331:../libdaisy/Middlewares/Third_Party/FatFs/src/ff.c **** 		return FR_OK;
2332:../libdaisy/Middlewares/Third_Party/FatFs/src/ff.c **** 	}
2333:../libdaisy/Middlewares/Third_Party/FatFs/src/ff.c **** #endif
2334:../libdaisy/Middlewares/Third_Party/FatFs/src/ff.c **** 	/* On the FAT12/16/32 volume */
2335:../libdaisy/Middlewares/Third_Party/FatFs/src/ff.c **** 	mem_cpy(sn, dp->fn, 12);
2336:../libdaisy/Middlewares/Third_Party/FatFs/src/ff.c **** 	if (sn[NSFLAG] & NS_LOSS) {			/* When LFN is out of 8.3 format, generate a numbered name */
2337:../libdaisy/Middlewares/Third_Party/FatFs/src/ff.c **** 		dp->fn[NSFLAG] = NS_NOLFN;		/* Find only SFN */
2338:../libdaisy/Middlewares/Third_Party/FatFs/src/ff.c **** 		for (n = 1; n < 100; n++) {
2339:../libdaisy/Middlewares/Third_Party/FatFs/src/ff.c **** 			gen_numname(dp->fn, sn, fs->lfnbuf, n);	/* Generate a numbered name */
2340:../libdaisy/Middlewares/Third_Party/FatFs/src/ff.c **** 			res = dir_find(dp);				/* Check if the name collides with existing SFN */
2341:../libdaisy/Middlewares/Third_Party/FatFs/src/ff.c **** 			if (res != FR_OK) break;
2342:../libdaisy/Middlewares/Third_Party/FatFs/src/ff.c **** 		}
2343:../libdaisy/Middlewares/Third_Party/FatFs/src/ff.c **** 		if (n == 100) return FR_DENIED;		/* Abort if too many collisions */
2344:../libdaisy/Middlewares/Third_Party/FatFs/src/ff.c **** 		if (res != FR_NO_FILE) return res;	/* Abort if the result is other than 'not collided' */
2345:../libdaisy/Middlewares/Third_Party/FatFs/src/ff.c **** 		dp->fn[NSFLAG] = sn[NSFLAG];
2346:../libdaisy/Middlewares/Third_Party/FatFs/src/ff.c **** 	}
2347:../libdaisy/Middlewares/Third_Party/FatFs/src/ff.c **** 
2348:../libdaisy/Middlewares/Third_Party/FatFs/src/ff.c **** 	/* Create an SFN with/without LFNs. */
2349:../libdaisy/Middlewares/Third_Party/FatFs/src/ff.c **** 	nent = (sn[NSFLAG] & NS_LFN) ? (nlen + 12) / 13 + 1 : 1;	/* Number of entries to allocate */
