ARM GAS  /var/folders/0d/2ntwfkp1791d52chq7d_xwdm0000gn/T//cc8VwKNs.s 			page 1


   1              		.cpu cortex-m7
   2              		.eabi_attribute 28, 1
   3              		.eabi_attribute 20, 1
   4              		.eabi_attribute 21, 1
   5              		.eabi_attribute 23, 3
   6              		.eabi_attribute 24, 1
   7              		.eabi_attribute 25, 1
   8              		.eabi_attribute 26, 1
   9              		.eabi_attribute 30, 2
  10              		.eabi_attribute 34, 1
  11              		.eabi_attribute 18, 4
  12              		.file	"ff_gen_drv.c"
  13              		.text
  14              	.Ltext0:
  15              		.cfi_sections	.debug_frame
  16              		.section	.text.FATFS_UnLinkDriverEx.part.0,"ax",%progbits
  17              		.align	1
  18              		.p2align 2,,3
  19              		.arch armv7e-m
  20              		.syntax unified
  21              		.thumb
  22              		.thumb_func
  23              		.fpu fpv5-d16
  25              	FATFS_UnLinkDriverEx.part.0:
  26              	.LVL0:
  27              	.LFB326:
  28              		.file 1 "../libdaisy/Middlewares/Third_Party/FatFs/src/ff_gen_drv.c"
   1:../libdaisy/Middlewares/Third_Party/FatFs/src/ff_gen_drv.c **** /**
   2:../libdaisy/Middlewares/Third_Party/FatFs/src/ff_gen_drv.c ****   ******************************************************************************
   3:../libdaisy/Middlewares/Third_Party/FatFs/src/ff_gen_drv.c ****   * @file    ff_gen_drv.c
   4:../libdaisy/Middlewares/Third_Party/FatFs/src/ff_gen_drv.c ****   * @author  MCD Application Team
   5:../libdaisy/Middlewares/Third_Party/FatFs/src/ff_gen_drv.c ****   * @brief   FatFs generic low level driver.
   6:../libdaisy/Middlewares/Third_Party/FatFs/src/ff_gen_drv.c ****   *****************************************************************************
   7:../libdaisy/Middlewares/Third_Party/FatFs/src/ff_gen_drv.c ****   * @attention
   8:../libdaisy/Middlewares/Third_Party/FatFs/src/ff_gen_drv.c ****   *
   9:../libdaisy/Middlewares/Third_Party/FatFs/src/ff_gen_drv.c ****   * Copyright (c) 2017 STMicroelectronics. All rights reserved.
  10:../libdaisy/Middlewares/Third_Party/FatFs/src/ff_gen_drv.c ****   *
  11:../libdaisy/Middlewares/Third_Party/FatFs/src/ff_gen_drv.c ****   * This software component is licensed by ST under BSD 3-Clause license,
  12:../libdaisy/Middlewares/Third_Party/FatFs/src/ff_gen_drv.c ****   * the "License"; You may not use this file except in compliance with the
  13:../libdaisy/Middlewares/Third_Party/FatFs/src/ff_gen_drv.c ****   * License. You may obtain a copy of the License at:
  14:../libdaisy/Middlewares/Third_Party/FatFs/src/ff_gen_drv.c ****   *                       opensource.org/licenses/BSD-3-Clause
  15:../libdaisy/Middlewares/Third_Party/FatFs/src/ff_gen_drv.c ****   *
  16:../libdaisy/Middlewares/Third_Party/FatFs/src/ff_gen_drv.c ****   ******************************************************************************
  17:../libdaisy/Middlewares/Third_Party/FatFs/src/ff_gen_drv.c **** **/
  18:../libdaisy/Middlewares/Third_Party/FatFs/src/ff_gen_drv.c **** /* Includes ------------------------------------------------------------------*/
  19:../libdaisy/Middlewares/Third_Party/FatFs/src/ff_gen_drv.c **** #include "ff_gen_drv.h"
  20:../libdaisy/Middlewares/Third_Party/FatFs/src/ff_gen_drv.c **** 
  21:../libdaisy/Middlewares/Third_Party/FatFs/src/ff_gen_drv.c **** /* Private typedef -----------------------------------------------------------*/
  22:../libdaisy/Middlewares/Third_Party/FatFs/src/ff_gen_drv.c **** /* Private define ------------------------------------------------------------*/
  23:../libdaisy/Middlewares/Third_Party/FatFs/src/ff_gen_drv.c **** /* Private variables ---------------------------------------------------------*/
  24:../libdaisy/Middlewares/Third_Party/FatFs/src/ff_gen_drv.c **** Disk_drvTypeDef disk = {{0},{0},{0},0};
  25:../libdaisy/Middlewares/Third_Party/FatFs/src/ff_gen_drv.c **** 
  26:../libdaisy/Middlewares/Third_Party/FatFs/src/ff_gen_drv.c **** /* Private function prototypes -----------------------------------------------*/
  27:../libdaisy/Middlewares/Third_Party/FatFs/src/ff_gen_drv.c **** /* Private functions ---------------------------------------------------------*/
  28:../libdaisy/Middlewares/Third_Party/FatFs/src/ff_gen_drv.c **** 
  29:../libdaisy/Middlewares/Third_Party/FatFs/src/ff_gen_drv.c **** /**
  30:../libdaisy/Middlewares/Third_Party/FatFs/src/ff_gen_drv.c ****   * @brief  Links a compatible diskio driver/lun id and increments the number of active
ARM GAS  /var/folders/0d/2ntwfkp1791d52chq7d_xwdm0000gn/T//cc8VwKNs.s 			page 2


  31:../libdaisy/Middlewares/Third_Party/FatFs/src/ff_gen_drv.c ****   *         linked drivers.
  32:../libdaisy/Middlewares/Third_Party/FatFs/src/ff_gen_drv.c ****   * @note   The number of linked drivers (volumes) is up to 10 due to FatFs limits.
  33:../libdaisy/Middlewares/Third_Party/FatFs/src/ff_gen_drv.c ****   * @param  drv: pointer to the disk IO Driver structure
  34:../libdaisy/Middlewares/Third_Party/FatFs/src/ff_gen_drv.c ****   * @param  path: pointer to the logical drive path
  35:../libdaisy/Middlewares/Third_Party/FatFs/src/ff_gen_drv.c ****   * @param  lun : only used for USB Key Disk to add multi-lun management
  36:../libdaisy/Middlewares/Third_Party/FatFs/src/ff_gen_drv.c ****             else the parameter must be equal to 0
  37:../libdaisy/Middlewares/Third_Party/FatFs/src/ff_gen_drv.c ****   * @retval Returns 0 in case of success, otherwise 1.
  38:../libdaisy/Middlewares/Third_Party/FatFs/src/ff_gen_drv.c ****   */
  39:../libdaisy/Middlewares/Third_Party/FatFs/src/ff_gen_drv.c **** uint8_t FATFS_LinkDriverEx(const Diskio_drvTypeDef *drv, char *path, uint8_t lun)
  40:../libdaisy/Middlewares/Third_Party/FatFs/src/ff_gen_drv.c **** {
  41:../libdaisy/Middlewares/Third_Party/FatFs/src/ff_gen_drv.c ****   uint8_t ret = 1;
  42:../libdaisy/Middlewares/Third_Party/FatFs/src/ff_gen_drv.c ****   uint8_t DiskNum = 0;
  43:../libdaisy/Middlewares/Third_Party/FatFs/src/ff_gen_drv.c **** 
  44:../libdaisy/Middlewares/Third_Party/FatFs/src/ff_gen_drv.c ****   if(disk.nbr < _VOLUMES)
  45:../libdaisy/Middlewares/Third_Party/FatFs/src/ff_gen_drv.c ****   {
  46:../libdaisy/Middlewares/Third_Party/FatFs/src/ff_gen_drv.c ****     disk.is_initialized[disk.nbr] = 0;
  47:../libdaisy/Middlewares/Third_Party/FatFs/src/ff_gen_drv.c ****     disk.drv[disk.nbr] = drv;
  48:../libdaisy/Middlewares/Third_Party/FatFs/src/ff_gen_drv.c ****     disk.lun[disk.nbr] = lun;
  49:../libdaisy/Middlewares/Third_Party/FatFs/src/ff_gen_drv.c ****     DiskNum = disk.nbr++;
  50:../libdaisy/Middlewares/Third_Party/FatFs/src/ff_gen_drv.c ****     path[0] = DiskNum + '0';
  51:../libdaisy/Middlewares/Third_Party/FatFs/src/ff_gen_drv.c ****     path[1] = ':';
  52:../libdaisy/Middlewares/Third_Party/FatFs/src/ff_gen_drv.c ****     path[2] = '/';
  53:../libdaisy/Middlewares/Third_Party/FatFs/src/ff_gen_drv.c ****     path[3] = 0;
  54:../libdaisy/Middlewares/Third_Party/FatFs/src/ff_gen_drv.c ****     ret = 0;
  55:../libdaisy/Middlewares/Third_Party/FatFs/src/ff_gen_drv.c ****   }
  56:../libdaisy/Middlewares/Third_Party/FatFs/src/ff_gen_drv.c **** 
  57:../libdaisy/Middlewares/Third_Party/FatFs/src/ff_gen_drv.c ****   return ret;
  58:../libdaisy/Middlewares/Third_Party/FatFs/src/ff_gen_drv.c **** }
  59:../libdaisy/Middlewares/Third_Party/FatFs/src/ff_gen_drv.c **** 
  60:../libdaisy/Middlewares/Third_Party/FatFs/src/ff_gen_drv.c **** /**
  61:../libdaisy/Middlewares/Third_Party/FatFs/src/ff_gen_drv.c ****   * @brief  Links a compatible diskio driver and increments the number of active
  62:../libdaisy/Middlewares/Third_Party/FatFs/src/ff_gen_drv.c ****   *         linked drivers.
  63:../libdaisy/Middlewares/Third_Party/FatFs/src/ff_gen_drv.c ****   * @note   The number of linked drivers (volumes) is up to 10 due to FatFs limits
  64:../libdaisy/Middlewares/Third_Party/FatFs/src/ff_gen_drv.c ****   * @param  drv: pointer to the disk IO Driver structure
  65:../libdaisy/Middlewares/Third_Party/FatFs/src/ff_gen_drv.c ****   * @param  path: pointer to the logical drive path
  66:../libdaisy/Middlewares/Third_Party/FatFs/src/ff_gen_drv.c ****   * @retval Returns 0 in case of success, otherwise 1.
  67:../libdaisy/Middlewares/Third_Party/FatFs/src/ff_gen_drv.c ****   */
  68:../libdaisy/Middlewares/Third_Party/FatFs/src/ff_gen_drv.c **** uint8_t FATFS_LinkDriver(const Diskio_drvTypeDef *drv, char *path)
  69:../libdaisy/Middlewares/Third_Party/FatFs/src/ff_gen_drv.c **** {
  70:../libdaisy/Middlewares/Third_Party/FatFs/src/ff_gen_drv.c ****   return FATFS_LinkDriverEx(drv, path, 0);
  71:../libdaisy/Middlewares/Third_Party/FatFs/src/ff_gen_drv.c **** }
  72:../libdaisy/Middlewares/Third_Party/FatFs/src/ff_gen_drv.c **** 
  73:../libdaisy/Middlewares/Third_Party/FatFs/src/ff_gen_drv.c **** /**
  74:../libdaisy/Middlewares/Third_Party/FatFs/src/ff_gen_drv.c ****   * @brief  Unlinks a diskio driver and decrements the number of active linked
  75:../libdaisy/Middlewares/Third_Party/FatFs/src/ff_gen_drv.c ****   *         drivers.
  76:../libdaisy/Middlewares/Third_Party/FatFs/src/ff_gen_drv.c ****   * @param  path: pointer to the logical drive path
  77:../libdaisy/Middlewares/Third_Party/FatFs/src/ff_gen_drv.c ****   * @param  lun : not used
  78:../libdaisy/Middlewares/Third_Party/FatFs/src/ff_gen_drv.c ****   * @retval Returns 0 in case of success, otherwise 1.
  79:../libdaisy/Middlewares/Third_Party/FatFs/src/ff_gen_drv.c ****   */
  80:../libdaisy/Middlewares/Third_Party/FatFs/src/ff_gen_drv.c **** uint8_t FATFS_UnLinkDriverEx(char *path, uint8_t lun)
  29              		.loc 1 80 9 view -0
  30              		.cfi_startproc
  31              		@ args = 0, pretend = 0, frame = 0
  32              		@ frame_needed = 0, uses_anonymous_args = 0
  33              		@ link register save eliminated.
  81:../libdaisy/Middlewares/Third_Party/FatFs/src/ff_gen_drv.c **** {
  82:../libdaisy/Middlewares/Third_Party/FatFs/src/ff_gen_drv.c ****   uint8_t DiskNum = 0;
ARM GAS  /var/folders/0d/2ntwfkp1791d52chq7d_xwdm0000gn/T//cc8VwKNs.s 			page 3


  83:../libdaisy/Middlewares/Third_Party/FatFs/src/ff_gen_drv.c ****   uint8_t ret = 1;
  84:../libdaisy/Middlewares/Third_Party/FatFs/src/ff_gen_drv.c **** 
  85:../libdaisy/Middlewares/Third_Party/FatFs/src/ff_gen_drv.c ****   if(disk.nbr >= 1)
  86:../libdaisy/Middlewares/Third_Party/FatFs/src/ff_gen_drv.c ****   {
  87:../libdaisy/Middlewares/Third_Party/FatFs/src/ff_gen_drv.c ****     DiskNum = path[0] - '0';
  34              		.loc 1 87 5 view .LVU1
  88:../libdaisy/Middlewares/Third_Party/FatFs/src/ff_gen_drv.c ****     if(disk.drv[DiskNum] != 0)
  35              		.loc 1 88 5 view .LVU2
  80:../libdaisy/Middlewares/Third_Party/FatFs/src/ff_gen_drv.c **** {
  36              		.loc 1 80 9 is_stmt 0 view .LVU3
  37 0000 30B4     		push	{r4, r5}
  38              		.cfi_def_cfa_offset 8
  39              		.cfi_offset 4, -8
  40              		.cfi_offset 5, -4
  87:../libdaisy/Middlewares/Third_Party/FatFs/src/ff_gen_drv.c ****     if(disk.drv[DiskNum] != 0)
  41              		.loc 1 87 13 view .LVU4
  42 0002 0378     		ldrb	r3, [r0]	@ zero_extendqisi2
  43              		.loc 1 88 16 view .LVU5
  44 0004 0A49     		ldr	r1, .L6
  87:../libdaisy/Middlewares/Third_Party/FatFs/src/ff_gen_drv.c ****     if(disk.drv[DiskNum] != 0)
  45              		.loc 1 87 13 view .LVU6
  46 0006 303B     		subs	r3, r3, #48
  47              		.loc 1 88 16 view .LVU7
  48 0008 DBB2     		uxtb	r3, r3
  49 000a 01EB8305 		add	r5, r1, r3, lsl #2
  50              		.loc 1 88 7 view .LVU8
  51 000e 6A68     		ldr	r2, [r5, #4]
  52 0010 52B1     		cbz	r2, .L3
  89:../libdaisy/Middlewares/Third_Party/FatFs/src/ff_gen_drv.c ****     {
  90:../libdaisy/Middlewares/Third_Party/FatFs/src/ff_gen_drv.c ****       disk.drv[DiskNum] = 0;
  53              		.loc 1 90 7 is_stmt 1 view .LVU9
  91:../libdaisy/Middlewares/Third_Party/FatFs/src/ff_gen_drv.c ****       disk.lun[DiskNum] = 0;
  92:../libdaisy/Middlewares/Third_Party/FatFs/src/ff_gen_drv.c ****       disk.nbr--;
  54              		.loc 1 92 11 is_stmt 0 view .LVU10
  55 0012 4A7A     		ldrb	r2, [r1, #9]	@ zero_extendqisi2
  90:../libdaisy/Middlewares/Third_Party/FatFs/src/ff_gen_drv.c ****       disk.lun[DiskNum] = 0;
  56              		.loc 1 90 25 view .LVU11
  57 0014 0024     		movs	r4, #0
  91:../libdaisy/Middlewares/Third_Party/FatFs/src/ff_gen_drv.c ****       disk.lun[DiskNum] = 0;
  58              		.loc 1 91 25 view .LVU12
  59 0016 0B44     		add	r3, r3, r1
  60              		.loc 1 92 15 view .LVU13
  61 0018 013A     		subs	r2, r2, #1
  93:../libdaisy/Middlewares/Third_Party/FatFs/src/ff_gen_drv.c ****       ret = 0;
  62              		.loc 1 93 11 view .LVU14
  63 001a 2046     		mov	r0, r4
  64              	.LVL1:
  91:../libdaisy/Middlewares/Third_Party/FatFs/src/ff_gen_drv.c ****       disk.lun[DiskNum] = 0;
  65              		.loc 1 91 25 view .LVU15
  66 001c 1C72     		strb	r4, [r3, #8]
  67              	.LVL2:
  92:../libdaisy/Middlewares/Third_Party/FatFs/src/ff_gen_drv.c ****       ret = 0;
  68              		.loc 1 92 15 view .LVU16
  69 001e D3B2     		uxtb	r3, r2
  90:../libdaisy/Middlewares/Third_Party/FatFs/src/ff_gen_drv.c ****       disk.lun[DiskNum] = 0;
  70              		.loc 1 90 25 view .LVU17
  71 0020 6C60     		str	r4, [r5, #4]
ARM GAS  /var/folders/0d/2ntwfkp1791d52chq7d_xwdm0000gn/T//cc8VwKNs.s 			page 4


  91:../libdaisy/Middlewares/Third_Party/FatFs/src/ff_gen_drv.c ****       disk.nbr--;
  72              		.loc 1 91 7 is_stmt 1 view .LVU18
  92:../libdaisy/Middlewares/Third_Party/FatFs/src/ff_gen_drv.c ****       ret = 0;
  73              		.loc 1 92 7 view .LVU19
  92:../libdaisy/Middlewares/Third_Party/FatFs/src/ff_gen_drv.c ****       ret = 0;
  74              		.loc 1 92 15 is_stmt 0 view .LVU20
  75 0022 4B72     		strb	r3, [r1, #9]
  76              		.loc 1 93 7 is_stmt 1 view .LVU21
  77              	.LVL3:
  94:../libdaisy/Middlewares/Third_Party/FatFs/src/ff_gen_drv.c ****     }
  95:../libdaisy/Middlewares/Third_Party/FatFs/src/ff_gen_drv.c ****   }
  96:../libdaisy/Middlewares/Third_Party/FatFs/src/ff_gen_drv.c **** 
  97:../libdaisy/Middlewares/Third_Party/FatFs/src/ff_gen_drv.c ****   return ret;
  78              		.loc 1 97 3 view .LVU22
  98:../libdaisy/Middlewares/Third_Party/FatFs/src/ff_gen_drv.c **** }
  79              		.loc 1 98 1 is_stmt 0 view .LVU23
  80 0024 30BC     		pop	{r4, r5}
  81              		.cfi_remember_state
  82              		.cfi_restore 5
  83              		.cfi_restore 4
  84              		.cfi_def_cfa_offset 0
  85 0026 7047     		bx	lr
  86              	.LVL4:
  87              	.L3:
  88              		.cfi_restore_state
  83:../libdaisy/Middlewares/Third_Party/FatFs/src/ff_gen_drv.c **** 
  89              		.loc 1 83 11 view .LVU24
  90 0028 0120     		movs	r0, #1
  91              	.LVL5:
  97:../libdaisy/Middlewares/Third_Party/FatFs/src/ff_gen_drv.c **** }
  92              		.loc 1 97 3 is_stmt 1 view .LVU25
  93              		.loc 1 98 1 is_stmt 0 view .LVU26
  94 002a 30BC     		pop	{r4, r5}
  95              		.cfi_restore 5
  96              		.cfi_restore 4
  97              		.cfi_def_cfa_offset 0
  98 002c 7047     		bx	lr
  99              	.L7:
 100 002e 00BF     		.align	2
 101              	.L6:
 102 0030 00000000 		.word	.LANCHOR0
 103              		.cfi_endproc
 104              	.LFE326:
 106              		.section	.text.FATFS_LinkDriverEx,"ax",%progbits
 107              		.align	1
 108              		.p2align 2,,3
 109              		.global	FATFS_LinkDriverEx
 110              		.syntax unified
 111              		.thumb
 112              		.thumb_func
 113              		.fpu fpv5-d16
 115              	FATFS_LinkDriverEx:
 116              	.LVL6:
 117              	.LFB320:
  40:../libdaisy/Middlewares/Third_Party/FatFs/src/ff_gen_drv.c ****   uint8_t ret = 1;
 118              		.loc 1 40 1 is_stmt 1 view -0
 119              		.cfi_startproc
ARM GAS  /var/folders/0d/2ntwfkp1791d52chq7d_xwdm0000gn/T//cc8VwKNs.s 			page 5


 120              		@ args = 0, pretend = 0, frame = 0
 121              		@ frame_needed = 0, uses_anonymous_args = 0
  41:../libdaisy/Middlewares/Third_Party/FatFs/src/ff_gen_drv.c ****   uint8_t DiskNum = 0;
 122              		.loc 1 41 3 view .LVU28
  42:../libdaisy/Middlewares/Third_Party/FatFs/src/ff_gen_drv.c **** 
 123              		.loc 1 42 3 view .LVU29
  44:../libdaisy/Middlewares/Third_Party/FatFs/src/ff_gen_drv.c ****   {
 124              		.loc 1 44 3 view .LVU30
  44:../libdaisy/Middlewares/Third_Party/FatFs/src/ff_gen_drv.c ****   {
 125              		.loc 1 44 10 is_stmt 0 view .LVU31
 126 0000 134B     		ldr	r3, .L12
  40:../libdaisy/Middlewares/Third_Party/FatFs/src/ff_gen_drv.c ****   uint8_t ret = 1;
 127              		.loc 1 40 1 view .LVU32
 128 0002 2DE9F041 		push	{r4, r5, r6, r7, r8, lr}
 129              		.cfi_def_cfa_offset 24
 130              		.cfi_offset 4, -24
 131              		.cfi_offset 5, -20
 132              		.cfi_offset 6, -16
 133              		.cfi_offset 7, -12
 134              		.cfi_offset 8, -8
 135              		.cfi_offset 14, -4
  44:../libdaisy/Middlewares/Third_Party/FatFs/src/ff_gen_drv.c ****   {
 136              		.loc 1 44 10 view .LVU33
 137 0006 5D7A     		ldrb	r5, [r3, #9]	@ zero_extendqisi2
  44:../libdaisy/Middlewares/Third_Party/FatFs/src/ff_gen_drv.c ****   {
 138              		.loc 1 44 5 view .LVU34
 139 0008 F5B9     		cbnz	r5, .L10
 140              	.LBB8:
 141              	.LBB9:
  46:../libdaisy/Middlewares/Third_Party/FatFs/src/ff_gen_drv.c ****     disk.drv[disk.nbr] = drv;
 142              		.loc 1 46 29 view .LVU35
 143 000a 93F80980 		ldrb	r8, [r3, #9]	@ zero_extendqisi2
 144 000e 0446     		mov	r4, r0
 145              	.LVL7:
  46:../libdaisy/Middlewares/Third_Party/FatFs/src/ff_gen_drv.c ****     disk.drv[disk.nbr] = drv;
 146              		.loc 1 46 29 view .LVU36
 147              	.LBE9:
 148              	.LBI8:
  39:../libdaisy/Middlewares/Third_Party/FatFs/src/ff_gen_drv.c **** {
 149              		.loc 1 39 9 is_stmt 1 view .LVU37
 150              	.LBB10:
  46:../libdaisy/Middlewares/Third_Party/FatFs/src/ff_gen_drv.c ****     disk.drv[disk.nbr] = drv;
 151              		.loc 1 46 5 view .LVU38
  47:../libdaisy/Middlewares/Third_Party/FatFs/src/ff_gen_drv.c ****     disk.lun[disk.nbr] = lun;
 152              		.loc 1 47 18 is_stmt 0 view .LVU39
 153 0010 5F7A     		ldrb	r7, [r3, #9]	@ zero_extendqisi2
 154 0012 05F0FF00 		and	r0, r5, #255
 155              	.LVL8:
  48:../libdaisy/Middlewares/Third_Party/FatFs/src/ff_gen_drv.c ****     DiskNum = disk.nbr++;
 156              		.loc 1 48 18 view .LVU40
 157 0016 5E7A     		ldrb	r6, [r3, #9]	@ zero_extendqisi2
  51:../libdaisy/Middlewares/Third_Party/FatFs/src/ff_gen_drv.c ****     path[2] = '/';
 158              		.loc 1 51 13 view .LVU41
 159 0018 4FF03A0E 		mov	lr, #58
  49:../libdaisy/Middlewares/Third_Party/FatFs/src/ff_gen_drv.c ****     path[0] = DiskNum + '0';
 160              		.loc 1 49 19 view .LVU42
 161 001c 5D7A     		ldrb	r5, [r3, #9]	@ zero_extendqisi2
ARM GAS  /var/folders/0d/2ntwfkp1791d52chq7d_xwdm0000gn/T//cc8VwKNs.s 			page 6


  47:../libdaisy/Middlewares/Third_Party/FatFs/src/ff_gen_drv.c ****     disk.lun[disk.nbr] = lun;
 162              		.loc 1 47 24 view .LVU43
 163 001e 03EB8707 		add	r7, r3, r7, lsl #2
  48:../libdaisy/Middlewares/Third_Party/FatFs/src/ff_gen_drv.c ****     DiskNum = disk.nbr++;
 164              		.loc 1 48 24 view .LVU44
 165 0022 1E44     		add	r6, r6, r3
  52:../libdaisy/Middlewares/Third_Party/FatFs/src/ff_gen_drv.c ****     path[3] = 0;
 166              		.loc 1 52 13 view .LVU45
 167 0024 4FF02F0C 		mov	ip, #47
  47:../libdaisy/Middlewares/Third_Party/FatFs/src/ff_gen_drv.c ****     disk.lun[disk.nbr] = lun;
 168              		.loc 1 47 24 view .LVU46
 169 0028 7C60     		str	r4, [r7, #4]
  49:../libdaisy/Middlewares/Third_Party/FatFs/src/ff_gen_drv.c ****     path[0] = DiskNum + '0';
 170              		.loc 1 49 23 view .LVU47
 171 002a 6C1C     		adds	r4, r5, #1
 172              	.LVL9:
  48:../libdaisy/Middlewares/Third_Party/FatFs/src/ff_gen_drv.c ****     DiskNum = disk.nbr++;
 173              		.loc 1 48 24 view .LVU48
 174 002c 3272     		strb	r2, [r6, #8]
  50:../libdaisy/Middlewares/Third_Party/FatFs/src/ff_gen_drv.c ****     path[1] = ':';
 175              		.loc 1 50 23 view .LVU49
 176 002e 3035     		adds	r5, r5, #48
  49:../libdaisy/Middlewares/Third_Party/FatFs/src/ff_gen_drv.c ****     path[0] = DiskNum + '0';
 177              		.loc 1 49 23 view .LVU50
 178 0030 E2B2     		uxtb	r2, r4
 179              	.LVL10:
  46:../libdaisy/Middlewares/Third_Party/FatFs/src/ff_gen_drv.c ****     disk.drv[disk.nbr] = drv;
 180              		.loc 1 46 35 view .LVU51
 181 0032 03F80800 		strb	r0, [r3, r8]
  47:../libdaisy/Middlewares/Third_Party/FatFs/src/ff_gen_drv.c ****     disk.lun[disk.nbr] = lun;
 182              		.loc 1 47 5 is_stmt 1 view .LVU52
  48:../libdaisy/Middlewares/Third_Party/FatFs/src/ff_gen_drv.c ****     DiskNum = disk.nbr++;
 183              		.loc 1 48 5 view .LVU53
  49:../libdaisy/Middlewares/Third_Party/FatFs/src/ff_gen_drv.c ****     path[0] = DiskNum + '0';
 184              		.loc 1 49 5 view .LVU54
  49:../libdaisy/Middlewares/Third_Party/FatFs/src/ff_gen_drv.c ****     path[0] = DiskNum + '0';
 185              		.loc 1 49 23 is_stmt 0 view .LVU55
 186 0036 5A72     		strb	r2, [r3, #9]
 187              	.LVL11:
  50:../libdaisy/Middlewares/Third_Party/FatFs/src/ff_gen_drv.c ****     path[1] = ':';
 188              		.loc 1 50 5 is_stmt 1 view .LVU56
  50:../libdaisy/Middlewares/Third_Party/FatFs/src/ff_gen_drv.c ****     path[1] = ':';
 189              		.loc 1 50 13 is_stmt 0 view .LVU57
 190 0038 0D70     		strb	r5, [r1]
 191              	.LVL12:
  51:../libdaisy/Middlewares/Third_Party/FatFs/src/ff_gen_drv.c ****     path[2] = '/';
 192              		.loc 1 51 5 is_stmt 1 view .LVU58
  53:../libdaisy/Middlewares/Third_Party/FatFs/src/ff_gen_drv.c ****     ret = 0;
 193              		.loc 1 53 13 is_stmt 0 view .LVU59
 194 003a C870     		strb	r0, [r1, #3]
  51:../libdaisy/Middlewares/Third_Party/FatFs/src/ff_gen_drv.c ****     path[2] = '/';
 195              		.loc 1 51 13 view .LVU60
 196 003c 81F801E0 		strb	lr, [r1, #1]
  52:../libdaisy/Middlewares/Third_Party/FatFs/src/ff_gen_drv.c ****     path[3] = 0;
 197              		.loc 1 52 5 is_stmt 1 view .LVU61
  52:../libdaisy/Middlewares/Third_Party/FatFs/src/ff_gen_drv.c ****     path[3] = 0;
 198              		.loc 1 52 13 is_stmt 0 view .LVU62
ARM GAS  /var/folders/0d/2ntwfkp1791d52chq7d_xwdm0000gn/T//cc8VwKNs.s 			page 7


 199 0040 81F802C0 		strb	ip, [r1, #2]
  53:../libdaisy/Middlewares/Third_Party/FatFs/src/ff_gen_drv.c ****     ret = 0;
 200              		.loc 1 53 5 is_stmt 1 view .LVU63
  54:../libdaisy/Middlewares/Third_Party/FatFs/src/ff_gen_drv.c ****   }
 201              		.loc 1 54 5 view .LVU64
 202              	.LVL13:
  57:../libdaisy/Middlewares/Third_Party/FatFs/src/ff_gen_drv.c **** }
 203              		.loc 1 57 3 view .LVU65
  57:../libdaisy/Middlewares/Third_Party/FatFs/src/ff_gen_drv.c **** }
 204              		.loc 1 57 3 is_stmt 0 view .LVU66
 205              	.LBE10:
 206              	.LBE8:
  57:../libdaisy/Middlewares/Third_Party/FatFs/src/ff_gen_drv.c **** }
 207              		.loc 1 57 3 is_stmt 1 view .LVU67
  58:../libdaisy/Middlewares/Third_Party/FatFs/src/ff_gen_drv.c **** 
 208              		.loc 1 58 1 is_stmt 0 view .LVU68
 209 0044 BDE8F081 		pop	{r4, r5, r6, r7, r8, pc}
 210              	.LVL14:
 211              	.L10:
  41:../libdaisy/Middlewares/Third_Party/FatFs/src/ff_gen_drv.c ****   uint8_t DiskNum = 0;
 212              		.loc 1 41 11 view .LVU69
 213 0048 0120     		movs	r0, #1
 214              	.LVL15:
  57:../libdaisy/Middlewares/Third_Party/FatFs/src/ff_gen_drv.c **** }
 215              		.loc 1 57 3 is_stmt 1 view .LVU70
  58:../libdaisy/Middlewares/Third_Party/FatFs/src/ff_gen_drv.c **** 
 216              		.loc 1 58 1 is_stmt 0 view .LVU71
 217 004a BDE8F081 		pop	{r4, r5, r6, r7, r8, pc}
 218              	.L13:
 219 004e 00BF     		.align	2
 220              	.L12:
 221 0050 00000000 		.word	.LANCHOR0
 222              		.cfi_endproc
 223              	.LFE320:
 225              		.section	.text.FATFS_LinkDriver,"ax",%progbits
 226              		.align	1
 227              		.p2align 2,,3
 228              		.global	FATFS_LinkDriver
 229              		.syntax unified
 230              		.thumb
 231              		.thumb_func
 232              		.fpu fpv5-d16
 234              	FATFS_LinkDriver:
 235              	.LVL16:
 236              	.LFB321:
  69:../libdaisy/Middlewares/Third_Party/FatFs/src/ff_gen_drv.c ****   return FATFS_LinkDriverEx(drv, path, 0);
 237              		.loc 1 69 1 is_stmt 1 view -0
 238              		.cfi_startproc
 239              		@ args = 0, pretend = 0, frame = 0
 240              		@ frame_needed = 0, uses_anonymous_args = 0
  70:../libdaisy/Middlewares/Third_Party/FatFs/src/ff_gen_drv.c **** }
 241              		.loc 1 70 3 view .LVU73
 242              	.LBB15:
 243              	.LBB16:
  44:../libdaisy/Middlewares/Third_Party/FatFs/src/ff_gen_drv.c ****   {
 244              		.loc 1 44 10 is_stmt 0 view .LVU74
 245 0000 104B     		ldr	r3, .L18
ARM GAS  /var/folders/0d/2ntwfkp1791d52chq7d_xwdm0000gn/T//cc8VwKNs.s 			page 8


 246              	.LBE16:
 247              	.LBE15:
  69:../libdaisy/Middlewares/Third_Party/FatFs/src/ff_gen_drv.c ****   return FATFS_LinkDriverEx(drv, path, 0);
 248              		.loc 1 69 1 view .LVU75
 249 0002 F0B5     		push	{r4, r5, r6, r7, lr}
 250              		.cfi_def_cfa_offset 20
 251              		.cfi_offset 4, -20
 252              		.cfi_offset 5, -16
 253              		.cfi_offset 6, -12
 254              		.cfi_offset 7, -8
 255              		.cfi_offset 14, -4
 256              	.LBB23:
 257              	.LBB20:
  44:../libdaisy/Middlewares/Third_Party/FatFs/src/ff_gen_drv.c ****   {
 258              		.loc 1 44 10 view .LVU76
 259 0004 5C7A     		ldrb	r4, [r3, #9]	@ zero_extendqisi2
 260              	.LVL17:
  44:../libdaisy/Middlewares/Third_Party/FatFs/src/ff_gen_drv.c ****   {
 261              		.loc 1 44 10 view .LVU77
 262              	.LBE20:
 263              	.LBI15:
  39:../libdaisy/Middlewares/Third_Party/FatFs/src/ff_gen_drv.c **** {
 264              		.loc 1 39 9 is_stmt 1 view .LVU78
 265              	.LBB21:
  41:../libdaisy/Middlewares/Third_Party/FatFs/src/ff_gen_drv.c ****   uint8_t DiskNum = 0;
 266              		.loc 1 41 3 view .LVU79
  42:../libdaisy/Middlewares/Third_Party/FatFs/src/ff_gen_drv.c **** 
 267              		.loc 1 42 3 view .LVU80
  44:../libdaisy/Middlewares/Third_Party/FatFs/src/ff_gen_drv.c ****   {
 268              		.loc 1 44 3 view .LVU81
  44:../libdaisy/Middlewares/Third_Party/FatFs/src/ff_gen_drv.c ****   {
 269              		.loc 1 44 5 is_stmt 0 view .LVU82
 270 0006 DCB9     		cbnz	r4, .L16
 271              	.LBB17:
 272              	.LBB18:
  46:../libdaisy/Middlewares/Third_Party/FatFs/src/ff_gen_drv.c ****     disk.drv[disk.nbr] = drv;
 273              		.loc 1 46 29 view .LVU83
 274 0008 93F809E0 		ldrb	lr, [r3, #9]	@ zero_extendqisi2
 275 000c 0246     		mov	r2, r0
 276              	.LVL18:
  46:../libdaisy/Middlewares/Third_Party/FatFs/src/ff_gen_drv.c ****     disk.drv[disk.nbr] = drv;
 277              		.loc 1 46 29 view .LVU84
 278              	.LBE18:
 279              	.LBI17:
  39:../libdaisy/Middlewares/Third_Party/FatFs/src/ff_gen_drv.c **** {
 280              		.loc 1 39 9 is_stmt 1 view .LVU85
 281              	.LBB19:
  46:../libdaisy/Middlewares/Third_Party/FatFs/src/ff_gen_drv.c ****     disk.drv[disk.nbr] = drv;
 282              		.loc 1 46 5 view .LVU86
  47:../libdaisy/Middlewares/Third_Party/FatFs/src/ff_gen_drv.c ****     disk.lun[disk.nbr] = lun;
 283              		.loc 1 47 18 is_stmt 0 view .LVU87
 284 000e 5E7A     		ldrb	r6, [r3, #9]	@ zero_extendqisi2
 285 0010 04F0FF00 		and	r0, r4, #255
 286              	.LVL19:
  48:../libdaisy/Middlewares/Third_Party/FatFs/src/ff_gen_drv.c ****     DiskNum = disk.nbr++;
 287              		.loc 1 48 18 view .LVU88
 288 0014 5D7A     		ldrb	r5, [r3, #9]	@ zero_extendqisi2
ARM GAS  /var/folders/0d/2ntwfkp1791d52chq7d_xwdm0000gn/T//cc8VwKNs.s 			page 9


  51:../libdaisy/Middlewares/Third_Party/FatFs/src/ff_gen_drv.c ****     path[2] = '/';
 289              		.loc 1 51 13 view .LVU89
 290 0016 4FF03A0C 		mov	ip, #58
  49:../libdaisy/Middlewares/Third_Party/FatFs/src/ff_gen_drv.c ****     path[0] = DiskNum + '0';
 291              		.loc 1 49 19 view .LVU90
 292 001a 5C7A     		ldrb	r4, [r3, #9]	@ zero_extendqisi2
  47:../libdaisy/Middlewares/Third_Party/FatFs/src/ff_gen_drv.c ****     disk.lun[disk.nbr] = lun;
 293              		.loc 1 47 24 view .LVU91
 294 001c 03EB8606 		add	r6, r3, r6, lsl #2
  52:../libdaisy/Middlewares/Third_Party/FatFs/src/ff_gen_drv.c ****     path[3] = 0;
 295              		.loc 1 52 13 view .LVU92
 296 0020 2F27     		movs	r7, #47
  48:../libdaisy/Middlewares/Third_Party/FatFs/src/ff_gen_drv.c ****     DiskNum = disk.nbr++;
 297              		.loc 1 48 24 view .LVU93
 298 0022 1D44     		add	r5, r5, r3
  47:../libdaisy/Middlewares/Third_Party/FatFs/src/ff_gen_drv.c ****     disk.lun[disk.nbr] = lun;
 299              		.loc 1 47 24 view .LVU94
 300 0024 7260     		str	r2, [r6, #4]
  49:../libdaisy/Middlewares/Third_Party/FatFs/src/ff_gen_drv.c ****     path[0] = DiskNum + '0';
 301              		.loc 1 49 23 view .LVU95
 302 0026 621C     		adds	r2, r4, #1
 303              	.LVL20:
  50:../libdaisy/Middlewares/Third_Party/FatFs/src/ff_gen_drv.c ****     path[1] = ':';
 304              		.loc 1 50 23 view .LVU96
 305 0028 3034     		adds	r4, r4, #48
  48:../libdaisy/Middlewares/Third_Party/FatFs/src/ff_gen_drv.c ****     DiskNum = disk.nbr++;
 306              		.loc 1 48 24 view .LVU97
 307 002a 2872     		strb	r0, [r5, #8]
  49:../libdaisy/Middlewares/Third_Party/FatFs/src/ff_gen_drv.c ****     path[0] = DiskNum + '0';
 308              		.loc 1 49 23 view .LVU98
 309 002c D2B2     		uxtb	r2, r2
  46:../libdaisy/Middlewares/Third_Party/FatFs/src/ff_gen_drv.c ****     disk.drv[disk.nbr] = drv;
 310              		.loc 1 46 35 view .LVU99
 311 002e 03F80E00 		strb	r0, [r3, lr]
  47:../libdaisy/Middlewares/Third_Party/FatFs/src/ff_gen_drv.c ****     disk.lun[disk.nbr] = lun;
 312              		.loc 1 47 5 is_stmt 1 view .LVU100
  48:../libdaisy/Middlewares/Third_Party/FatFs/src/ff_gen_drv.c ****     DiskNum = disk.nbr++;
 313              		.loc 1 48 5 view .LVU101
  49:../libdaisy/Middlewares/Third_Party/FatFs/src/ff_gen_drv.c ****     path[0] = DiskNum + '0';
 314              		.loc 1 49 5 view .LVU102
  49:../libdaisy/Middlewares/Third_Party/FatFs/src/ff_gen_drv.c ****     path[0] = DiskNum + '0';
 315              		.loc 1 49 23 is_stmt 0 view .LVU103
 316 0032 5A72     		strb	r2, [r3, #9]
 317              	.LVL21:
  50:../libdaisy/Middlewares/Third_Party/FatFs/src/ff_gen_drv.c ****     path[1] = ':';
 318              		.loc 1 50 5 is_stmt 1 view .LVU104
  50:../libdaisy/Middlewares/Third_Party/FatFs/src/ff_gen_drv.c ****     path[1] = ':';
 319              		.loc 1 50 13 is_stmt 0 view .LVU105
 320 0034 0C70     		strb	r4, [r1]
 321              	.LVL22:
  51:../libdaisy/Middlewares/Third_Party/FatFs/src/ff_gen_drv.c ****     path[2] = '/';
 322              		.loc 1 51 5 is_stmt 1 view .LVU106
  53:../libdaisy/Middlewares/Third_Party/FatFs/src/ff_gen_drv.c ****     ret = 0;
 323              		.loc 1 53 13 is_stmt 0 view .LVU107
 324 0036 C870     		strb	r0, [r1, #3]
  51:../libdaisy/Middlewares/Third_Party/FatFs/src/ff_gen_drv.c ****     path[2] = '/';
 325              		.loc 1 51 13 view .LVU108
ARM GAS  /var/folders/0d/2ntwfkp1791d52chq7d_xwdm0000gn/T//cc8VwKNs.s 			page 10


 326 0038 81F801C0 		strb	ip, [r1, #1]
  52:../libdaisy/Middlewares/Third_Party/FatFs/src/ff_gen_drv.c ****     path[3] = 0;
 327              		.loc 1 52 5 is_stmt 1 view .LVU109
  52:../libdaisy/Middlewares/Third_Party/FatFs/src/ff_gen_drv.c ****     path[3] = 0;
 328              		.loc 1 52 13 is_stmt 0 view .LVU110
 329 003c 8F70     		strb	r7, [r1, #2]
  53:../libdaisy/Middlewares/Third_Party/FatFs/src/ff_gen_drv.c ****     ret = 0;
 330              		.loc 1 53 5 is_stmt 1 view .LVU111
  54:../libdaisy/Middlewares/Third_Party/FatFs/src/ff_gen_drv.c ****   }
 331              		.loc 1 54 5 view .LVU112
 332              	.LVL23:
  57:../libdaisy/Middlewares/Third_Party/FatFs/src/ff_gen_drv.c **** }
 333              		.loc 1 57 3 view .LVU113
  57:../libdaisy/Middlewares/Third_Party/FatFs/src/ff_gen_drv.c **** }
 334              		.loc 1 57 3 is_stmt 0 view .LVU114
 335              	.LBE19:
 336              	.LBE17:
  57:../libdaisy/Middlewares/Third_Party/FatFs/src/ff_gen_drv.c **** }
 337              		.loc 1 57 3 is_stmt 1 view .LVU115
  57:../libdaisy/Middlewares/Third_Party/FatFs/src/ff_gen_drv.c **** }
 338              		.loc 1 57 3 is_stmt 0 view .LVU116
 339              	.LBE21:
 340              	.LBE23:
  71:../libdaisy/Middlewares/Third_Party/FatFs/src/ff_gen_drv.c **** 
 341              		.loc 1 71 1 view .LVU117
 342 003e F0BD     		pop	{r4, r5, r6, r7, pc}
 343              	.LVL24:
 344              	.L16:
 345              	.LBB24:
 346              	.LBB22:
  41:../libdaisy/Middlewares/Third_Party/FatFs/src/ff_gen_drv.c ****   uint8_t DiskNum = 0;
 347              		.loc 1 41 11 view .LVU118
 348 0040 0120     		movs	r0, #1
 349              	.LVL25:
  57:../libdaisy/Middlewares/Third_Party/FatFs/src/ff_gen_drv.c **** }
 350              		.loc 1 57 3 is_stmt 1 view .LVU119
  57:../libdaisy/Middlewares/Third_Party/FatFs/src/ff_gen_drv.c **** }
 351              		.loc 1 57 3 is_stmt 0 view .LVU120
 352              	.LBE22:
 353              	.LBE24:
  71:../libdaisy/Middlewares/Third_Party/FatFs/src/ff_gen_drv.c **** 
 354              		.loc 1 71 1 view .LVU121
 355 0042 F0BD     		pop	{r4, r5, r6, r7, pc}
 356              	.L19:
 357              		.align	2
 358              	.L18:
 359 0044 00000000 		.word	.LANCHOR0
 360              		.cfi_endproc
 361              	.LFE321:
 363              		.section	.text.FATFS_UnLinkDriverEx,"ax",%progbits
 364              		.align	1
 365              		.p2align 2,,3
 366              		.global	FATFS_UnLinkDriverEx
 367              		.syntax unified
 368              		.thumb
 369              		.thumb_func
 370              		.fpu fpv5-d16
ARM GAS  /var/folders/0d/2ntwfkp1791d52chq7d_xwdm0000gn/T//cc8VwKNs.s 			page 11


 372              	FATFS_UnLinkDriverEx:
 373              	.LVL26:
 374              	.LFB322:
  81:../libdaisy/Middlewares/Third_Party/FatFs/src/ff_gen_drv.c ****   uint8_t DiskNum = 0;
 375              		.loc 1 81 1 is_stmt 1 view -0
 376              		.cfi_startproc
 377              		@ args = 0, pretend = 0, frame = 0
 378              		@ frame_needed = 0, uses_anonymous_args = 0
 379              		@ link register save eliminated.
  82:../libdaisy/Middlewares/Third_Party/FatFs/src/ff_gen_drv.c ****   uint8_t ret = 1;
 380              		.loc 1 82 3 view .LVU123
  83:../libdaisy/Middlewares/Third_Party/FatFs/src/ff_gen_drv.c **** 
 381              		.loc 1 83 3 view .LVU124
  85:../libdaisy/Middlewares/Third_Party/FatFs/src/ff_gen_drv.c ****   {
 382              		.loc 1 85 3 view .LVU125
  85:../libdaisy/Middlewares/Third_Party/FatFs/src/ff_gen_drv.c ****   {
 383              		.loc 1 85 10 is_stmt 0 view .LVU126
 384 0000 034B     		ldr	r3, .L22
 385 0002 5B7A     		ldrb	r3, [r3, #9]	@ zero_extendqisi2
  85:../libdaisy/Middlewares/Third_Party/FatFs/src/ff_gen_drv.c ****   {
 386              		.loc 1 85 5 view .LVU127
 387 0004 0BB1     		cbz	r3, .L21
 388 0006 FFF7FEBF 		b	FATFS_UnLinkDriverEx.part.0
 389              	.LVL27:
 390              	.L21:
  97:../libdaisy/Middlewares/Third_Party/FatFs/src/ff_gen_drv.c **** }
 391              		.loc 1 97 3 is_stmt 1 view .LVU128
 392              		.loc 1 98 1 is_stmt 0 view .LVU129
 393 000a 0120     		movs	r0, #1
 394              	.LVL28:
 395              		.loc 1 98 1 view .LVU130
 396 000c 7047     		bx	lr
 397              	.L23:
 398 000e 00BF     		.align	2
 399              	.L22:
 400 0010 00000000 		.word	.LANCHOR0
 401              		.cfi_endproc
 402              	.LFE322:
 404              		.section	.text.FATFS_UnLinkDriver,"ax",%progbits
 405              		.align	1
 406              		.p2align 2,,3
 407              		.global	FATFS_UnLinkDriver
 408              		.syntax unified
 409              		.thumb
 410              		.thumb_func
 411              		.fpu fpv5-d16
 413              	FATFS_UnLinkDriver:
 414              	.LVL29:
 415              	.LFB323:
  99:../libdaisy/Middlewares/Third_Party/FatFs/src/ff_gen_drv.c **** 
 100:../libdaisy/Middlewares/Third_Party/FatFs/src/ff_gen_drv.c **** /**
 101:../libdaisy/Middlewares/Third_Party/FatFs/src/ff_gen_drv.c ****   * @brief  Unlinks a diskio driver and decrements the number of active linked
 102:../libdaisy/Middlewares/Third_Party/FatFs/src/ff_gen_drv.c ****   *         drivers.
 103:../libdaisy/Middlewares/Third_Party/FatFs/src/ff_gen_drv.c ****   * @param  path: pointer to the logical drive path
 104:../libdaisy/Middlewares/Third_Party/FatFs/src/ff_gen_drv.c ****   * @retval Returns 0 in case of success, otherwise 1.
 105:../libdaisy/Middlewares/Third_Party/FatFs/src/ff_gen_drv.c ****   */
 106:../libdaisy/Middlewares/Third_Party/FatFs/src/ff_gen_drv.c **** uint8_t FATFS_UnLinkDriver(char *path)
ARM GAS  /var/folders/0d/2ntwfkp1791d52chq7d_xwdm0000gn/T//cc8VwKNs.s 			page 12


 107:../libdaisy/Middlewares/Third_Party/FatFs/src/ff_gen_drv.c **** {
 416              		.loc 1 107 1 is_stmt 1 view -0
 417              		.cfi_startproc
 418              		@ args = 0, pretend = 0, frame = 0
 419              		@ frame_needed = 0, uses_anonymous_args = 0
 420              		@ link register save eliminated.
 108:../libdaisy/Middlewares/Third_Party/FatFs/src/ff_gen_drv.c ****   return FATFS_UnLinkDriverEx(path, 0);
 421              		.loc 1 108 3 view .LVU132
 422              	.LBB25:
 423              	.LBI25:
  80:../libdaisy/Middlewares/Third_Party/FatFs/src/ff_gen_drv.c **** {
 424              		.loc 1 80 9 view .LVU133
 425              	.LBB26:
  82:../libdaisy/Middlewares/Third_Party/FatFs/src/ff_gen_drv.c ****   uint8_t ret = 1;
 426              		.loc 1 82 3 view .LVU134
  83:../libdaisy/Middlewares/Third_Party/FatFs/src/ff_gen_drv.c **** 
 427              		.loc 1 83 3 view .LVU135
  85:../libdaisy/Middlewares/Third_Party/FatFs/src/ff_gen_drv.c ****   {
 428              		.loc 1 85 3 view .LVU136
  85:../libdaisy/Middlewares/Third_Party/FatFs/src/ff_gen_drv.c ****   {
 429              		.loc 1 85 10 is_stmt 0 view .LVU137
 430 0000 034B     		ldr	r3, .L26
 431 0002 5B7A     		ldrb	r3, [r3, #9]	@ zero_extendqisi2
  85:../libdaisy/Middlewares/Third_Party/FatFs/src/ff_gen_drv.c ****   {
 432              		.loc 1 85 5 view .LVU138
 433 0004 0BB1     		cbz	r3, .L25
 434 0006 FFF7FEBF 		b	FATFS_UnLinkDriverEx.part.0
 435              	.LVL30:
 436              	.L25:
  97:../libdaisy/Middlewares/Third_Party/FatFs/src/ff_gen_drv.c **** }
 437              		.loc 1 97 3 is_stmt 1 view .LVU139
  97:../libdaisy/Middlewares/Third_Party/FatFs/src/ff_gen_drv.c **** }
 438              		.loc 1 97 3 is_stmt 0 view .LVU140
 439              	.LBE26:
 440              	.LBE25:
 109:../libdaisy/Middlewares/Third_Party/FatFs/src/ff_gen_drv.c **** }
 441              		.loc 1 109 1 view .LVU141
 442 000a 0120     		movs	r0, #1
 443              	.LVL31:
 444              		.loc 1 109 1 view .LVU142
 445 000c 7047     		bx	lr
 446              	.L27:
 447 000e 00BF     		.align	2
 448              	.L26:
 449 0010 00000000 		.word	.LANCHOR0
 450              		.cfi_endproc
 451              	.LFE323:
 453              		.section	.text.FATFS_GetAttachedDriversNbr,"ax",%progbits
 454              		.align	1
 455              		.p2align 2,,3
 456              		.global	FATFS_GetAttachedDriversNbr
 457              		.syntax unified
 458              		.thumb
 459              		.thumb_func
 460              		.fpu fpv5-d16
 462              	FATFS_GetAttachedDriversNbr:
 463              	.LFB324:
ARM GAS  /var/folders/0d/2ntwfkp1791d52chq7d_xwdm0000gn/T//cc8VwKNs.s 			page 13


 110:../libdaisy/Middlewares/Third_Party/FatFs/src/ff_gen_drv.c **** 
 111:../libdaisy/Middlewares/Third_Party/FatFs/src/ff_gen_drv.c **** /**
 112:../libdaisy/Middlewares/Third_Party/FatFs/src/ff_gen_drv.c ****   * @brief  Gets number of linked drivers to the FatFs module.
 113:../libdaisy/Middlewares/Third_Party/FatFs/src/ff_gen_drv.c ****   * @param  None
 114:../libdaisy/Middlewares/Third_Party/FatFs/src/ff_gen_drv.c ****   * @retval Number of attached drivers.
 115:../libdaisy/Middlewares/Third_Party/FatFs/src/ff_gen_drv.c ****   */
 116:../libdaisy/Middlewares/Third_Party/FatFs/src/ff_gen_drv.c **** uint8_t FATFS_GetAttachedDriversNbr(void)
 117:../libdaisy/Middlewares/Third_Party/FatFs/src/ff_gen_drv.c **** {
 464              		.loc 1 117 1 is_stmt 1 view -0
 465              		.cfi_startproc
 466              		@ args = 0, pretend = 0, frame = 0
 467              		@ frame_needed = 0, uses_anonymous_args = 0
 468              		@ link register save eliminated.
 118:../libdaisy/Middlewares/Third_Party/FatFs/src/ff_gen_drv.c ****   return disk.nbr;
 469              		.loc 1 118 3 view .LVU144
 470              		.loc 1 118 14 is_stmt 0 view .LVU145
 471 0000 014B     		ldr	r3, .L29
 472 0002 587A     		ldrb	r0, [r3, #9]	@ zero_extendqisi2
 119:../libdaisy/Middlewares/Third_Party/FatFs/src/ff_gen_drv.c **** }
 473              		.loc 1 119 1 view .LVU146
 474 0004 7047     		bx	lr
 475              	.L30:
 476 0006 00BF     		.align	2
 477              	.L29:
 478 0008 00000000 		.word	.LANCHOR0
 479              		.cfi_endproc
 480              	.LFE324:
 482              		.global	disk
 483              		.section	.bss.disk,"aw",%nobits
 484              		.align	2
 485              		.set	.LANCHOR0,. + 0
 488              	disk:
 489 0000 00000000 		.space	12
 489      00000000 
 489      00000000 
 490              		.text
 491              	.Letext0:
 492              		.file 2 "/usr/local/Cellar/arm-none-eabi-gcc/9-2019-q4-major/gcc/arm-none-eabi/include/machine/_de
 493              		.file 3 "/usr/local/Cellar/arm-none-eabi-gcc/9-2019-q4-major/gcc/arm-none-eabi/include/sys/_stdint
 494              		.file 4 "../libdaisy/Drivers/CMSIS/Include/core_cm7.h"
 495              		.file 5 "../libdaisy/Drivers/CMSIS/Device/ST/STM32H7xx/Include/system_stm32h7xx.h"
 496              		.file 6 "/usr/local/Cellar/arm-none-eabi-gcc/9-2019-q4-major/gcc/arm-none-eabi/include/sys/lock.h"
 497              		.file 7 "/usr/local/Cellar/arm-none-eabi-gcc/9-2019-q4-major/gcc/arm-none-eabi/include/sys/_types.
 498              		.file 8 "/usr/local/Cellar/arm-none-eabi-gcc/9-2019-q4-major/gcc/lib/gcc/arm-none-eabi/9.2.1/inclu
 499              		.file 9 "/usr/local/Cellar/arm-none-eabi-gcc/9-2019-q4-major/gcc/arm-none-eabi/include/sys/reent.h
 500              		.file 10 "/usr/local/Cellar/arm-none-eabi-gcc/9-2019-q4-major/gcc/arm-none-eabi/include/math.h"
 501              		.file 11 "../libdaisy/Drivers/STM32H7xx_HAL_Driver/Inc/stm32h7xx_hal_def.h"
 502              		.file 12 "../libdaisy/Drivers/STM32H7xx_HAL_Driver/Inc/stm32h7xx_hal_flash.h"
 503              		.file 13 "../libdaisy/Middlewares/Third_Party/FatFs/src/integer.h"
 504              		.file 14 "../libdaisy/Middlewares/Third_Party/FatFs/src/diskio.h"
 505              		.file 15 "/usr/local/Cellar/arm-none-eabi-gcc/9-2019-q4-major/gcc/arm-none-eabi/include/stdlib.h"
 506              		.file 16 "../libdaisy/Middlewares/Third_Party/FatFs/src/ff_gen_drv.h"
ARM GAS  /var/folders/0d/2ntwfkp1791d52chq7d_xwdm0000gn/T//cc8VwKNs.s 			page 14

