ARM GAS  /var/folders/0d/2ntwfkp1791d52chq7d_xwdm0000gn/T//ccL1Y5Xs.s 			page 1


   1              		.cpu cortex-m7
   2              		.eabi_attribute 28, 1
   3              		.eabi_attribute 20, 1
   4              		.eabi_attribute 21, 1
   5              		.eabi_attribute 23, 3
   6              		.eabi_attribute 24, 1
   7              		.eabi_attribute 25, 1
   8              		.eabi_attribute 26, 1
   9              		.eabi_attribute 30, 2
  10              		.eabi_attribute 34, 1
  11              		.eabi_attribute 18, 4
  12              		.file	"LEDs.cpp"
  13              		.text
  14              	.Ltext0:
  15              		.cfi_sections	.debug_frame
  16              		.section	.text._ZN8TempoLED4initE12dsy_gpio_pinf,"ax",%progbits
  17              		.align	1
  18              		.p2align 2,,3
  19              		.global	_ZN8TempoLED4initE12dsy_gpio_pinf
  20              		.arch armv7e-m
  21              		.syntax unified
  22              		.thumb
  23              		.thumb_func
  24              		.fpu fpv5-d16
  26              	_ZN8TempoLED4initE12dsy_gpio_pinf:
  27              	.LVL0:
  28              	.LFB3890:
  29              		.file 1 "LEDs.cpp"
   1:LEDs.cpp      **** // Copyright 2020 Adam Fulford
   2:LEDs.cpp      **** // 
   3:LEDs.cpp      **** // Permission is hereby granted, free of charge, to any person obtaining a copy
   4:LEDs.cpp      **** // of this software and associated documentation files (the "Software"), to deal
   5:LEDs.cpp      **** // in the Software without restriction, including without limitation the rights
   6:LEDs.cpp      **** // to use, copy, modify, merge, publish, distribute, sublicense, and/or sell
   7:LEDs.cpp      **** // copies of the Software, and to permit persons to whom the Software is
   8:LEDs.cpp      **** // furnished to do so, subject to the following conditions:
   9:LEDs.cpp      **** // 
  10:LEDs.cpp      **** // The above copyright notice and this permission notice shall be included in
  11:LEDs.cpp      **** // all copies or substantial portions of the Software.
  12:LEDs.cpp      **** // 
  13:LEDs.cpp      **** // THE SOFTWARE IS PROVIDED "AS IS", WITHOUT WARRANTY OF ANY KIND, EXPRESS OR
  14:LEDs.cpp      **** // IMPLIED, INCLUDING BUT NOT LIMITED TO THE WARRANTIES OF MERCHANTABILITY,
  15:LEDs.cpp      **** // FITNESS FOR A PARTICULAR PURPOSE AND NONINFRINGEMENT. IN NO EVENT SHALL THE
  16:LEDs.cpp      **** // AUTHORS OR COPYRIGHT HOLDERS BE LIABLE FOR ANY CLAIM, DAMAGES OR OTHER
  17:LEDs.cpp      **** // LIABILITY, WHETHER IN AN ACTION OF CONTRACT, TORT OR OTHERWISE, ARISING FROM,
  18:LEDs.cpp      **** // OUT OF OR IN CONNECTION WITH THE SOFTWARE OR THE USE OR OTHER DEALINGS IN
  19:LEDs.cpp      **** // THE SOFTWARE.
  20:LEDs.cpp      **** // 
  21:LEDs.cpp      **** // See http://creativecommons.org/licenses/MIT/ for more information.
  22:LEDs.cpp      **** 
  23:LEDs.cpp      **** #include "LEDs.h"
  24:LEDs.cpp      **** 
  25:LEDs.cpp      **** //TempoLED Functions:
  26:LEDs.cpp      **** 
  27:LEDs.cpp      **** void TempoLED::init(dsy_gpio_pin ledpin, float samplerate)  //led pin number
  28:LEDs.cpp      **** {
  30              		.loc 1 28 1 view -0
ARM GAS  /var/folders/0d/2ntwfkp1791d52chq7d_xwdm0000gn/T//ccL1Y5Xs.s 			page 2


  31              		.cfi_startproc
  32              		@ args = 0, pretend = 0, frame = 8
  33              		@ frame_needed = 0, uses_anonymous_args = 0
  29:LEDs.cpp      ****     led.Init(ledpin,false,samplerate);
  34              		.loc 1 29 5 view .LVU1
  28:LEDs.cpp      ****     led.Init(ledpin,false,samplerate);
  35              		.loc 1 28 1 is_stmt 0 view .LVU2
  36 0000 10B5     		push	{r4, lr}
  37              		.cfi_def_cfa_offset 8
  38              		.cfi_offset 4, -8
  39              		.cfi_offset 14, -4
  40 0002 2DED048B 		vpush.64	{d8, d9}
  41              		.cfi_def_cfa_offset 24
  42              		.cfi_offset 80, -24
  43              		.cfi_offset 81, -20
  44              		.cfi_offset 82, -16
  45              		.cfi_offset 83, -12
  46 0006 82B0     		sub	sp, sp, #8
  47              		.cfi_def_cfa_offset 32
  28:LEDs.cpp      ****     led.Init(ledpin,false,samplerate);
  48              		.loc 1 28 1 view .LVU3
  49 0008 0446     		mov	r4, r0
  30:LEDs.cpp      ****     led.Set(0.0f);
  50              		.loc 1 30 12 view .LVU4
  51 000a 9FED209A 		vldr.32	s18, .L4
  28:LEDs.cpp      ****     led.Init(ledpin,false,samplerate);
  52              		.loc 1 28 1 view .LVU5
  53 000e B0EE408A 		vmov.f32	s16, s0
  54 0012 ADF80410 		strh	r1, [sp, #4]	@ movhi
  29:LEDs.cpp      ****     led.Init(ledpin,false,samplerate);
  55              		.loc 1 29 13 view .LVU6
  56 0016 0022     		movs	r2, #0
  57 0018 0199     		ldr	r1, [sp, #4]
  58              	.LBB34:
  59              	.LBB35:
  60              		.file 2 "../DaisySP/Source/Synthesis/oscillator.h"
   1:../DaisySP/Source/Synthesis/oscillator.h **** #pragma once
   2:../DaisySP/Source/Synthesis/oscillator.h **** #ifndef DSY_OSCILLATOR_H
   3:../DaisySP/Source/Synthesis/oscillator.h **** #define DSY_OSCILLATOR_H
   4:../DaisySP/Source/Synthesis/oscillator.h **** #include <stdint.h>
   5:../DaisySP/Source/Synthesis/oscillator.h **** #include "Utility/dsp.h"
   6:../DaisySP/Source/Synthesis/oscillator.h **** #ifdef __cplusplus
   7:../DaisySP/Source/Synthesis/oscillator.h **** 
   8:../DaisySP/Source/Synthesis/oscillator.h **** namespace daisysp
   9:../DaisySP/Source/Synthesis/oscillator.h **** {
  10:../DaisySP/Source/Synthesis/oscillator.h **** /** Synthesis of several waveforms, including polyBLEP bandlimited waveforms.
  11:../DaisySP/Source/Synthesis/oscillator.h **** */
  12:../DaisySP/Source/Synthesis/oscillator.h **** class Oscillator
  13:../DaisySP/Source/Synthesis/oscillator.h **** {
  14:../DaisySP/Source/Synthesis/oscillator.h ****   public:
  15:../DaisySP/Source/Synthesis/oscillator.h ****     Oscillator() {}
  16:../DaisySP/Source/Synthesis/oscillator.h ****     ~Oscillator() {}
  17:../DaisySP/Source/Synthesis/oscillator.h ****     /** Choices for output waveforms, POLYBLEP are appropriately labeled. Others are naive forms.
  18:../DaisySP/Source/Synthesis/oscillator.h ****     */
  19:../DaisySP/Source/Synthesis/oscillator.h ****     enum
  20:../DaisySP/Source/Synthesis/oscillator.h ****     {
  21:../DaisySP/Source/Synthesis/oscillator.h ****         WAVE_SIN,
ARM GAS  /var/folders/0d/2ntwfkp1791d52chq7d_xwdm0000gn/T//ccL1Y5Xs.s 			page 3


  22:../DaisySP/Source/Synthesis/oscillator.h ****         WAVE_TRI,
  23:../DaisySP/Source/Synthesis/oscillator.h ****         WAVE_SAW,
  24:../DaisySP/Source/Synthesis/oscillator.h ****         WAVE_RAMP,
  25:../DaisySP/Source/Synthesis/oscillator.h ****         WAVE_SQUARE,
  26:../DaisySP/Source/Synthesis/oscillator.h ****         WAVE_POLYBLEP_TRI,
  27:../DaisySP/Source/Synthesis/oscillator.h ****         WAVE_POLYBLEP_SAW,
  28:../DaisySP/Source/Synthesis/oscillator.h ****         WAVE_POLYBLEP_SQUARE,
  29:../DaisySP/Source/Synthesis/oscillator.h ****         WAVE_LAST,
  30:../DaisySP/Source/Synthesis/oscillator.h ****     };
  31:../DaisySP/Source/Synthesis/oscillator.h **** 
  32:../DaisySP/Source/Synthesis/oscillator.h **** 
  33:../DaisySP/Source/Synthesis/oscillator.h ****     /** Initializes the Oscillator
  34:../DaisySP/Source/Synthesis/oscillator.h **** 
  35:../DaisySP/Source/Synthesis/oscillator.h ****         \param sample_rate - sample rate of the audio engine being run, and the frequency that the 
  36:../DaisySP/Source/Synthesis/oscillator.h **** 
  37:../DaisySP/Source/Synthesis/oscillator.h ****         Defaults:
  38:../DaisySP/Source/Synthesis/oscillator.h ****         - freq_ = 100 Hz
  39:../DaisySP/Source/Synthesis/oscillator.h ****         - amp_ = 0.5
  40:../DaisySP/Source/Synthesis/oscillator.h ****         - waveform_ = sine wave.
  41:../DaisySP/Source/Synthesis/oscillator.h ****     */
  42:../DaisySP/Source/Synthesis/oscillator.h ****     void Init(float sample_rate)
  43:../DaisySP/Source/Synthesis/oscillator.h ****     {
  44:../DaisySP/Source/Synthesis/oscillator.h ****         sr_        = sample_rate;
  45:../DaisySP/Source/Synthesis/oscillator.h ****         sr_recip_  = 1.0f / sample_rate;
  61              		.loc 2 45 27 view .LVU7
  62 001a F7EE008A 		vmov.f32	s17, #1.0e+0
  63              	.LBE35:
  64              	.LBE34:
  29:LEDs.cpp      ****     led.Set(0.0f);
  65              		.loc 1 29 13 view .LVU8
  66 001e FFF7FEFF 		bl	_ZN5daisy3Led4InitE12dsy_gpio_pinbf
  67              	.LVL1:
  68              		.loc 1 30 5 is_stmt 1 view .LVU9
  69              		.loc 1 30 12 is_stmt 0 view .LVU10
  70 0022 B0EE490A 		vmov.f32	s0, s18
  71 0026 2046     		mov	r0, r4
  72 0028 FFF7FEFF 		bl	_ZN5daisy3Led3SetEf
  73              	.LVL2:
  31:LEDs.cpp      ****     led.Update();
  74              		.loc 1 31 5 is_stmt 1 view .LVU11
  75              		.loc 1 31 15 is_stmt 0 view .LVU12
  76 002c 2046     		mov	r0, r4
  77 002e FFF7FEFF 		bl	_ZN5daisy3Led6UpdateEv
  78              	.LVL3:
  32:LEDs.cpp      ****     blink.Init(samplerate);
  79              		.loc 1 32 5 is_stmt 1 view .LVU13
  80              	.LBB41:
  81              	.LBB36:
  82              		.loc 2 45 27 is_stmt 0 view .LVU14
  83 0032 C8EE887A 		vdiv.f32	s15, s17, s16
  46:../DaisySP/Source/Synthesis/oscillator.h ****         freq_      = 100.0f;
  47:../DaisySP/Source/Synthesis/oscillator.h ****         amp_       = 0.5f;
  84              		.loc 2 47 20 view .LVU15
  85 0036 4FF07C53 		mov	r3, #1056964608
  46:../DaisySP/Source/Synthesis/oscillator.h ****         freq_      = 100.0f;
  86              		.loc 2 46 20 view .LVU16
  87 003a 9FED150A 		vldr.32	s0, .L4+4
ARM GAS  /var/folders/0d/2ntwfkp1791d52chq7d_xwdm0000gn/T//ccL1Y5Xs.s 			page 4


  88              	.LBE36:
  89              	.LBE41:
  90              		.loc 1 32 15 view .LVU17
  91 003e 04F11C00 		add	r0, r4, #28
  92              	.LVL4:
  93              	.LBB42:
  94              	.LBI34:
  42:../DaisySP/Source/Synthesis/oscillator.h ****     {
  95              		.loc 2 42 10 is_stmt 1 view .LVU18
  96              	.LBB37:
  44:../DaisySP/Source/Synthesis/oscillator.h ****         sr_recip_  = 1.0f / sample_rate;
  97              		.loc 2 44 9 view .LVU19
  44:../DaisySP/Source/Synthesis/oscillator.h ****         sr_recip_  = 1.0f / sample_rate;
  98              		.loc 2 44 20 is_stmt 0 view .LVU20
  99 0042 84ED0A8A 		vstr.32	s16, [r4, #40]
  45:../DaisySP/Source/Synthesis/oscillator.h ****         freq_      = 100.0f;
 100              		.loc 2 45 9 is_stmt 1 view .LVU21
 101              		.loc 2 47 20 is_stmt 0 view .LVU22
 102 0046 2362     		str	r3, [r4, #32]	@ float
  48:../DaisySP/Source/Synthesis/oscillator.h ****         phase_     = 0.0f;
 103              		.loc 2 48 20 view .LVU23
 104 0048 84ED0C9A 		vstr.32	s18, [r4, #48]
  46:../DaisySP/Source/Synthesis/oscillator.h ****         amp_       = 0.5f;
 105              		.loc 2 46 20 view .LVU24
 106 004c 84ED090A 		vstr.32	s0, [r4, #36]
  49:../DaisySP/Source/Synthesis/oscillator.h ****         phase_inc_ = CalcPhaseInc(freq_);
 107              		.loc 2 49 34 view .LVU25
 108 0050 0090     		str	r0, [sp]
  45:../DaisySP/Source/Synthesis/oscillator.h ****         freq_      = 100.0f;
 109              		.loc 2 45 20 view .LVU26
 110 0052 C4ED0B7A 		vstr.32	s15, [r4, #44]
  46:../DaisySP/Source/Synthesis/oscillator.h ****         amp_       = 0.5f;
 111              		.loc 2 46 9 is_stmt 1 view .LVU27
  47:../DaisySP/Source/Synthesis/oscillator.h ****         phase_     = 0.0f;
 112              		.loc 2 47 9 view .LVU28
  48:../DaisySP/Source/Synthesis/oscillator.h ****         phase_inc_ = CalcPhaseInc(freq_);
 113              		.loc 2 48 9 view .LVU29
 114              		.loc 2 49 9 view .LVU30
 115              		.loc 2 49 34 is_stmt 0 view .LVU31
 116 0056 FFF7FEFF 		bl	_ZN7daisysp10Oscillator12CalcPhaseIncEf
 117              	.LVL5:
 118              		.loc 2 49 34 view .LVU32
 119              	.LBE37:
 120              	.LBE42:
 121              	.LBB43:
 122              	.LBB44:
  50:../DaisySP/Source/Synthesis/oscillator.h ****         waveform_  = WAVE_SIN;
  51:../DaisySP/Source/Synthesis/oscillator.h ****         eoc_       = true;
  52:../DaisySP/Source/Synthesis/oscillator.h ****         eor_       = true;
  53:../DaisySP/Source/Synthesis/oscillator.h ****     }
  54:../DaisySP/Source/Synthesis/oscillator.h **** 
  55:../DaisySP/Source/Synthesis/oscillator.h **** 
  56:../DaisySP/Source/Synthesis/oscillator.h ****     /** Changes the frequency of the Oscillator, and recalculates phase increment.
  57:../DaisySP/Source/Synthesis/oscillator.h ****     */
  58:../DaisySP/Source/Synthesis/oscillator.h ****     inline void SetFreq(const float f)
  59:../DaisySP/Source/Synthesis/oscillator.h ****     {
  60:../DaisySP/Source/Synthesis/oscillator.h ****         freq_      = f;
ARM GAS  /var/folders/0d/2ntwfkp1791d52chq7d_xwdm0000gn/T//ccL1Y5Xs.s 			page 5


 123              		.loc 2 60 20 view .LVU33
 124 005a F0EE007A 		vmov.f32	s15, #2.0e+0
 125              	.LBE44:
 126              	.LBE43:
 127              	.LBB48:
 128              	.LBB38:
  52:../DaisySP/Source/Synthesis/oscillator.h ****     }
 129              		.loc 2 52 20 view .LVU34
 130 005e 40F20112 		movw	r2, #257
 131              	.LBE38:
 132              	.LBE48:
 133              	.LBB49:
 134              	.LBB50:
  61:../DaisySP/Source/Synthesis/oscillator.h ****         phase_inc_ = CalcPhaseInc(f);
  62:../DaisySP/Source/Synthesis/oscillator.h ****     }
  63:../DaisySP/Source/Synthesis/oscillator.h **** 
  64:../DaisySP/Source/Synthesis/oscillator.h **** 
  65:../DaisySP/Source/Synthesis/oscillator.h ****     /** Sets the amplitude of the waveform.
  66:../DaisySP/Source/Synthesis/oscillator.h ****     */
  67:../DaisySP/Source/Synthesis/oscillator.h ****     inline void SetAmp(const float a) { amp_ = a; }
  68:../DaisySP/Source/Synthesis/oscillator.h ****     /** Sets the waveform to be synthesized by the Process() function.
  69:../DaisySP/Source/Synthesis/oscillator.h ****     */
  70:../DaisySP/Source/Synthesis/oscillator.h ****     inline void SetWaveform(const uint8_t wf)
  71:../DaisySP/Source/Synthesis/oscillator.h ****     {
  72:../DaisySP/Source/Synthesis/oscillator.h ****         waveform_ = wf < WAVE_LAST ? wf : WAVE_SIN;
 135              		.loc 2 72 19 view .LVU35
 136 0062 0423     		movs	r3, #4
 137              	.LBE50:
 138              	.LBE49:
 139              	.LBB52:
 140              	.LBB45:
  61:../DaisySP/Source/Synthesis/oscillator.h ****         phase_inc_ = CalcPhaseInc(f);
 141              		.loc 2 61 34 view .LVU36
 142 0064 0098     		ldr	r0, [sp]
 143              	.LBE45:
 144              	.LBE52:
 145              	.LBB53:
 146              	.LBB39:
  49:../DaisySP/Source/Synthesis/oscillator.h ****         waveform_  = WAVE_SIN;
 147              		.loc 2 49 20 view .LVU37
 148 0066 84ED0D0A 		vstr.32	s0, [r4, #52]
  50:../DaisySP/Source/Synthesis/oscillator.h ****         eoc_       = true;
 149              		.loc 2 50 9 is_stmt 1 view .LVU38
  51:../DaisySP/Source/Synthesis/oscillator.h ****         eor_       = true;
 150              		.loc 2 51 9 view .LVU39
  52:../DaisySP/Source/Synthesis/oscillator.h ****     }
 151              		.loc 2 52 9 view .LVU40
 152              	.LBE39:
 153              	.LBE53:
 154              	.LBB54:
 155              	.LBB46:
  61:../DaisySP/Source/Synthesis/oscillator.h ****     }
 156              		.loc 2 61 34 is_stmt 0 view .LVU41
 157 006a B0EE670A 		vmov.f32	s0, s15
 158              	.LBE46:
 159              	.LBE54:
 160              	.LBB55:
ARM GAS  /var/folders/0d/2ntwfkp1791d52chq7d_xwdm0000gn/T//ccL1Y5Xs.s 			page 6


 161              	.LBB56:
  67:../DaisySP/Source/Synthesis/oscillator.h ****     /** Sets the waveform to be synthesized by the Process() function.
 162              		.loc 2 67 46 view .LVU42
 163 006e C4ED088A 		vstr.32	s17, [r4, #32]
 164              	.LBE56:
 165              	.LBE55:
 166              	.LBB58:
 167              	.LBB40:
  52:../DaisySP/Source/Synthesis/oscillator.h ****     }
 168              		.loc 2 52 20 view .LVU43
 169 0072 A4F84020 		strh	r2, [r4, #64]	@ movhi
 170              	.LVL6:
  52:../DaisySP/Source/Synthesis/oscillator.h ****     }
 171              		.loc 2 52 20 view .LVU44
 172              	.LBE40:
 173              	.LBE58:
  33:LEDs.cpp      ****     blink.SetWaveform(blink.WAVE_SQUARE);
 174              		.loc 1 33 5 is_stmt 1 view .LVU45
 175              	.LBB59:
 176              	.LBI49:
  70:../DaisySP/Source/Synthesis/oscillator.h ****     {
 177              		.loc 2 70 17 view .LVU46
 178              	.LBB51:
 179              		.loc 2 72 9 view .LVU47
 180              		.loc 2 72 19 is_stmt 0 view .LVU48
 181 0076 2377     		strb	r3, [r4, #28]
 182              	.LVL7:
 183              		.loc 2 72 19 view .LVU49
 184              	.LBE51:
 185              	.LBE59:
  34:LEDs.cpp      ****     blink.SetAmp(1.0f);
 186              		.loc 1 34 5 is_stmt 1 view .LVU50
 187              	.LBB60:
 188              	.LBI55:
  67:../DaisySP/Source/Synthesis/oscillator.h ****     /** Sets the waveform to be synthesized by the Process() function.
 189              		.loc 2 67 17 view .LVU51
 190              	.LBB57:
  67:../DaisySP/Source/Synthesis/oscillator.h ****     /** Sets the waveform to be synthesized by the Process() function.
 191              		.loc 2 67 41 view .LVU52
  67:../DaisySP/Source/Synthesis/oscillator.h ****     /** Sets the waveform to be synthesized by the Process() function.
 192              		.loc 2 67 41 is_stmt 0 view .LVU53
 193              	.LBE57:
 194              	.LBE60:
  35:LEDs.cpp      ****     blink.SetFreq(2.0f);
 195              		.loc 1 35 5 is_stmt 1 view .LVU54
 196              	.LBB61:
 197              	.LBI43:
  58:../DaisySP/Source/Synthesis/oscillator.h ****     {
 198              		.loc 2 58 17 view .LVU55
 199              	.LBB47:
  60:../DaisySP/Source/Synthesis/oscillator.h ****         phase_inc_ = CalcPhaseInc(f);
 200              		.loc 2 60 9 view .LVU56
  60:../DaisySP/Source/Synthesis/oscillator.h ****         phase_inc_ = CalcPhaseInc(f);
 201              		.loc 2 60 20 is_stmt 0 view .LVU57
 202 0078 C4ED097A 		vstr.32	s15, [r4, #36]
  61:../DaisySP/Source/Synthesis/oscillator.h ****     }
 203              		.loc 2 61 9 is_stmt 1 view .LVU58
ARM GAS  /var/folders/0d/2ntwfkp1791d52chq7d_xwdm0000gn/T//ccL1Y5Xs.s 			page 7


  61:../DaisySP/Source/Synthesis/oscillator.h ****     }
 204              		.loc 2 61 34 is_stmt 0 view .LVU59
 205 007c FFF7FEFF 		bl	_ZN7daisysp10Oscillator12CalcPhaseIncEf
 206              	.LVL8:
  61:../DaisySP/Source/Synthesis/oscillator.h ****     }
 207              		.loc 2 61 20 view .LVU60
 208 0080 84ED0D0A 		vstr.32	s0, [r4, #52]
 209              	.LVL9:
  61:../DaisySP/Source/Synthesis/oscillator.h ****     }
 210              		.loc 2 61 20 view .LVU61
 211              	.LBE47:
 212              	.LBE61:
  36:LEDs.cpp      **** }
 213              		.loc 1 36 1 view .LVU62
 214 0084 02B0     		add	sp, sp, #8
 215              		.cfi_def_cfa_offset 24
 216              	.LVL10:
 217              		.loc 1 36 1 view .LVU63
 218              		@ sp needed
 219 0086 BDEC048B 		vldm	sp!, {d8-d9}
 220              		.cfi_restore 82
 221              		.cfi_restore 83
 222              		.cfi_restore 80
 223              		.cfi_restore 81
 224              		.cfi_def_cfa_offset 8
 225              	.LVL11:
 226              		.loc 1 36 1 view .LVU64
 227 008a 10BD     		pop	{r4, pc}
 228              	.LVL12:
 229              	.L5:
 230              		.loc 1 36 1 view .LVU65
 231              		.align	2
 232              	.L4:
 233 008c 00000000 		.word	0
 234 0090 0000C842 		.word	1120403456
 235              		.cfi_endproc
 236              	.LFE3890:
 238              		.section	.text._ZN8TempoLED8setTempoEf,"ax",%progbits
 239              		.align	1
 240              		.p2align 2,,3
 241              		.global	_ZN8TempoLED8setTempoEf
 242              		.syntax unified
 243              		.thumb
 244              		.thumb_func
 245              		.fpu fpv5-d16
 247              	_ZN8TempoLED8setTempoEf:
 248              	.LVL13:
 249              	.LFB3891:
  37:LEDs.cpp      **** 
  38:LEDs.cpp      **** void TempoLED::setTempo(float tempo)
  39:LEDs.cpp      **** {
 250              		.loc 1 39 1 is_stmt 1 view -0
 251              		.cfi_startproc
 252              		@ args = 0, pretend = 0, frame = 0
 253              		@ frame_needed = 0, uses_anonymous_args = 0
  40:LEDs.cpp      ****     blink.SetFreq(tempo);
 254              		.loc 1 40 5 view .LVU67
ARM GAS  /var/folders/0d/2ntwfkp1791d52chq7d_xwdm0000gn/T//ccL1Y5Xs.s 			page 8


  39:LEDs.cpp      ****     blink.SetFreq(tempo);
 255              		.loc 1 39 1 is_stmt 0 view .LVU68
 256 0000 10B5     		push	{r4, lr}
 257              		.cfi_def_cfa_offset 8
 258              		.cfi_offset 4, -8
 259              		.cfi_offset 14, -4
  39:LEDs.cpp      ****     blink.SetFreq(tempo);
 260              		.loc 1 39 1 view .LVU69
 261 0002 0446     		mov	r4, r0
 262              	.LVL14:
 263              	.LBB62:
 264              	.LBI62:
  58:../DaisySP/Source/Synthesis/oscillator.h ****     {
 265              		.loc 2 58 17 is_stmt 1 view .LVU70
 266              	.LBB63:
  60:../DaisySP/Source/Synthesis/oscillator.h ****         phase_inc_ = CalcPhaseInc(f);
 267              		.loc 2 60 9 view .LVU71
  60:../DaisySP/Source/Synthesis/oscillator.h ****         phase_inc_ = CalcPhaseInc(f);
 268              		.loc 2 60 20 is_stmt 0 view .LVU72
 269 0004 80ED090A 		vstr.32	s0, [r0, #36]
  61:../DaisySP/Source/Synthesis/oscillator.h ****     }
 270              		.loc 2 61 9 is_stmt 1 view .LVU73
  61:../DaisySP/Source/Synthesis/oscillator.h ****     }
 271              		.loc 2 61 34 is_stmt 0 view .LVU74
 272 0008 1C30     		adds	r0, r0, #28
 273              	.LVL15:
  61:../DaisySP/Source/Synthesis/oscillator.h ****     }
 274              		.loc 2 61 34 view .LVU75
 275 000a FFF7FEFF 		bl	_ZN7daisysp10Oscillator12CalcPhaseIncEf
 276              	.LVL16:
  61:../DaisySP/Source/Synthesis/oscillator.h ****     }
 277              		.loc 2 61 20 view .LVU76
 278 000e 84ED0D0A 		vstr.32	s0, [r4, #52]
 279              	.LVL17:
  61:../DaisySP/Source/Synthesis/oscillator.h ****     }
 280              		.loc 2 61 20 view .LVU77
 281              	.LBE63:
 282              	.LBE62:
  41:LEDs.cpp      **** }
 283              		.loc 1 41 1 view .LVU78
 284 0012 10BD     		pop	{r4, pc}
 285              		.loc 1 41 1 view .LVU79
 286              		.cfi_endproc
 287              	.LFE3891:
 289              		.section	.text._ZN8TempoLED10resetPhaseEv,"ax",%progbits
 290              		.align	1
 291              		.p2align 2,,3
 292              		.global	_ZN8TempoLED10resetPhaseEv
 293              		.syntax unified
 294              		.thumb
 295              		.thumb_func
 296              		.fpu fpv5-d16
 298              	_ZN8TempoLED10resetPhaseEv:
 299              	.LVL18:
 300              	.LFB3892:
  42:LEDs.cpp      **** 
  43:LEDs.cpp      **** void TempoLED::resetPhase()
ARM GAS  /var/folders/0d/2ntwfkp1791d52chq7d_xwdm0000gn/T//ccL1Y5Xs.s 			page 9


  44:LEDs.cpp      **** {
 301              		.loc 1 44 1 is_stmt 1 view -0
 302              		.cfi_startproc
 303              		@ args = 0, pretend = 0, frame = 0
 304              		@ frame_needed = 0, uses_anonymous_args = 0
 305              		@ link register save eliminated.
  45:LEDs.cpp      ****     blink.Reset();
 306              		.loc 1 45 5 view .LVU81
 307              	.LBB64:
 308              	.LBI64:
  73:../DaisySP/Source/Synthesis/oscillator.h ****     }
  74:../DaisySP/Source/Synthesis/oscillator.h **** 
  75:../DaisySP/Source/Synthesis/oscillator.h ****     /** Returns true if cycle is at end of rise. Set during call to Process.
  76:../DaisySP/Source/Synthesis/oscillator.h ****     */
  77:../DaisySP/Source/Synthesis/oscillator.h ****     inline bool IsEOR() { return eor_; }
  78:../DaisySP/Source/Synthesis/oscillator.h **** 
  79:../DaisySP/Source/Synthesis/oscillator.h ****     /** Returns true if cycle is at end of cycle. Set during call to Process.
  80:../DaisySP/Source/Synthesis/oscillator.h ****     */
  81:../DaisySP/Source/Synthesis/oscillator.h ****     inline bool IsEOC() { return eoc_; }
  82:../DaisySP/Source/Synthesis/oscillator.h **** 
  83:../DaisySP/Source/Synthesis/oscillator.h ****     /** Returns true if cycle rising.
  84:../DaisySP/Source/Synthesis/oscillator.h ****     */
  85:../DaisySP/Source/Synthesis/oscillator.h ****     inline bool IsRising() { return phase_ < PI_F; }
  86:../DaisySP/Source/Synthesis/oscillator.h **** 
  87:../DaisySP/Source/Synthesis/oscillator.h ****     /** Returns true if cycle falling.
  88:../DaisySP/Source/Synthesis/oscillator.h ****     */
  89:../DaisySP/Source/Synthesis/oscillator.h ****     inline bool IsFalling() { return phase_ >= PI_F; }
  90:../DaisySP/Source/Synthesis/oscillator.h **** 
  91:../DaisySP/Source/Synthesis/oscillator.h ****     /** Processes the waveform to be generated, returning one sample. This should be called once pe
  92:../DaisySP/Source/Synthesis/oscillator.h ****     */
  93:../DaisySP/Source/Synthesis/oscillator.h ****     float Process();
  94:../DaisySP/Source/Synthesis/oscillator.h **** 
  95:../DaisySP/Source/Synthesis/oscillator.h **** 
  96:../DaisySP/Source/Synthesis/oscillator.h ****     /** Adds a value 0.0-1.0 (mapped to 0.0-TWO_PI) to the current phase. Useful for PM and "FM" sy
  97:../DaisySP/Source/Synthesis/oscillator.h ****     */
  98:../DaisySP/Source/Synthesis/oscillator.h ****     void PhaseAdd(float _phase) { phase_ += (_phase * TWOPI_F); }
  99:../DaisySP/Source/Synthesis/oscillator.h ****     /** Resets the phase to the input argument. If no argumeNt is present, it will reset phase to 0
 100:../DaisySP/Source/Synthesis/oscillator.h ****     */
 101:../DaisySP/Source/Synthesis/oscillator.h ****     void Reset(float _phase = 0.0f) { phase_ = _phase; }
 309              		.loc 2 101 10 view .LVU82
 310              	.LBB65:
 311              		.loc 2 101 39 view .LVU83
 312              		.loc 2 101 46 is_stmt 0 view .LVU84
 313 0000 0023     		movs	r3, #0
 314 0002 0363     		str	r3, [r0, #48]	@ float
 315              	.LVL19:
 316              		.loc 2 101 46 view .LVU85
 317              	.LBE65:
 318              	.LBE64:
  46:LEDs.cpp      **** }
 319              		.loc 1 46 1 view .LVU86
 320 0004 7047     		bx	lr
 321              		.cfi_endproc
 322              	.LFE3892:
 324 0006 00BF     		.section	.text._ZN8TempoLED6updateEv,"ax",%progbits
 325              		.align	1
 326              		.p2align 2,,3
ARM GAS  /var/folders/0d/2ntwfkp1791d52chq7d_xwdm0000gn/T//ccL1Y5Xs.s 			page 10


 327              		.global	_ZN8TempoLED6updateEv
 328              		.syntax unified
 329              		.thumb
 330              		.thumb_func
 331              		.fpu fpv5-d16
 333              	_ZN8TempoLED6updateEv:
 334              	.LVL20:
 335              	.LFB3893:
  47:LEDs.cpp      **** 
  48:LEDs.cpp      **** void TempoLED::update()
  49:LEDs.cpp      **** {
 336              		.loc 1 49 1 is_stmt 1 view -0
 337              		.cfi_startproc
 338              		@ args = 0, pretend = 0, frame = 0
 339              		@ frame_needed = 0, uses_anonymous_args = 0
  50:LEDs.cpp      ****     float ledvalue{ (blink.Process() + 1.0f) / 2.0f };
 340              		.loc 1 50 5 view .LVU88
  49:LEDs.cpp      ****     float ledvalue{ (blink.Process() + 1.0f) / 2.0f };
 341              		.loc 1 49 1 is_stmt 0 view .LVU89
 342 0000 10B5     		push	{r4, lr}
 343              		.cfi_def_cfa_offset 8
 344              		.cfi_offset 4, -8
 345              		.cfi_offset 14, -4
  49:LEDs.cpp      ****     float ledvalue{ (blink.Process() + 1.0f) / 2.0f };
 346              		.loc 1 49 1 view .LVU90
 347 0002 0446     		mov	r4, r0
 348              		.loc 1 50 35 view .LVU91
 349 0004 1C30     		adds	r0, r0, #28
 350              	.LVL21:
 351              		.loc 1 50 35 view .LVU92
 352 0006 FFF7FEFF 		bl	_ZN7daisysp10Oscillator7ProcessEv
 353              	.LVL22:
  51:LEDs.cpp      ****     led.Set(ledvalue);
 354              		.loc 1 51 5 is_stmt 1 view .LVU93
  50:LEDs.cpp      ****     float ledvalue{ (blink.Process() + 1.0f) / 2.0f };
 355              		.loc 1 50 38 is_stmt 0 view .LVU94
 356 000a B7EE007A 		vmov.f32	s14, #1.0e+0
  50:LEDs.cpp      ****     float ledvalue{ (blink.Process() + 1.0f) / 2.0f };
 357              		.loc 1 50 53 view .LVU95
 358 000e F6EE007A 		vmov.f32	s15, #5.0e-1
 359              		.loc 1 51 12 view .LVU96
 360 0012 2046     		mov	r0, r4
  50:LEDs.cpp      ****     float ledvalue{ (blink.Process() + 1.0f) / 2.0f };
 361              		.loc 1 50 38 view .LVU97
 362 0014 30EE070A 		vadd.f32	s0, s0, s14
 363              	.LVL23:
 364              		.loc 1 51 12 view .LVU98
 365 0018 20EE270A 		vmul.f32	s0, s0, s15
 366              	.LVL24:
 367              		.loc 1 51 12 view .LVU99
 368 001c FFF7FEFF 		bl	_ZN5daisy3Led3SetEf
 369              	.LVL25:
  52:LEDs.cpp      ****     led.Update();
 370              		.loc 1 52 5 is_stmt 1 view .LVU100
 371              		.loc 1 52 15 is_stmt 0 view .LVU101
 372 0020 2046     		mov	r0, r4
  53:LEDs.cpp      **** }
ARM GAS  /var/folders/0d/2ntwfkp1791d52chq7d_xwdm0000gn/T//ccL1Y5Xs.s 			page 11


 373              		.loc 1 53 1 view .LVU102
 374 0022 BDE81040 		pop	{r4, lr}
 375              		.cfi_restore 14
 376              		.cfi_restore 4
 377              		.cfi_def_cfa_offset 0
 378              	.LVL26:
  52:LEDs.cpp      ****     led.Update();
 379              		.loc 1 52 15 view .LVU103
 380 0026 FFF7FEBF 		b	_ZN5daisy3Led6UpdateEv
 381              	.LVL27:
  52:LEDs.cpp      ****     led.Update();
 382              		.loc 1 52 15 view .LVU104
 383              		.cfi_endproc
 384              	.LFE3893:
 386 002a 00BF     		.section	.text._ZN8TempoLED7LED_setEf,"ax",%progbits
 387              		.align	1
 388              		.p2align 2,,3
 389              		.global	_ZN8TempoLED7LED_setEf
 390              		.syntax unified
 391              		.thumb
 392              		.thumb_func
 393              		.fpu fpv5-d16
 395              	_ZN8TempoLED7LED_setEf:
 396              	.LVL28:
 397              	.LFB3894:
  54:LEDs.cpp      **** 
  55:LEDs.cpp      **** void TempoLED::LED_set(float brightness)
  56:LEDs.cpp      **** {
 398              		.loc 1 56 1 is_stmt 1 view -0
 399              		.cfi_startproc
 400              		@ args = 0, pretend = 0, frame = 0
 401              		@ frame_needed = 0, uses_anonymous_args = 0
 402              		@ link register save eliminated.
  57:LEDs.cpp      ****     led.Set(brightness);
 403              		.loc 1 57 5 view .LVU106
 404              		.loc 1 57 12 is_stmt 0 view .LVU107
 405 0000 FFF7FEBF 		b	_ZN5daisy3Led3SetEf
 406              	.LVL29:
 407              		.loc 1 57 12 view .LVU108
 408              		.cfi_endproc
 409              	.LFE3894:
 411              		.section	.text._ZN8TempoLED5isEOCEv,"ax",%progbits
 412              		.align	1
 413              		.p2align 2,,3
 414              		.global	_ZN8TempoLED5isEOCEv
 415              		.syntax unified
 416              		.thumb
 417              		.thumb_func
 418              		.fpu fpv5-d16
 420              	_ZN8TempoLED5isEOCEv:
 421              	.LVL30:
 422              	.LFB3895:
  58:LEDs.cpp      **** }
  59:LEDs.cpp      **** 
  60:LEDs.cpp      **** bool TempoLED::isEOC()
  61:LEDs.cpp      **** {
 423              		.loc 1 61 1 is_stmt 1 view -0
ARM GAS  /var/folders/0d/2ntwfkp1791d52chq7d_xwdm0000gn/T//ccL1Y5Xs.s 			page 12


 424              		.cfi_startproc
 425              		@ args = 0, pretend = 0, frame = 0
 426              		@ frame_needed = 0, uses_anonymous_args = 0
 427              		@ link register save eliminated.
  62:LEDs.cpp      ****     return blink.IsEOC();
 428              		.loc 1 62 5 view .LVU110
  81:../DaisySP/Source/Synthesis/oscillator.h **** 
 429              		.loc 2 81 27 view .LVU111
  63:LEDs.cpp      **** }
 430              		.loc 1 63 1 is_stmt 0 view .LVU112
 431 0000 90F84100 		ldrb	r0, [r0, #65]	@ zero_extendqisi2
 432              	.LVL31:
 433              		.loc 1 63 1 view .LVU113
 434 0004 7047     		bx	lr
 435              		.cfi_endproc
 436              	.LFE3895:
 438 0006 00BF     		.section	.text._ZN9ButtonLED4initE12dsy_gpio_pinS0_NS_10SwitchTypeEf,"ax",%progbits
 439              		.align	1
 440              		.p2align 2,,3
 441              		.global	_ZN9ButtonLED4initE12dsy_gpio_pinS0_NS_10SwitchTypeEf
 442              		.syntax unified
 443              		.thumb
 444              		.thumb_func
 445              		.fpu fpv5-d16
 447              	_ZN9ButtonLED4initE12dsy_gpio_pinS0_NS_10SwitchTypeEf:
 448              	.LVL32:
 449              	.LFB3896:
  64:LEDs.cpp      **** 
  65:LEDs.cpp      **** //ButtonLED Functions:
  66:LEDs.cpp      **** 
  67:LEDs.cpp      **** void ButtonLED::init(dsy_gpio_pin LED_pin, dsy_gpio_pin switch_pin, SwitchType switchtype, float Sa
  68:LEDs.cpp      **** {
 450              		.loc 1 68 1 is_stmt 1 view -0
 451              		.cfi_startproc
 452              		@ args = 0, pretend = 0, frame = 8
 453              		@ frame_needed = 0, uses_anonymous_args = 0
  69:LEDs.cpp      ****     sw.Init(switch_pin, Samplerate);
 454              		.loc 1 69 5 view .LVU115
  68:LEDs.cpp      ****     sw.Init(switch_pin, Samplerate);
 455              		.loc 1 68 1 is_stmt 0 view .LVU116
 456 0000 70B5     		push	{r4, r5, r6, lr}
 457              		.cfi_def_cfa_offset 16
 458              		.cfi_offset 4, -16
 459              		.cfi_offset 5, -12
 460              		.cfi_offset 6, -8
 461              		.cfi_offset 14, -4
 462 0002 82B0     		sub	sp, sp, #8
 463              		.cfi_def_cfa_offset 24
  70:LEDs.cpp      ****     led.Init(LED_pin,false,150.0f);  //150hz PWM)
 464              		.loc 1 70 13 view .LVU117
 465 0004 00F11406 		add	r6, r0, #20
  68:LEDs.cpp      ****     sw.Init(switch_pin, Samplerate);
 466              		.loc 1 68 1 view .LVU118
 467 0008 0446     		mov	r4, r0
  69:LEDs.cpp      ****     sw.Init(switch_pin, Samplerate);
 468              		.loc 1 69 12 view .LVU119
 469 000a 0430     		adds	r0, r0, #4
ARM GAS  /var/folders/0d/2ntwfkp1791d52chq7d_xwdm0000gn/T//ccL1Y5Xs.s 			page 13


 470              	.LVL33:
  68:LEDs.cpp      ****     sw.Init(switch_pin, Samplerate);
 471              		.loc 1 68 1 view .LVU120
 472 000c ADF80020 		strh	r2, [sp]	@ movhi
 473 0010 1D46     		mov	r5, r3
 474 0012 ADF80410 		strh	r1, [sp, #4]	@ movhi
  69:LEDs.cpp      ****     sw.Init(switch_pin, Samplerate);
 475              		.loc 1 69 12 view .LVU121
 476 0016 0099     		ldr	r1, [sp]
 477 0018 FFF7FEFF 		bl	_ZN5daisy6Switch4InitE12dsy_gpio_pinf
 478              	.LVL34:
 479              		.loc 1 70 5 is_stmt 1 view .LVU122
 480              		.loc 1 70 13 is_stmt 0 view .LVU123
 481 001c 3046     		mov	r0, r6
 482 001e 9FED090A 		vldr.32	s0, .L15
 483 0022 0022     		movs	r2, #0
 484 0024 0199     		ldr	r1, [sp, #4]
 485 0026 FFF7FEFF 		bl	_ZN5daisy3Led4InitE12dsy_gpio_pinbf
 486              	.LVL35:
  71:LEDs.cpp      ****     switchtype_ = switchtype;
 487              		.loc 1 71 5 is_stmt 1 view .LVU124
  72:LEDs.cpp      ****     isON = false; 
 488              		.loc 1 72 10 is_stmt 0 view .LVU125
 489 002a 0023     		movs	r3, #0
  73:LEDs.cpp      ****     led.Set(0.0f);
 490              		.loc 1 73 12 view .LVU126
 491 002c 3046     		mov	r0, r6
 492 002e 9FED060A 		vldr.32	s0, .L15+4
  71:LEDs.cpp      ****     switchtype_ = switchtype;
 493              		.loc 1 71 17 view .LVU127
 494 0032 84F83050 		strb	r5, [r4, #48]
  72:LEDs.cpp      ****     isON = false; 
 495              		.loc 1 72 5 is_stmt 1 view .LVU128
  72:LEDs.cpp      ****     isON = false; 
 496              		.loc 1 72 10 is_stmt 0 view .LVU129
 497 0036 2370     		strb	r3, [r4]
 498              		.loc 1 73 5 is_stmt 1 view .LVU130
  74:LEDs.cpp      **** }
 499              		.loc 1 74 1 is_stmt 0 view .LVU131
 500 0038 02B0     		add	sp, sp, #8
 501              		.cfi_def_cfa_offset 16
 502              		@ sp needed
 503 003a BDE87040 		pop	{r4, r5, r6, lr}
 504              		.cfi_restore 14
 505              		.cfi_restore 6
 506              		.cfi_restore 5
 507              		.cfi_restore 4
 508              		.cfi_def_cfa_offset 0
 509              	.LVL36:
  73:LEDs.cpp      ****     led.Set(0.0f);
 510              		.loc 1 73 12 view .LVU132
 511 003e FFF7FEBF 		b	_ZN5daisy3Led3SetEf
 512              	.LVL37:
 513              	.L16:
  73:LEDs.cpp      ****     led.Set(0.0f);
 514              		.loc 1 73 12 view .LVU133
 515 0042 00BF     		.align	2
ARM GAS  /var/folders/0d/2ntwfkp1791d52chq7d_xwdm0000gn/T//ccL1Y5Xs.s 			page 14


 516              	.L15:
 517 0044 00001643 		.word	1125515264
 518 0048 00000000 		.word	0
 519              		.cfi_endproc
 520              	.LFE3896:
 522              		.section	.text._ZN9ButtonLED6toggleEv,"ax",%progbits
 523              		.align	1
 524              		.p2align 2,,3
 525              		.global	_ZN9ButtonLED6toggleEv
 526              		.syntax unified
 527              		.thumb
 528              		.thumb_func
 529              		.fpu fpv5-d16
 531              	_ZN9ButtonLED6toggleEv:
 532              	.LVL38:
 533              	.LFB3898:
  75:LEDs.cpp      **** 
  76:LEDs.cpp      **** void ButtonLED::update() //check switch and update LED
  77:LEDs.cpp      **** {
  78:LEDs.cpp      **** led.Update();
  79:LEDs.cpp      **** sw.Debounce();
  80:LEDs.cpp      **** switch (switchtype_)
  81:LEDs.cpp      **** {
  82:LEDs.cpp      ****     case Momentary:
  83:LEDs.cpp      ****         if(sw.RisingEdge())
  84:LEDs.cpp      ****         {
  85:LEDs.cpp      ****             toggle();
  86:LEDs.cpp      ****         }
  87:LEDs.cpp      ****     break;
  88:LEDs.cpp      **** 
  89:LEDs.cpp      ****     case Toggle:
  90:LEDs.cpp      ****         if(!sw.Pressed())
  91:LEDs.cpp      ****         {
  92:LEDs.cpp      ****             turnON();
  93:LEDs.cpp      ****         } 
  94:LEDs.cpp      ****         else
  95:LEDs.cpp      ****         {
  96:LEDs.cpp      ****             turnOFF();
  97:LEDs.cpp      ****         }
  98:LEDs.cpp      ****     break;
  99:LEDs.cpp      ****     case Toggle_inverted:
 100:LEDs.cpp      ****         if(sw.Pressed())
 101:LEDs.cpp      ****         {
 102:LEDs.cpp      ****             turnON();
 103:LEDs.cpp      ****         } 
 104:LEDs.cpp      ****         else
 105:LEDs.cpp      ****         {
 106:LEDs.cpp      ****             turnOFF();
 107:LEDs.cpp      ****         }
 108:LEDs.cpp      ****     break;
 109:LEDs.cpp      ****     default:
 110:LEDs.cpp      ****     break;
 111:LEDs.cpp      **** }
 112:LEDs.cpp      **** 
 113:LEDs.cpp      **** }
 114:LEDs.cpp      **** 
 115:LEDs.cpp      **** void ButtonLED::toggle()
ARM GAS  /var/folders/0d/2ntwfkp1791d52chq7d_xwdm0000gn/T//ccL1Y5Xs.s 			page 15


 116:LEDs.cpp      **** {
 534              		.loc 1 116 1 is_stmt 1 view -0
 535              		.cfi_startproc
 536              		@ args = 0, pretend = 0, frame = 0
 537              		@ frame_needed = 0, uses_anonymous_args = 0
 538              		@ link register save eliminated.
 117:LEDs.cpp      ****     isON = !isON;
 539              		.loc 1 117 5 view .LVU135
 540              		.loc 1 117 12 is_stmt 0 view .LVU136
 541 0000 0378     		ldrb	r3, [r0]	@ zero_extendqisi2
 118:LEDs.cpp      ****     if(isON)
 119:LEDs.cpp      ****     {
 120:LEDs.cpp      ****         led.Set(1.0f);
 542              		.loc 1 120 16 view .LVU137
 543 0002 1430     		adds	r0, r0, #20
 544              	.LVL39:
 117:LEDs.cpp      ****     isON = !isON;
 545              		.loc 1 117 12 view .LVU138
 546 0004 83F00103 		eor	r3, r3, #1
 117:LEDs.cpp      ****     isON = !isON;
 547              		.loc 1 117 10 view .LVU139
 548 0008 00F8143C 		strb	r3, [r0, #-20]
 118:LEDs.cpp      ****     if(isON)
 549              		.loc 1 118 5 is_stmt 1 view .LVU140
 550 000c 1BB1     		cbz	r3, .L18
 551              		.loc 1 120 9 view .LVU141
 552              		.loc 1 120 16 is_stmt 0 view .LVU142
 553 000e B7EE000A 		vmov.f32	s0, #1.0e+0
 554 0012 FFF7FEBF 		b	_ZN5daisy3Led3SetEf
 555              	.LVL40:
 556              	.L18:
 121:LEDs.cpp      ****     }
 122:LEDs.cpp      ****     else
 123:LEDs.cpp      ****     {
 124:LEDs.cpp      ****         led.Set(0.0f);
 557              		.loc 1 124 9 is_stmt 1 view .LVU143
 558              		.loc 1 124 16 is_stmt 0 view .LVU144
 559 0016 9FED020A 		vldr.32	s0, .L19
 560 001a FFF7FEBF 		b	_ZN5daisy3Led3SetEf
 561              	.LVL41:
 562              	.L20:
 563 001e 00BF     		.align	2
 564              	.L19:
 565 0020 00000000 		.word	0
 566              		.cfi_endproc
 567              	.LFE3898:
 569              		.section	.text._ZN9ButtonLED6updateEv,"ax",%progbits
 570              		.align	1
 571              		.p2align 2,,3
 572              		.global	_ZN9ButtonLED6updateEv
 573              		.syntax unified
 574              		.thumb
 575              		.thumb_func
 576              		.fpu fpv5-d16
 578              	_ZN9ButtonLED6updateEv:
 579              	.LVL42:
 580              	.LFB3897:
ARM GAS  /var/folders/0d/2ntwfkp1791d52chq7d_xwdm0000gn/T//ccL1Y5Xs.s 			page 16


  77:LEDs.cpp      **** led.Update();
 581              		.loc 1 77 1 is_stmt 1 view -0
 582              		.cfi_startproc
 583              		@ args = 0, pretend = 0, frame = 0
 584              		@ frame_needed = 0, uses_anonymous_args = 0
  78:LEDs.cpp      **** sw.Debounce();
 585              		.loc 1 78 1 view .LVU146
  77:LEDs.cpp      **** led.Update();
 586              		.loc 1 77 1 is_stmt 0 view .LVU147
 587 0000 38B5     		push	{r3, r4, r5, lr}
 588              		.cfi_def_cfa_offset 16
 589              		.cfi_offset 3, -16
 590              		.cfi_offset 4, -12
 591              		.cfi_offset 5, -8
 592              		.cfi_offset 14, -4
  78:LEDs.cpp      **** sw.Debounce();
 593              		.loc 1 78 11 view .LVU148
 594 0002 00F11405 		add	r5, r0, #20
  77:LEDs.cpp      **** led.Update();
 595              		.loc 1 77 1 view .LVU149
 596 0006 0446     		mov	r4, r0
  78:LEDs.cpp      **** sw.Debounce();
 597              		.loc 1 78 11 view .LVU150
 598 0008 2846     		mov	r0, r5
 599              	.LVL43:
  78:LEDs.cpp      **** sw.Debounce();
 600              		.loc 1 78 11 view .LVU151
 601 000a FFF7FEFF 		bl	_ZN5daisy3Led6UpdateEv
 602              	.LVL44:
  79:LEDs.cpp      **** switch (switchtype_)
 603              		.loc 1 79 1 is_stmt 1 view .LVU152
  79:LEDs.cpp      **** switch (switchtype_)
 604              		.loc 1 79 12 is_stmt 0 view .LVU153
 605 000e 201D     		adds	r0, r4, #4
 606 0010 FFF7FEFF 		bl	_ZN5daisy6Switch8DebounceEv
 607              	.LVL45:
  80:LEDs.cpp      **** {
 608              		.loc 1 80 1 is_stmt 1 view .LVU154
  80:LEDs.cpp      **** {
 609              		.loc 1 80 9 is_stmt 0 view .LVU155
 610 0014 94F83030 		ldrb	r3, [r4, #48]	@ zero_extendqisi2
  80:LEDs.cpp      **** {
 611              		.loc 1 80 1 view .LVU156
 612 0018 012B     		cmp	r3, #1
 613 001a 17D0     		beq	.L22
 614 001c 022B     		cmp	r3, #2
 615 001e 09D0     		beq	.L23
 616 0020 03B1     		cbz	r3, .L28
 617              	.L21:
 113:LEDs.cpp      **** 
 618              		.loc 1 113 1 view .LVU157
 619 0022 38BD     		pop	{r3, r4, r5, pc}
 620              	.LVL46:
 621              	.L28:
  82:LEDs.cpp      ****         if(sw.RisingEdge())
 622              		.loc 1 82 5 is_stmt 1 view .LVU158
  83:LEDs.cpp      ****         {
ARM GAS  /var/folders/0d/2ntwfkp1791d52chq7d_xwdm0000gn/T//ccL1Y5Xs.s 			page 17


 623              		.loc 1 83 9 view .LVU159
 624              		.file 3 "../libdaisy/src/hid/switch.h"
   1:../libdaisy/src/hid/switch.h **** #pragma once
   2:../libdaisy/src/hid/switch.h **** #ifndef DSY_SWITCH_H
   3:../libdaisy/src/hid/switch.h **** #define DSY_SWITCH_H
   4:../libdaisy/src/hid/switch.h **** #include "daisy_core.h"
   5:../libdaisy/src/hid/switch.h **** #include "per/gpio.h"
   6:../libdaisy/src/hid/switch.h **** 
   7:../libdaisy/src/hid/switch.h **** namespace daisy
   8:../libdaisy/src/hid/switch.h **** {
   9:../libdaisy/src/hid/switch.h **** /** 
  10:../libdaisy/src/hid/switch.h ****     Generic Class for handling momentary/latching switches \n 
  11:../libdaisy/src/hid/switch.h ****     Inspired/influenced by Mutable Instruments (pichenettes) Switch classes
  12:../libdaisy/src/hid/switch.h ****     @author Stephen Hensley
  13:../libdaisy/src/hid/switch.h ****     @date December 2019
  14:../libdaisy/src/hid/switch.h ****     @ingroup controls
  15:../libdaisy/src/hid/switch.h **** */
  16:../libdaisy/src/hid/switch.h **** class Switch
  17:../libdaisy/src/hid/switch.h **** {
  18:../libdaisy/src/hid/switch.h ****   public:
  19:../libdaisy/src/hid/switch.h ****     /** Specifies the expected behavior of the switch */
  20:../libdaisy/src/hid/switch.h ****     enum Type
  21:../libdaisy/src/hid/switch.h ****     {
  22:../libdaisy/src/hid/switch.h ****         TYPE_TOGGLE,    /**< & */
  23:../libdaisy/src/hid/switch.h ****         TYPE_MOMENTARY, /**< & */
  24:../libdaisy/src/hid/switch.h ****     };
  25:../libdaisy/src/hid/switch.h ****     /** Specifies whether the pressed is HIGH or LOW. */
  26:../libdaisy/src/hid/switch.h ****     enum Polarity
  27:../libdaisy/src/hid/switch.h ****     {
  28:../libdaisy/src/hid/switch.h ****         POLARITY_NORMAL,   /**< & */
  29:../libdaisy/src/hid/switch.h ****         POLARITY_INVERTED, /**< & */
  30:../libdaisy/src/hid/switch.h ****     };
  31:../libdaisy/src/hid/switch.h **** 
  32:../libdaisy/src/hid/switch.h ****     /** Specifies whether to use built-in Pull Up/Down resistors to hold button at a given state wh
  33:../libdaisy/src/hid/switch.h ****     enum Pull
  34:../libdaisy/src/hid/switch.h ****     {
  35:../libdaisy/src/hid/switch.h ****         PULL_UP,   /**< & */
  36:../libdaisy/src/hid/switch.h ****         PULL_DOWN, /**< & */
  37:../libdaisy/src/hid/switch.h ****         PULL_NONE, /**< & */
  38:../libdaisy/src/hid/switch.h ****     };
  39:../libdaisy/src/hid/switch.h **** 
  40:../libdaisy/src/hid/switch.h ****     Switch() {}
  41:../libdaisy/src/hid/switch.h ****     ~Switch() {}
  42:../libdaisy/src/hid/switch.h **** 
  43:../libdaisy/src/hid/switch.h ****     /** 
  44:../libdaisy/src/hid/switch.h ****     Initializes the switch object with a given port/pin combo.
  45:../libdaisy/src/hid/switch.h ****     \param pin port/pin object to tell the switch which hardware pin to use.
  46:../libdaisy/src/hid/switch.h ****     \param update_rate the rate at which the Debounce() function will be called. (used for timing).
  47:../libdaisy/src/hid/switch.h ****     \param t switch type -- Default: TYPE_MOMENTARY
  48:../libdaisy/src/hid/switch.h ****     \param pol switch polarity -- Default: POLARITY_INVERTED
  49:../libdaisy/src/hid/switch.h ****     \param pu switch pull up/down -- Default: PULL_UP
  50:../libdaisy/src/hid/switch.h ****     */
  51:../libdaisy/src/hid/switch.h ****     void
  52:../libdaisy/src/hid/switch.h ****     Init(dsy_gpio_pin pin, float update_rate, Type t, Polarity pol, Pull pu);
  53:../libdaisy/src/hid/switch.h **** 
  54:../libdaisy/src/hid/switch.h ****     /**
  55:../libdaisy/src/hid/switch.h ****        Simplified Init.
ARM GAS  /var/folders/0d/2ntwfkp1791d52chq7d_xwdm0000gn/T//ccL1Y5Xs.s 			page 18


  56:../libdaisy/src/hid/switch.h ****        \param pin port/pin object to tell the switch which hardware pin to use.
  57:../libdaisy/src/hid/switch.h ****        \param update_rate the rate at which the Debounce() function will be called. (used for timin
  58:../libdaisy/src/hid/switch.h ****     */
  59:../libdaisy/src/hid/switch.h ****     void Init(dsy_gpio_pin pin, float update_rate);
  60:../libdaisy/src/hid/switch.h **** 
  61:../libdaisy/src/hid/switch.h ****     /** 
  62:../libdaisy/src/hid/switch.h ****     Called at update_rate to debounce and handle timing for the switch.
  63:../libdaisy/src/hid/switch.h ****     In order for events not to be missed, its important that the Edge/Pressed checks
  64:../libdaisy/src/hid/switch.h ****     be made at the same rate as the debounce function is being called.
  65:../libdaisy/src/hid/switch.h ****     */
  66:../libdaisy/src/hid/switch.h ****     void Debounce();
  67:../libdaisy/src/hid/switch.h **** 
  68:../libdaisy/src/hid/switch.h ****     /** \return true if a button was just pressed. */
  69:../libdaisy/src/hid/switch.h ****     inline bool RisingEdge() const { return state_ == 0x7f; }
 625              		.loc 3 69 38 view .LVU160
  83:LEDs.cpp      ****         {
 626              		.loc 1 83 9 is_stmt 0 view .LVU161
 627 0024 637A     		ldrb	r3, [r4, #9]	@ zero_extendqisi2
 628 0026 7F2B     		cmp	r3, #127
 629 0028 FBD1     		bne	.L21
  85:LEDs.cpp      ****         }
 630              		.loc 1 85 13 is_stmt 1 view .LVU162
  85:LEDs.cpp      ****         }
 631              		.loc 1 85 19 is_stmt 0 view .LVU163
 632 002a 2046     		mov	r0, r4
 113:LEDs.cpp      **** 
 633              		.loc 1 113 1 view .LVU164
 634 002c BDE83840 		pop	{r3, r4, r5, lr}
 635              		.cfi_remember_state
 636              		.cfi_restore 14
 637              		.cfi_restore 5
 638              		.cfi_restore 4
 639              		.cfi_restore 3
 640              		.cfi_def_cfa_offset 0
 641              	.LVL47:
  85:LEDs.cpp      ****         }
 642              		.loc 1 85 19 view .LVU165
 643 0030 FFF7FEBF 		b	_ZN9ButtonLED6toggleEv
 644              	.LVL48:
 645              	.L23:
 646              		.cfi_restore_state
  99:LEDs.cpp      ****         if(sw.Pressed())
 647              		.loc 1 99 5 is_stmt 1 view .LVU166
 100:LEDs.cpp      ****         {
 648              		.loc 1 100 9 view .LVU167
  70:../libdaisy/src/hid/switch.h **** 
  71:../libdaisy/src/hid/switch.h ****     /** \return true if the button was just released */
  72:../libdaisy/src/hid/switch.h ****     inline bool FallingEdge() const { return state_ == 0x80; }
  73:../libdaisy/src/hid/switch.h **** 
  74:../libdaisy/src/hid/switch.h ****     /** \return true if the button is held down (or if the toggle is on) */
  75:../libdaisy/src/hid/switch.h ****     inline bool Pressed() const { return state_ == 0xff; }
 649              		.loc 3 75 35 view .LVU168
 100:LEDs.cpp      ****         {
 650              		.loc 1 100 9 is_stmt 0 view .LVU169
 651 0034 637A     		ldrb	r3, [r4, #9]	@ zero_extendqisi2
 652 0036 FF2B     		cmp	r3, #255
 653 0038 13D0     		beq	.L29
ARM GAS  /var/folders/0d/2ntwfkp1791d52chq7d_xwdm0000gn/T//ccL1Y5Xs.s 			page 19


 654              	.LVL49:
 655              	.L26:
 106:LEDs.cpp      ****         }
 656              		.loc 1 106 13 is_stmt 1 view .LVU170
 657              	.LBB66:
 658              	.LBI66:
 125:LEDs.cpp      ****     } 
 126:LEDs.cpp      **** }
 127:LEDs.cpp      **** 
 128:LEDs.cpp      **** void ButtonLED::turnON()
 129:LEDs.cpp      **** {
 130:LEDs.cpp      ****     isON = true;
 131:LEDs.cpp      ****     led.Set(1.0f);
 132:LEDs.cpp      **** }
 133:LEDs.cpp      **** 
 134:LEDs.cpp      **** void ButtonLED::turnOFF()
 659              		.loc 1 134 6 view .LVU171
 660              	.LBB67:
 135:LEDs.cpp      **** {
 136:LEDs.cpp      ****     isON = false;
 661              		.loc 1 136 5 view .LVU172
 662              		.loc 1 136 10 is_stmt 0 view .LVU173
 663 003a 0023     		movs	r3, #0
 137:LEDs.cpp      ****     led.Set(0.0f);
 664              		.loc 1 137 12 view .LVU174
 665 003c 2846     		mov	r0, r5
 666 003e 9FED0D0A 		vldr.32	s0, .L30
 136:LEDs.cpp      ****     led.Set(0.0f);
 667              		.loc 1 136 10 view .LVU175
 668 0042 2370     		strb	r3, [r4]
 669              		.loc 1 137 5 is_stmt 1 view .LVU176
 670              	.LBE67:
 671              	.LBE66:
 113:LEDs.cpp      **** 
 672              		.loc 1 113 1 is_stmt 0 view .LVU177
 673 0044 BDE83840 		pop	{r3, r4, r5, lr}
 674              		.cfi_remember_state
 675              		.cfi_restore 14
 676              		.cfi_restore 5
 677              		.cfi_restore 4
 678              		.cfi_restore 3
 679              		.cfi_def_cfa_offset 0
 680              	.LVL50:
 681              	.LBB69:
 682              	.LBB68:
 683              		.loc 1 137 12 view .LVU178
 684 0048 FFF7FEBF 		b	_ZN5daisy3Led3SetEf
 685              	.LVL51:
 686              	.L22:
 687              		.cfi_restore_state
 688              		.loc 1 137 12 view .LVU179
 689              	.LBE68:
 690              	.LBE69:
  89:LEDs.cpp      ****         if(!sw.Pressed())
 691              		.loc 1 89 5 is_stmt 1 view .LVU180
  90:LEDs.cpp      ****         {
 692              		.loc 1 90 9 view .LVU181
ARM GAS  /var/folders/0d/2ntwfkp1791d52chq7d_xwdm0000gn/T//ccL1Y5Xs.s 			page 20


 693              		.loc 3 75 35 view .LVU182
  90:LEDs.cpp      ****         {
 694              		.loc 1 90 9 is_stmt 0 view .LVU183
 695 004c 627A     		ldrb	r2, [r4, #9]	@ zero_extendqisi2
 696 004e FF2A     		cmp	r2, #255
 697 0050 F3D0     		beq	.L26
  92:LEDs.cpp      ****         } 
 698              		.loc 1 92 13 is_stmt 1 view .LVU184
 699              	.LVL52:
 700              	.LBB70:
 701              	.LBI70:
 128:LEDs.cpp      **** {
 702              		.loc 1 128 6 view .LVU185
 703              	.LBB71:
 130:LEDs.cpp      ****     led.Set(1.0f);
 704              		.loc 1 130 5 view .LVU186
 131:LEDs.cpp      **** }
 705              		.loc 1 131 12 is_stmt 0 view .LVU187
 706 0052 2846     		mov	r0, r5
 130:LEDs.cpp      ****     led.Set(1.0f);
 707              		.loc 1 130 10 view .LVU188
 708 0054 2370     		strb	r3, [r4]
 131:LEDs.cpp      **** }
 709              		.loc 1 131 5 is_stmt 1 view .LVU189
 131:LEDs.cpp      **** }
 710              		.loc 1 131 12 is_stmt 0 view .LVU190
 711 0056 B7EE000A 		vmov.f32	s0, #1.0e+0
 712              	.LBE71:
 713              	.LBE70:
 113:LEDs.cpp      **** 
 714              		.loc 1 113 1 view .LVU191
 715 005a BDE83840 		pop	{r3, r4, r5, lr}
 716              		.cfi_remember_state
 717              		.cfi_restore 14
 718              		.cfi_restore 5
 719              		.cfi_restore 4
 720              		.cfi_restore 3
 721              		.cfi_def_cfa_offset 0
 722              	.LVL53:
 723              	.LBB73:
 724              	.LBB72:
 131:LEDs.cpp      **** }
 725              		.loc 1 131 12 view .LVU192
 726 005e FFF7FEBF 		b	_ZN5daisy3Led3SetEf
 727              	.LVL54:
 728              	.L29:
 729              		.cfi_restore_state
 131:LEDs.cpp      **** }
 730              		.loc 1 131 12 view .LVU193
 731              	.LBE72:
 732              	.LBE73:
 102:LEDs.cpp      ****         } 
 733              		.loc 1 102 13 is_stmt 1 view .LVU194
 734              	.LBB74:
 735              	.LBI74:
 128:LEDs.cpp      **** {
 736              		.loc 1 128 6 view .LVU195
ARM GAS  /var/folders/0d/2ntwfkp1791d52chq7d_xwdm0000gn/T//ccL1Y5Xs.s 			page 21


 737              	.LBB75:
 130:LEDs.cpp      ****     led.Set(1.0f);
 738              		.loc 1 130 5 view .LVU196
 130:LEDs.cpp      ****     led.Set(1.0f);
 739              		.loc 1 130 10 is_stmt 0 view .LVU197
 740 0062 0123     		movs	r3, #1
 131:LEDs.cpp      **** }
 741              		.loc 1 131 12 view .LVU198
 742 0064 2846     		mov	r0, r5
 743 0066 B7EE000A 		vmov.f32	s0, #1.0e+0
 130:LEDs.cpp      ****     led.Set(1.0f);
 744              		.loc 1 130 10 view .LVU199
 745 006a 2370     		strb	r3, [r4]
 131:LEDs.cpp      **** }
 746              		.loc 1 131 5 is_stmt 1 view .LVU200
 747              	.LBE75:
 748              	.LBE74:
 113:LEDs.cpp      **** 
 749              		.loc 1 113 1 is_stmt 0 view .LVU201
 750 006c BDE83840 		pop	{r3, r4, r5, lr}
 751              		.cfi_restore 14
 752              		.cfi_restore 5
 753              		.cfi_restore 4
 754              		.cfi_restore 3
 755              		.cfi_def_cfa_offset 0
 756              	.LVL55:
 757              	.LBB77:
 758              	.LBB76:
 131:LEDs.cpp      **** }
 759              		.loc 1 131 12 view .LVU202
 760 0070 FFF7FEBF 		b	_ZN5daisy3Led3SetEf
 761              	.LVL56:
 762              	.L31:
 131:LEDs.cpp      **** }
 763              		.loc 1 131 12 view .LVU203
 764              		.align	2
 765              	.L30:
 766 0074 00000000 		.word	0
 767              	.LBE76:
 768              	.LBE77:
 769              		.cfi_endproc
 770              	.LFE3897:
 772              		.section	.text._ZN9ButtonLED6turnONEv,"ax",%progbits
 773              		.align	1
 774              		.p2align 2,,3
 775              		.global	_ZN9ButtonLED6turnONEv
 776              		.syntax unified
 777              		.thumb
 778              		.thumb_func
 779              		.fpu fpv5-d16
 781              	_ZN9ButtonLED6turnONEv:
 782              	.LVL57:
 783              	.LFB3899:
 129:LEDs.cpp      ****     isON = true;
 784              		.loc 1 129 1 is_stmt 1 view -0
 785              		.cfi_startproc
 786              		@ args = 0, pretend = 0, frame = 0
ARM GAS  /var/folders/0d/2ntwfkp1791d52chq7d_xwdm0000gn/T//ccL1Y5Xs.s 			page 22


 787              		@ frame_needed = 0, uses_anonymous_args = 0
 788              		@ link register save eliminated.
 130:LEDs.cpp      ****     led.Set(1.0f);
 789              		.loc 1 130 5 view .LVU205
 130:LEDs.cpp      ****     led.Set(1.0f);
 790              		.loc 1 130 10 is_stmt 0 view .LVU206
 791 0000 0123     		movs	r3, #1
 131:LEDs.cpp      **** }
 792              		.loc 1 131 12 view .LVU207
 793 0002 B7EE000A 		vmov.f32	s0, #1.0e+0
 130:LEDs.cpp      ****     led.Set(1.0f);
 794              		.loc 1 130 10 view .LVU208
 795 0006 00F8143B 		strb	r3, [r0], #20
 796              	.LVL58:
 131:LEDs.cpp      **** }
 797              		.loc 1 131 5 is_stmt 1 view .LVU209
 131:LEDs.cpp      **** }
 798              		.loc 1 131 12 is_stmt 0 view .LVU210
 799 000a FFF7FEBF 		b	_ZN5daisy3Led3SetEf
 800              	.LVL59:
 131:LEDs.cpp      **** }
 801              		.loc 1 131 12 view .LVU211
 802              		.cfi_endproc
 803              	.LFE3899:
 805 000e 00BF     		.section	.text._ZN9ButtonLED7turnOFFEv,"ax",%progbits
 806              		.align	1
 807              		.p2align 2,,3
 808              		.global	_ZN9ButtonLED7turnOFFEv
 809              		.syntax unified
 810              		.thumb
 811              		.thumb_func
 812              		.fpu fpv5-d16
 814              	_ZN9ButtonLED7turnOFFEv:
 815              	.LVL60:
 816              	.LFB3900:
 135:LEDs.cpp      ****     isON = false;
 817              		.loc 1 135 1 is_stmt 1 view -0
 818              		.cfi_startproc
 819              		@ args = 0, pretend = 0, frame = 0
 820              		@ frame_needed = 0, uses_anonymous_args = 0
 821              		@ link register save eliminated.
 136:LEDs.cpp      ****     led.Set(0.0f);
 822              		.loc 1 136 5 view .LVU213
 136:LEDs.cpp      ****     led.Set(0.0f);
 823              		.loc 1 136 10 is_stmt 0 view .LVU214
 824 0000 0023     		movs	r3, #0
 825              		.loc 1 137 12 view .LVU215
 826 0002 9FED030A 		vldr.32	s0, .L34
 136:LEDs.cpp      ****     led.Set(0.0f);
 827              		.loc 1 136 10 view .LVU216
 828 0006 00F8143B 		strb	r3, [r0], #20
 829              	.LVL61:
 830              		.loc 1 137 5 is_stmt 1 view .LVU217
 831              		.loc 1 137 12 is_stmt 0 view .LVU218
 832 000a FFF7FEBF 		b	_ZN5daisy3Led3SetEf
 833              	.LVL62:
 834              	.L35:
ARM GAS  /var/folders/0d/2ntwfkp1791d52chq7d_xwdm0000gn/T//ccL1Y5Xs.s 			page 23


 835              		.loc 1 137 12 view .LVU219
 836 000e 00BF     		.align	2
 837              	.L34:
 838 0010 00000000 		.word	0
 839              		.cfi_endproc
 840              	.LFE3900:
 842              		.section	.text._ZN9ButtonLED8getStateEv,"ax",%progbits
 843              		.align	1
 844              		.p2align 2,,3
 845              		.global	_ZN9ButtonLED8getStateEv
 846              		.syntax unified
 847              		.thumb
 848              		.thumb_func
 849              		.fpu fpv5-d16
 851              	_ZN9ButtonLED8getStateEv:
 852              	.LVL63:
 853              	.LFB3901:
 138:LEDs.cpp      **** }
 139:LEDs.cpp      **** 
 140:LEDs.cpp      **** bool ButtonLED::getState() //getter function, so nothing else can change isON
 141:LEDs.cpp      **** {
 854              		.loc 1 141 1 is_stmt 1 view -0
 855              		.cfi_startproc
 856              		@ args = 0, pretend = 0, frame = 0
 857              		@ frame_needed = 0, uses_anonymous_args = 0
 858              		@ link register save eliminated.
 142:LEDs.cpp      ****     return isON;
 859              		.loc 1 142 5 view .LVU221
 143:LEDs.cpp      **** }
 860              		.loc 1 143 1 is_stmt 0 view .LVU222
 861 0000 0078     		ldrb	r0, [r0]	@ zero_extendqisi2
 862              	.LVL64:
 863              		.loc 1 143 1 view .LVU223
 864 0002 7047     		bx	lr
 865              		.cfi_endproc
 866              	.LFE3901:
 868              		.section	.text._ZN9ButtonLED10RisingEdgeEv,"ax",%progbits
 869              		.align	1
 870              		.p2align 2,,3
 871              		.global	_ZN9ButtonLED10RisingEdgeEv
 872              		.syntax unified
 873              		.thumb
 874              		.thumb_func
 875              		.fpu fpv5-d16
 877              	_ZN9ButtonLED10RisingEdgeEv:
 878              	.LVL65:
 879              	.LFB3902:
 144:LEDs.cpp      **** 
 145:LEDs.cpp      **** bool ButtonLED::RisingEdge()    //access switch rising and falling edges
 146:LEDs.cpp      **** {
 880              		.loc 1 146 1 is_stmt 1 view -0
 881              		.cfi_startproc
 882              		@ args = 0, pretend = 0, frame = 0
 883              		@ frame_needed = 0, uses_anonymous_args = 0
 884              		@ link register save eliminated.
 147:LEDs.cpp      ****     return sw.RisingEdge();
 885              		.loc 1 147 5 view .LVU225
ARM GAS  /var/folders/0d/2ntwfkp1791d52chq7d_xwdm0000gn/T//ccL1Y5Xs.s 			page 24


 886              	.LBB78:
 887              	.LBI78:
  69:../libdaisy/src/hid/switch.h **** 
 888              		.loc 3 69 17 view .LVU226
 889              	.LBB79:
  69:../libdaisy/src/hid/switch.h **** 
 890              		.loc 3 69 38 view .LVU227
  69:../libdaisy/src/hid/switch.h **** 
 891              		.loc 3 69 55 is_stmt 0 view .LVU228
 892 0000 407A     		ldrb	r0, [r0, #9]	@ zero_extendqisi2
 893              	.LVL66:
  69:../libdaisy/src/hid/switch.h **** 
 894              		.loc 3 69 55 view .LVU229
 895              	.LBE79:
 896              	.LBE78:
 148:LEDs.cpp      **** }
 897              		.loc 1 148 1 view .LVU230
 898 0002 A0F17F00 		sub	r0, #127
 899 0006 B0FA80F0 		clz	r0, r0
 900 000a 4009     		lsrs	r0, r0, #5
 901 000c 7047     		bx	lr
 902              		.cfi_endproc
 903              	.LFE3902:
 905              		.section	.text._ZN9ButtonLED11FallingEdgeEv,"ax",%progbits
 906              		.align	1
 907              		.p2align 2,,3
 908              		.global	_ZN9ButtonLED11FallingEdgeEv
 909              		.syntax unified
 910              		.thumb
 911              		.thumb_func
 912              		.fpu fpv5-d16
 914              	_ZN9ButtonLED11FallingEdgeEv:
 915              	.LVL67:
 916              	.LFB3903:
 149:LEDs.cpp      **** 
 150:LEDs.cpp      **** bool ButtonLED::FallingEdge()
 151:LEDs.cpp      **** {
 917              		.loc 1 151 1 is_stmt 1 view -0
 918              		.cfi_startproc
 919              		@ args = 0, pretend = 0, frame = 0
 920              		@ frame_needed = 0, uses_anonymous_args = 0
 921              		@ link register save eliminated.
 152:LEDs.cpp      ****     return sw.FallingEdge();
 922              		.loc 1 152 5 view .LVU232
 923              	.LBB80:
 924              	.LBI80:
  72:../libdaisy/src/hid/switch.h **** 
 925              		.loc 3 72 17 view .LVU233
 926              	.LBB81:
  72:../libdaisy/src/hid/switch.h **** 
 927              		.loc 3 72 39 view .LVU234
  72:../libdaisy/src/hid/switch.h **** 
 928              		.loc 3 72 56 is_stmt 0 view .LVU235
 929 0000 407A     		ldrb	r0, [r0, #9]	@ zero_extendqisi2
 930              	.LVL68:
  72:../libdaisy/src/hid/switch.h **** 
 931              		.loc 3 72 56 view .LVU236
ARM GAS  /var/folders/0d/2ntwfkp1791d52chq7d_xwdm0000gn/T//ccL1Y5Xs.s 			page 25


 932              	.LBE81:
 933              	.LBE80:
 153:LEDs.cpp      **** }
 934              		.loc 1 153 1 view .LVU237
 935 0002 A0F18000 		sub	r0, #128
 936 0006 B0FA80F0 		clz	r0, r0
 937 000a 4009     		lsrs	r0, r0, #5
 938 000c 7047     		bx	lr
 939              		.cfi_endproc
 940              	.LFE3903:
 942              		.section	.text._ZN9ButtonLED7LED_setEf,"ax",%progbits
 943              		.align	1
 944              		.p2align 2,,3
 945              		.global	_ZN9ButtonLED7LED_setEf
 946              		.syntax unified
 947              		.thumb
 948              		.thumb_func
 949              		.fpu fpv5-d16
 951              	_ZN9ButtonLED7LED_setEf:
 952              	.LVL69:
 953              	.LFB3904:
 154:LEDs.cpp      **** 
 155:LEDs.cpp      **** void ButtonLED::LED_set(float brightness)
 156:LEDs.cpp      **** {
 954              		.loc 1 156 1 is_stmt 1 view -0
 955              		.cfi_startproc
 956              		@ args = 0, pretend = 0, frame = 0
 957              		@ frame_needed = 0, uses_anonymous_args = 0
 958              		@ link register save eliminated.
 157:LEDs.cpp      ****     led.Set(brightness);
 959              		.loc 1 157 5 view .LVU239
 960              		.loc 1 157 12 is_stmt 0 view .LVU240
 961 0000 1430     		adds	r0, r0, #20
 962              	.LVL70:
 963              		.loc 1 157 12 view .LVU241
 964 0002 FFF7FEBF 		b	_ZN5daisy3Led3SetEf
 965              	.LVL71:
 966              		.loc 1 157 12 view .LVU242
 967              		.cfi_endproc
 968              	.LFE3904:
 970 0006 00BF     		.text
 971              	.Letext0:
 972              		.file 4 "/usr/local/Cellar/arm-none-eabi-gcc/9-2019-q4-major/gcc/arm-none-eabi/include/machine/_de
 973              		.file 5 "/usr/local/Cellar/arm-none-eabi-gcc/9-2019-q4-major/gcc/arm-none-eabi/include/sys/_stdint
 974              		.file 6 "/usr/local/Cellar/arm-none-eabi-gcc/9-2019-q4-major/gcc/arm-none-eabi/include/stdint.h"
 975              		.file 7 "../libdaisy/Drivers/CMSIS/Include/core_cm7.h"
 976              		.file 8 "../libdaisy/Drivers/CMSIS/Device/ST/STM32H7xx/Include/system_stm32h7xx.h"
 977              		.file 9 "/usr/local/Cellar/arm-none-eabi-gcc/9-2019-q4-major/gcc/lib/gcc/arm-none-eabi/9.2.1/inclu
 978              		.file 10 "/usr/local/Cellar/arm-none-eabi-gcc/9-2019-q4-major/gcc/arm-none-eabi/include/c++/9.2.1/
 979              		.file 11 "/usr/local/Cellar/arm-none-eabi-gcc/9-2019-q4-major/gcc/arm-none-eabi/include/c++/9.2.1/
 980              		.file 12 "/usr/local/Cellar/arm-none-eabi-gcc/9-2019-q4-major/gcc/arm-none-eabi/include/c++/9.2.1/
 981              		.file 13 "/usr/local/Cellar/arm-none-eabi-gcc/9-2019-q4-major/gcc/arm-none-eabi/include/c++/9.2.1/
 982              		.file 14 "/usr/local/Cellar/arm-none-eabi-gcc/9-2019-q4-major/gcc/arm-none-eabi/include/c++/9.2.1/
 983              		.file 15 "/usr/local/Cellar/arm-none-eabi-gcc/9-2019-q4-major/gcc/arm-none-eabi/include/c++/9.2.1/
 984              		.file 16 "/usr/local/Cellar/arm-none-eabi-gcc/9-2019-q4-major/gcc/arm-none-eabi/include/c++/9.2.1/
 985              		.file 17 "/usr/local/Cellar/arm-none-eabi-gcc/9-2019-q4-major/gcc/arm-none-eabi/include/c++/9.2.1/
 986              		.file 18 "/usr/local/Cellar/arm-none-eabi-gcc/9-2019-q4-major/gcc/arm-none-eabi/include/c++/9.2.1/
ARM GAS  /var/folders/0d/2ntwfkp1791d52chq7d_xwdm0000gn/T//ccL1Y5Xs.s 			page 26


 987              		.file 19 "/usr/local/Cellar/arm-none-eabi-gcc/9-2019-q4-major/gcc/arm-none-eabi/include/c++/9.2.1/
 988              		.file 20 "/usr/local/Cellar/arm-none-eabi-gcc/9-2019-q4-major/gcc/arm-none-eabi/include/c++/9.2.1/
 989              		.file 21 "/usr/local/Cellar/arm-none-eabi-gcc/9-2019-q4-major/gcc/arm-none-eabi/include/c++/9.2.1/
 990              		.file 22 "/usr/local/Cellar/arm-none-eabi-gcc/9-2019-q4-major/gcc/arm-none-eabi/include/c++/9.2.1/
 991              		.file 23 "/usr/local/Cellar/arm-none-eabi-gcc/9-2019-q4-major/gcc/arm-none-eabi/include/c++/9.2.1/
 992              		.file 24 "/usr/local/Cellar/arm-none-eabi-gcc/9-2019-q4-major/gcc/arm-none-eabi/include/c++/9.2.1/
 993              		.file 25 "/usr/local/Cellar/arm-none-eabi-gcc/9-2019-q4-major/gcc/arm-none-eabi/include/c++/9.2.1/
 994              		.file 26 "/usr/local/Cellar/arm-none-eabi-gcc/9-2019-q4-major/gcc/arm-none-eabi/include/c++/9.2.1/
 995              		.file 27 "/usr/local/Cellar/arm-none-eabi-gcc/9-2019-q4-major/gcc/arm-none-eabi/include/c++/9.2.1/
 996              		.file 28 "/usr/local/Cellar/arm-none-eabi-gcc/9-2019-q4-major/gcc/arm-none-eabi/include/c++/9.2.1/
 997              		.file 29 "/usr/local/Cellar/arm-none-eabi-gcc/9-2019-q4-major/gcc/arm-none-eabi/include/c++/9.2.1/
 998              		.file 30 "/usr/local/Cellar/arm-none-eabi-gcc/9-2019-q4-major/gcc/arm-none-eabi/include/c++/9.2.1/
 999              		.file 31 "/usr/local/Cellar/arm-none-eabi-gcc/9-2019-q4-major/gcc/arm-none-eabi/include/c++/9.2.1/
 1000              		.file 32 "/usr/local/Cellar/arm-none-eabi-gcc/9-2019-q4-major/gcc/arm-none-eabi/include/sys/lock.h
 1001              		.file 33 "/usr/local/Cellar/arm-none-eabi-gcc/9-2019-q4-major/gcc/arm-none-eabi/include/sys/_types
 1002              		.file 34 "/usr/local/Cellar/arm-none-eabi-gcc/9-2019-q4-major/gcc/arm-none-eabi/include/sys/reent.
 1003              		.file 35 "/usr/local/Cellar/arm-none-eabi-gcc/9-2019-q4-major/gcc/arm-none-eabi/include/math.h"
 1004              		.file 36 "/usr/local/Cellar/arm-none-eabi-gcc/9-2019-q4-major/gcc/arm-none-eabi/include/stdlib.h"
 1005              		.file 37 "/usr/local/Cellar/arm-none-eabi-gcc/9-2019-q4-major/gcc/arm-none-eabi/include/c++/9.2.1/
 1006              		.file 38 "../libdaisy/Drivers/STM32H7xx_HAL_Driver/Inc/stm32h7xx_hal_def.h"
 1007              		.file 39 "../libdaisy/Drivers/STM32H7xx_HAL_Driver/Inc/stm32h7xx_hal_flash.h"
 1008              		.file 40 "../DaisySP/Source/Control/adenv.h"
 1009              		.file 41 "../DaisySP/Source/Utility/dsp.h"
 1010              		.file 42 "/usr/local/Cellar/arm-none-eabi-gcc/9-2019-q4-major/gcc/lib/gcc/arm-none-eabi/9.2.1/incl
 1011              		.file 43 "<built-in>"
 1012              		.file 44 "/usr/local/Cellar/arm-none-eabi-gcc/9-2019-q4-major/gcc/arm-none-eabi/include/wchar.h"
 1013              		.file 45 "/usr/local/Cellar/arm-none-eabi-gcc/9-2019-q4-major/gcc/arm-none-eabi/include/locale.h"
 1014              		.file 46 "/usr/local/Cellar/arm-none-eabi-gcc/9-2019-q4-major/gcc/arm-none-eabi/include/ctype.h"
 1015              		.file 47 "/usr/local/Cellar/arm-none-eabi-gcc/9-2019-q4-major/gcc/arm-none-eabi/include/stdio.h"
 1016              		.file 48 "/usr/local/Cellar/arm-none-eabi-gcc/9-2019-q4-major/gcc/arm-none-eabi/include/sys/errno.
 1017              		.file 49 "/usr/local/Cellar/arm-none-eabi-gcc/9-2019-q4-major/gcc/arm-none-eabi/include/c++/9.2.1/
 1018              		.file 50 "/usr/local/Cellar/arm-none-eabi-gcc/9-2019-q4-major/gcc/arm-none-eabi/include/string.h"
 1019              		.file 51 "../libdaisy/src/daisy_core.h"
 1020              		.file 52 "../libdaisy/src/per/tim.h"
 1021              		.file 53 "../libdaisy/src/util/wav_format.h"
 1022              		.file 54 "../libdaisy/src/hid/led.h"
 1023              		.file 55 "../libdaisy/src/per/gpio.h"
 1024              		.file 56 "/usr/local/Cellar/arm-none-eabi-gcc/9-2019-q4-major/gcc/arm-none-eabi/include/sys/unistd
 1025              		.file 57 "../libdaisy/src/util/oled_fonts.h"
 1026              		.file 58 "../libdaisy/Middlewares/Third_Party/FatFs/src/integer.h"
 1027              		.file 59 "../libdaisy/Middlewares/Third_Party/FatFs/src/ff.h"
 1028              		.file 60 "../libdaisy/Middlewares/Third_Party/FatFs/src/diskio.h"
 1029              		.file 61 "../libdaisy/Middlewares/Third_Party/FatFs/src/ff_gen_drv.h"
 1030              		.file 62 "../libdaisy/src/util/sd_diskio.h"
 1031              		.file 63 "../libdaisy/src/sys/fatfs.h"
 1032              		.file 64 "LEDs.h"
 1033              		.file 65 "../libdaisy/src/dev/sr_595.h"
ARM GAS  /var/folders/0d/2ntwfkp1791d52chq7d_xwdm0000gn/T//ccL1Y5Xs.s 			page 27

