ARM GAS  /var/folders/0d/2ntwfkp1791d52chq7d_xwdm0000gn/T//ccFEdNid.s 			page 1


   1              		.cpu cortex-m7
   2              		.eabi_attribute 28, 1
   3              		.eabi_attribute 20, 1
   4              		.eabi_attribute 21, 1
   5              		.eabi_attribute 23, 3
   6              		.eabi_attribute 24, 1
   7              		.eabi_attribute 25, 1
   8              		.eabi_attribute 26, 1
   9              		.eabi_attribute 30, 2
  10              		.eabi_attribute 34, 1
  11              		.eabi_attribute 18, 4
  12              		.file	"taptempo.cpp"
  13              		.text
  14              	.Ltext0:
  15              		.cfi_sections	.debug_frame
  16              		.section	.text._ZN8Taptempo4initEiif,"ax",%progbits
  17              		.align	1
  18              		.p2align 2,,3
  19              		.global	_ZN8Taptempo4initEiif
  20              		.arch armv7e-m
  21              		.syntax unified
  22              		.thumb
  23              		.thumb_func
  24              		.fpu fpv5-d16
  26              	_ZN8Taptempo4initEiif:
  27              	.LVL0:
  28              	.LFB3884:
  29              		.file 1 "taptempo.cpp"
   1:taptempo.cpp  **** // Copyright 2021 Adam Fulford
   2:taptempo.cpp  **** // 
   3:taptempo.cpp  **** // Permission is hereby granted, free of charge, to any person obtaining a copy
   4:taptempo.cpp  **** // of this software and associated documentation files (the "Software"), to deal
   5:taptempo.cpp  **** // in the Software without restriction, including without limitation the rights
   6:taptempo.cpp  **** // to use, copy, modify, merge, publish, distribute, sublicense, and/or sell
   7:taptempo.cpp  **** // copies of the Software, and to permit persons to whom the Software is
   8:taptempo.cpp  **** // furnished to do so, subject to the following conditions:
   9:taptempo.cpp  **** // 
  10:taptempo.cpp  **** // The above copyright notice and this permission notice shall be included in
  11:taptempo.cpp  **** // all copies or substantial portions of the Software.
  12:taptempo.cpp  **** // 
  13:taptempo.cpp  **** // THE SOFTWARE IS PROVIDED "AS IS", WITHOUT WARRANTY OF ANY KIND, EXPRESS OR
  14:taptempo.cpp  **** // IMPLIED, INCLUDING BUT NOT LIMITED TO THE WARRANTIES OF MERCHANTABILITY,
  15:taptempo.cpp  **** // FITNESS FOR A PARTICULAR PURPOSE AND NONINFRINGEMENT. IN NO EVENT SHALL THE
  16:taptempo.cpp  **** // AUTHORS OR COPYRIGHT HOLDERS BE LIABLE FOR ANY CLAIM, DAMAGES OR OTHER
  17:taptempo.cpp  **** // LIABILITY, WHETHER IN AN ACTION OF CONTRACT, TORT OR OTHERWISE, ARISING FROM,
  18:taptempo.cpp  **** // OUT OF OR IN CONNECTION WITH THE SOFTWARE OR THE USE OR OTHER DEALINGS IN
  19:taptempo.cpp  **** // THE SOFTWARE.
  20:taptempo.cpp  **** // 
  21:taptempo.cpp  **** // See http://creativecommons.org/licenses/MIT/ for more information.
  22:taptempo.cpp  **** 
  23:taptempo.cpp  **** #include "taptempo.h"
  24:taptempo.cpp  **** 
  25:taptempo.cpp  ****     //set mintap (ms), maxtap (ms), tap tolerance
  26:taptempo.cpp  ****     void Taptempo::init(int mintap, int maxtap, float tap_tolerance)
  27:taptempo.cpp  ****     {
  30              		.loc 1 27 5 view -0
  31              		.cfi_startproc
ARM GAS  /var/folders/0d/2ntwfkp1791d52chq7d_xwdm0000gn/T//ccFEdNid.s 			page 2


  32              		@ args = 0, pretend = 0, frame = 0
  33              		@ frame_needed = 0, uses_anonymous_args = 0
  34              		@ link register save eliminated.
  28:taptempo.cpp  ****         mintap_ = mintap;
  35              		.loc 1 28 9 view .LVU1
  29:taptempo.cpp  ****         maxtap_ = maxtap;
  30:taptempo.cpp  ****         tap_tolerance_ = tap_tolerance;
  31:taptempo.cpp  ****         tapLength_ = 0;
  36              		.loc 1 31 20 is_stmt 0 view .LVU2
  37 0000 0023     		movs	r3, #0
  30:taptempo.cpp  ****         tapLength_ = 0;
  38              		.loc 1 30 24 view .LVU3
  39 0002 80ED0A0A 		vstr.32	s0, [r0, #40]
  27:taptempo.cpp  ****         mintap_ = mintap;
  40              		.loc 1 27 5 view .LVU4
  41 0006 30B4     		push	{r4, r5}
  42              		.cfi_def_cfa_offset 8
  43              		.cfi_offset 4, -8
  44              		.cfi_offset 5, -4
  32:taptempo.cpp  ****         lastTapLength_ = 0;
  33:taptempo.cpp  ****         tempo_ = 500.0f; //in ms. Default 120BPM
  34:taptempo.cpp  ****         lastTime_ = 0;
  35:taptempo.cpp  ****         currentTime_ = 0;
  36:taptempo.cpp  ****         tapflag_ = false;
  37:taptempo.cpp  ****         tapRatio_ = 1.0;
  45              		.loc 1 37 19 view .LVU5
  46 0008 4FF07E54 		mov	r4, #1065353216
  33:taptempo.cpp  ****         lastTime_ = 0;
  47              		.loc 1 33 16 view .LVU6
  48 000c 064D     		ldr	r5, .L4
  36:taptempo.cpp  ****         tapRatio_ = 1.0;
  49              		.loc 1 36 18 view .LVU7
  50 000e 80F82430 		strb	r3, [r0, #36]
  33:taptempo.cpp  ****         lastTime_ = 0;
  51              		.loc 1 33 16 view .LVU8
  52 0012 C562     		str	r5, [r0, #44]	@ float
  53              		.loc 1 37 19 view .LVU9
  54 0014 0463     		str	r4, [r0, #48]	@ float
  29:taptempo.cpp  ****         tap_tolerance_ = tap_tolerance;
  55              		.loc 1 29 17 view .LVU10
  56 0016 C0E90012 		strd	r1, r2, [r0]
  30:taptempo.cpp  ****         tapLength_ = 0;
  57              		.loc 1 30 9 is_stmt 1 view .LVU11
  31:taptempo.cpp  ****         lastTapLength_ = 0;
  58              		.loc 1 31 9 view .LVU12
  38:taptempo.cpp  **** 
  39:taptempo.cpp  ****         //dsy_tim_init(); //start timer
  40:taptempo.cpp  ****         //dsy_tim_start();
  41:taptempo.cpp  ****     }
  59              		.loc 1 41 5 is_stmt 0 view .LVU13
  60 001a 30BC     		pop	{r4, r5}
  61              		.cfi_restore 5
  62              		.cfi_restore 4
  63              		.cfi_def_cfa_offset 0
  32:taptempo.cpp  ****         tempo_ = 500.0f; //in ms. Default 120BPM
  64              		.loc 1 32 24 view .LVU14
  65 001c C0E90433 		strd	r3, r3, [r0, #16]
ARM GAS  /var/folders/0d/2ntwfkp1791d52chq7d_xwdm0000gn/T//ccFEdNid.s 			page 3


  33:taptempo.cpp  ****         lastTime_ = 0;
  66              		.loc 1 33 9 is_stmt 1 view .LVU15
  34:taptempo.cpp  ****         currentTime_ = 0;
  67              		.loc 1 34 9 view .LVU16
  35:taptempo.cpp  ****         tapflag_ = false;
  68              		.loc 1 35 22 is_stmt 0 view .LVU17
  69 0020 C0E90233 		strd	r3, r3, [r0, #8]
  36:taptempo.cpp  ****         tapRatio_ = 1.0;
  70              		.loc 1 36 9 is_stmt 1 view .LVU18
  37:taptempo.cpp  **** 
  71              		.loc 1 37 9 view .LVU19
  72              		.loc 1 41 5 is_stmt 0 view .LVU20
  73 0024 7047     		bx	lr
  74              	.L5:
  75 0026 00BF     		.align	2
  76              	.L4:
  77 0028 0000FA43 		.word	1140457472
  78              		.cfi_endproc
  79              	.LFE3884:
  81              		.section	.text._ZN8Taptempo3tapEv,"ax",%progbits
  82              		.align	1
  83              		.p2align 2,,3
  84              		.global	_ZN8Taptempo3tapEv
  85              		.syntax unified
  86              		.thumb
  87              		.thumb_func
  88              		.fpu fpv5-d16
  90              	_ZN8Taptempo3tapEv:
  91              	.LVL1:
  92              	.LFB3885:
  42:taptempo.cpp  ****     
  43:taptempo.cpp  ****     //call when tap is triggered. currentTime in ms. Returns high if tempo updated
  44:taptempo.cpp  ****     bool Taptempo::tap()
  45:taptempo.cpp  ****     {
  93              		.loc 1 45 5 is_stmt 1 view -0
  94              		.cfi_startproc
  95              		@ args = 0, pretend = 0, frame = 0
  96              		@ frame_needed = 0, uses_anonymous_args = 0
  46:taptempo.cpp  ****         currentTime_ = System::GetNow();    //get current time
  97              		.loc 1 46 9 view .LVU22
  45:taptempo.cpp  ****         currentTime_ = System::GetNow();    //get current time
  98              		.loc 1 45 5 is_stmt 0 view .LVU23
  99 0000 10B5     		push	{r4, lr}
 100              		.cfi_def_cfa_offset 8
 101              		.cfi_offset 4, -8
 102              		.cfi_offset 14, -4
  45:taptempo.cpp  ****         currentTime_ = System::GetNow();    //get current time
 103              		.loc 1 45 5 view .LVU24
 104 0002 0446     		mov	r4, r0
 105              		.loc 1 46 38 view .LVU25
 106 0004 FFF7FEFF 		bl	_ZN5daisy6System6GetNowEv
 107              	.LVL2:
  47:taptempo.cpp  ****         tapLength_ = currentTime_ - lastTime_;  //calculate length between taps
 108              		.loc 1 47 35 view .LVU26
 109 0008 E368     		ldr	r3, [r4, #12]
  48:taptempo.cpp  ****         lastTime_ = currentTime_;   //always update lastTime_
  49:taptempo.cpp  ****         
ARM GAS  /var/folders/0d/2ntwfkp1791d52chq7d_xwdm0000gn/T//ccFEdNid.s 			page 4


  50:taptempo.cpp  ****         if(mintap_ <= tapLength_ && tapLength_ <= maxtap_)  //if between limits
 110              		.loc 1 50 9 view .LVU27
 111 000a 2268     		ldr	r2, [r4]
  47:taptempo.cpp  ****         tapLength_ = currentTime_ - lastTime_;  //calculate length between taps
 112              		.loc 1 47 35 view .LVU28
 113 000c C31A     		subs	r3, r0, r3
 114              		.loc 1 50 9 view .LVU29
 115 000e 9342     		cmp	r3, r2
  47:taptempo.cpp  ****         tapLength_ = currentTime_ - lastTime_;  //calculate length between taps
 116              		.loc 1 47 20 view .LVU30
 117 0010 6361     		str	r3, [r4, #20]
  48:taptempo.cpp  ****         lastTime_ = currentTime_;   //always update lastTime_
 118              		.loc 1 48 9 is_stmt 1 view .LVU31
 119              		.loc 1 50 9 view .LVU32
 120              		.loc 1 50 34 is_stmt 0 view .LVU33
 121 0012 6268     		ldr	r2, [r4, #4]
  48:taptempo.cpp  ****         lastTime_ = currentTime_;   //always update lastTime_
 122              		.loc 1 48 19 view .LVU34
 123 0014 C4E90200 		strd	r0, r0, [r4, #8]
 124              		.loc 1 50 9 view .LVU35
 125 0018 1ED3     		bcc	.L7
 126              		.loc 1 50 34 discriminator 1 view .LVU36
 127 001a 9342     		cmp	r3, r2
 128 001c 20D8     		bhi	.L8
  51:taptempo.cpp  ****         {
  52:taptempo.cpp  ****             if(tapflag_)
 129              		.loc 1 52 13 is_stmt 1 view .LVU37
 130              		.loc 1 52 16 is_stmt 0 view .LVU38
 131 001e 94F82400 		ldrb	r0, [r4, #36]	@ zero_extendqisi2
  53:taptempo.cpp  ****             {
  54:taptempo.cpp  ****                 tapflag_ = false;   //reset tapflag
  55:taptempo.cpp  ****                 tempo_ = static_cast<float>(tapLength_) / tapRatio_;
 132              		.loc 1 55 26 view .LVU39
 133 0022 07EE903A 		vmov	s15, r3	@ int
  52:taptempo.cpp  ****             {
 134              		.loc 1 52 13 view .LVU40
 135 0026 00BB     		cbnz	r0, .L15
  56:taptempo.cpp  ****                 lastTapLength_ = tapLength_;
  57:taptempo.cpp  ****                 return true;
  58:taptempo.cpp  ****             }
  59:taptempo.cpp  **** 
  60:taptempo.cpp  ****             else    //tapflag_ not set
  61:taptempo.cpp  ****             {
  62:taptempo.cpp  ****                 if(static_cast<float>(tapLength_) >= tap_tolerance_ * static_cast<float>(lastTapLen
 136              		.loc 1 62 17 is_stmt 1 view .LVU41
 137              		.loc 1 62 20 is_stmt 0 view .LVU42
 138 0028 B8EE677A 		vcvt.f32.u32	s14, s15
 139              		.loc 1 62 71 view .LVU43
 140 002c D4ED047A 		vldr.32	s15, [r4, #16]	@ int
 141              		.loc 1 62 69 view .LVU44
 142 0030 D4ED0A6A 		vldr.32	s13, [r4, #40]
 143              		.loc 1 62 71 view .LVU45
 144 0034 F8EE677A 		vcvt.f32.u32	s15, s15
 145              		.loc 1 62 69 view .LVU46
 146 0038 67EEA67A 		vmul.f32	s15, s15, s13
 147              		.loc 1 62 17 view .LVU47
 148 003c B4EEE77A 		vcmpe.f32	s14, s15
ARM GAS  /var/folders/0d/2ntwfkp1791d52chq7d_xwdm0000gn/T//ccFEdNid.s 			page 5


 149 0040 F1EE10FA 		vmrs	APSR_nzcv, FPSCR
 150 0044 0CDA     		bge	.L8
  63:taptempo.cpp  ****                 {
  64:taptempo.cpp  ****                     tapflag_ = true;
  65:taptempo.cpp  ****                     return false;
  66:taptempo.cpp  ****                 }
  67:taptempo.cpp  ****                 else
  68:taptempo.cpp  ****                 {
  69:taptempo.cpp  ****                     tempo_ = static_cast<float>(tapLength_) / tapRatio_;
 151              		.loc 1 69 21 is_stmt 1 view .LVU48
 152              		.loc 1 69 61 is_stmt 0 view .LVU49
 153 0046 D4ED0C6A 		vldr.32	s13, [r4, #48]
  70:taptempo.cpp  ****                     lastTapLength_ = tapLength_;
  71:taptempo.cpp  ****                     return true;
 154              		.loc 1 71 28 view .LVU50
 155 004a 0120     		movs	r0, #1
  70:taptempo.cpp  ****                     lastTapLength_ = tapLength_;
 156              		.loc 1 70 36 view .LVU51
 157 004c 2361     		str	r3, [r4, #16]
  69:taptempo.cpp  ****                     lastTapLength_ = tapLength_;
 158              		.loc 1 69 61 view .LVU52
 159 004e C7EE267A 		vdiv.f32	s15, s14, s13
  69:taptempo.cpp  ****                     lastTapLength_ = tapLength_;
 160              		.loc 1 69 28 view .LVU53
 161 0052 C4ED0B7A 		vstr.32	s15, [r4, #44]
  70:taptempo.cpp  ****                     lastTapLength_ = tapLength_;
 162              		.loc 1 70 21 is_stmt 1 view .LVU54
 163              		.loc 1 71 21 view .LVU55
  72:taptempo.cpp  ****                 }
  73:taptempo.cpp  ****             }
  74:taptempo.cpp  ****         }
  75:taptempo.cpp  ****         //if tap length too long then set tap_flag (to say this is first tap) and reset LFO
  76:taptempo.cpp  ****         else if(tapLength_ > maxtap_)
  77:taptempo.cpp  ****         {
  78:taptempo.cpp  ****             tapflag_ = true;
  79:taptempo.cpp  ****             return false;
  80:taptempo.cpp  ****         }
  81:taptempo.cpp  ****         //if tap time too short do nothing
  82:taptempo.cpp  ****         else if(tapLength_ < mintap_)
  83:taptempo.cpp  ****         {
  84:taptempo.cpp  ****             return false;
  85:taptempo.cpp  ****         }
  86:taptempo.cpp  **** 
  87:taptempo.cpp  ****         else
  88:taptempo.cpp  ****         {
  89:taptempo.cpp  ****             return false;
  90:taptempo.cpp  ****         }
  91:taptempo.cpp  **** 
  92:taptempo.cpp  ****     }
 164              		.loc 1 92 5 is_stmt 0 view .LVU56
 165 0056 10BD     		pop	{r4, pc}
 166              	.LVL3:
 167              	.L7:
  76:taptempo.cpp  ****         {
 168              		.loc 1 76 14 is_stmt 1 view .LVU57
 169 0058 9342     		cmp	r3, r2
 170 005a 01D8     		bhi	.L8
ARM GAS  /var/folders/0d/2ntwfkp1791d52chq7d_xwdm0000gn/T//ccFEdNid.s 			page 6


  84:taptempo.cpp  ****         }
 171              		.loc 1 84 20 is_stmt 0 view .LVU58
 172 005c 0020     		movs	r0, #0
 173              		.loc 1 92 5 view .LVU59
 174 005e 10BD     		pop	{r4, pc}
 175              	.LVL4:
 176              	.L8:
  64:taptempo.cpp  ****                     return false;
 177              		.loc 1 64 21 is_stmt 1 view .LVU60
  64:taptempo.cpp  ****                     return false;
 178              		.loc 1 64 30 is_stmt 0 view .LVU61
 179 0060 0123     		movs	r3, #1
  65:taptempo.cpp  ****                 }
 180              		.loc 1 65 28 view .LVU62
 181 0062 0020     		movs	r0, #0
  64:taptempo.cpp  ****                     return false;
 182              		.loc 1 64 30 view .LVU63
 183 0064 84F82430 		strb	r3, [r4, #36]
  65:taptempo.cpp  ****                 }
 184              		.loc 1 65 21 is_stmt 1 view .LVU64
 185              		.loc 1 92 5 is_stmt 0 view .LVU65
 186 0068 10BD     		pop	{r4, pc}
 187              	.LVL5:
 188              	.L15:
  54:taptempo.cpp  ****                 tempo_ = static_cast<float>(tapLength_) / tapRatio_;
 189              		.loc 1 54 17 is_stmt 1 view .LVU66
  55:taptempo.cpp  ****                 lastTapLength_ = tapLength_;
 190              		.loc 1 55 26 is_stmt 0 view .LVU67
 191 006a F8EE676A 		vcvt.f32.u32	s13, s15
  55:taptempo.cpp  ****                 lastTapLength_ = tapLength_;
 192              		.loc 1 55 57 view .LVU68
 193 006e 94ED0C7A 		vldr.32	s14, [r4, #48]
  54:taptempo.cpp  ****                 tempo_ = static_cast<float>(tapLength_) / tapRatio_;
 194              		.loc 1 54 26 view .LVU69
 195 0072 0022     		movs	r2, #0
  56:taptempo.cpp  ****                 return true;
 196              		.loc 1 56 32 view .LVU70
 197 0074 2361     		str	r3, [r4, #16]
  55:taptempo.cpp  ****                 lastTapLength_ = tapLength_;
 198              		.loc 1 55 57 view .LVU71
 199 0076 C6EE877A 		vdiv.f32	s15, s13, s14
  54:taptempo.cpp  ****                 tempo_ = static_cast<float>(tapLength_) / tapRatio_;
 200              		.loc 1 54 26 view .LVU72
 201 007a 84F82420 		strb	r2, [r4, #36]
  55:taptempo.cpp  ****                 lastTapLength_ = tapLength_;
 202              		.loc 1 55 17 is_stmt 1 view .LVU73
  55:taptempo.cpp  ****                 lastTapLength_ = tapLength_;
 203              		.loc 1 55 24 is_stmt 0 view .LVU74
 204 007e C4ED0B7A 		vstr.32	s15, [r4, #44]
  56:taptempo.cpp  ****                 return true;
 205              		.loc 1 56 17 is_stmt 1 view .LVU75
  57:taptempo.cpp  ****             }
 206              		.loc 1 57 17 view .LVU76
 207              		.loc 1 92 5 is_stmt 0 view .LVU77
 208 0082 10BD     		pop	{r4, pc}
 209              		.loc 1 92 5 view .LVU78
 210              		.cfi_endproc
ARM GAS  /var/folders/0d/2ntwfkp1791d52chq7d_xwdm0000gn/T//ccFEdNid.s 			page 7


 211              	.LFE3885:
 213              		.section	.text._ZN8Taptempo5clockEv,"ax",%progbits
 214              		.align	1
 215              		.p2align 2,,3
 216              		.global	_ZN8Taptempo5clockEv
 217              		.syntax unified
 218              		.thumb
 219              		.thumb_func
 220              		.fpu fpv5-d16
 222              	_ZN8Taptempo5clockEv:
 223              	.LVL6:
 224              	.LFB3886:
  93:taptempo.cpp  **** 
  94:taptempo.cpp  ****     bool Taptempo::clock()
  95:taptempo.cpp  ****     {
 225              		.loc 1 95 5 is_stmt 1 view -0
 226              		.cfi_startproc
 227              		@ args = 0, pretend = 0, frame = 0
 228              		@ frame_needed = 0, uses_anonymous_args = 0
  96:taptempo.cpp  ****         currentTime_ = System::GetNow();    //get current time
 229              		.loc 1 96 9 view .LVU80
  95:taptempo.cpp  ****         currentTime_ = System::GetNow();    //get current time
 230              		.loc 1 95 5 is_stmt 0 view .LVU81
 231 0000 10B5     		push	{r4, lr}
 232              		.cfi_def_cfa_offset 8
 233              		.cfi_offset 4, -8
 234              		.cfi_offset 14, -4
  95:taptempo.cpp  ****         currentTime_ = System::GetNow();    //get current time
 235              		.loc 1 95 5 view .LVU82
 236 0002 0446     		mov	r4, r0
 237              		.loc 1 96 38 view .LVU83
 238 0004 FFF7FEFF 		bl	_ZN5daisy6System6GetNowEv
 239              	.LVL7:
  97:taptempo.cpp  ****         clockLength_ = currentTime_ - lastTime_;  //calculate length between taps
 240              		.loc 1 97 37 view .LVU84
 241 0008 E368     		ldr	r3, [r4, #12]
  98:taptempo.cpp  ****         lastTime_ = currentTime_;   //always update lastTime_
  99:taptempo.cpp  ****         
 100:taptempo.cpp  ****         //if clock length changed more than threshold
 101:taptempo.cpp  ****         if( abs( static_cast<int> (clockLength_ - lastClockLength_)) > clockThresh_)
 242              		.loc 1 101 9 view .LVU85
 243 000a D4E90721 		ldrd	r2, r1, [r4, #28]
  97:taptempo.cpp  ****         clockLength_ = currentTime_ - lastTime_;  //calculate length between taps
 244              		.loc 1 97 37 view .LVU86
 245 000e C31A     		subs	r3, r0, r3
 246              		.loc 1 101 49 view .LVU87
 247 0010 9A1A     		subs	r2, r3, r2
  97:taptempo.cpp  ****         clockLength_ = currentTime_ - lastTime_;  //calculate length between taps
 248              		.loc 1 97 22 view .LVU88
 249 0012 A361     		str	r3, [r4, #24]
  98:taptempo.cpp  ****         lastTime_ = currentTime_;   //always update lastTime_
 250              		.loc 1 98 9 is_stmt 1 view .LVU89
 251              		.loc 1 101 9 view .LVU90
 252              		.loc 1 101 16 is_stmt 0 view .LVU91
 253 0014 002A     		cmp	r2, #0
 254 0016 B8BF     		it	lt
 255 0018 5242     		rsblt	r2, r2, #0
ARM GAS  /var/folders/0d/2ntwfkp1791d52chq7d_xwdm0000gn/T//ccFEdNid.s 			page 8


 256              		.loc 1 101 9 view .LVU92
 257 001a 8A42     		cmp	r2, r1
  98:taptempo.cpp  ****         lastTime_ = currentTime_;   //always update lastTime_
 258              		.loc 1 98 19 view .LVU93
 259 001c C4E90200 		strd	r0, r0, [r4, #8]
 260              		.loc 1 101 9 view .LVU94
 261 0020 0ED9     		bls	.L20
 102:taptempo.cpp  ****         {
 103:taptempo.cpp  ****             //if within tempo limits
 104:taptempo.cpp  ****             if(mintap_ <= clockLength_ && clockLength_ <= maxtap_) 
 262              		.loc 1 104 13 is_stmt 1 view .LVU95
 263 0022 2268     		ldr	r2, [r4]
 264 0024 9342     		cmp	r3, r2
 265 0026 0BD3     		bcc	.L20
 266              		.loc 1 104 40 is_stmt 0 discriminator 1 view .LVU96
 267 0028 6268     		ldr	r2, [r4, #4]
 268 002a 9342     		cmp	r3, r2
 269 002c 08D8     		bhi	.L20
 105:taptempo.cpp  ****             {
 106:taptempo.cpp  ****                 //set tempo_
 107:taptempo.cpp  ****                 tempo_ = static_cast<float>(clockLength_);
 270              		.loc 1 107 17 is_stmt 1 view .LVU97
 271              		.loc 1 107 26 is_stmt 0 view .LVU98
 272 002e 07EE903A 		vmov	s15, r3	@ int
 108:taptempo.cpp  ****                 lastClockLength_ = clockLength_;
 109:taptempo.cpp  ****                 return true;
 273              		.loc 1 109 24 view .LVU99
 274 0032 0120     		movs	r0, #1
 108:taptempo.cpp  ****                 lastClockLength_ = clockLength_;
 275              		.loc 1 108 34 view .LVU100
 276 0034 E361     		str	r3, [r4, #28]
 107:taptempo.cpp  ****                 lastClockLength_ = clockLength_;
 277              		.loc 1 107 26 view .LVU101
 278 0036 F8EE677A 		vcvt.f32.u32	s15, s15
 279 003a C4ED0B7A 		vstr.32	s15, [r4, #44]
 108:taptempo.cpp  ****                 lastClockLength_ = clockLength_;
 280              		.loc 1 108 17 is_stmt 1 view .LVU102
 281              		.loc 1 109 17 view .LVU103
 110:taptempo.cpp  **** 
 111:taptempo.cpp  ****             }
 112:taptempo.cpp  ****             else
 113:taptempo.cpp  ****             {
 114:taptempo.cpp  ****                 return false;
 115:taptempo.cpp  ****             }
 116:taptempo.cpp  **** 
 117:taptempo.cpp  ****         }
 118:taptempo.cpp  ****         else
 119:taptempo.cpp  ****         {
 120:taptempo.cpp  ****             return false;
 121:taptempo.cpp  ****         }
 122:taptempo.cpp  ****     }
 282              		.loc 1 122 5 is_stmt 0 view .LVU104
 283 003e 10BD     		pop	{r4, pc}
 284              	.LVL8:
 285              	.L20:
 120:taptempo.cpp  ****         }
 286              		.loc 1 120 20 view .LVU105
ARM GAS  /var/folders/0d/2ntwfkp1791d52chq7d_xwdm0000gn/T//ccFEdNid.s 			page 9


 287 0040 0020     		movs	r0, #0
 288              		.loc 1 122 5 view .LVU106
 289 0042 10BD     		pop	{r4, pc}
 290              		.loc 1 122 5 view .LVU107
 291              		.cfi_endproc
 292              	.LFE3886:
 294              		.section	.text._ZN8Taptempo12getTapLengthEv,"ax",%progbits
 295              		.align	1
 296              		.p2align 2,,3
 297              		.global	_ZN8Taptempo12getTapLengthEv
 298              		.syntax unified
 299              		.thumb
 300              		.thumb_func
 301              		.fpu fpv5-d16
 303              	_ZN8Taptempo12getTapLengthEv:
 304              	.LVL9:
 305              	.LFB3887:
 123:taptempo.cpp  ****     
 124:taptempo.cpp  ****     //outputs tap length in ms
 125:taptempo.cpp  ****     float Taptempo::getTapLength()
 126:taptempo.cpp  ****     {
 306              		.loc 1 126 5 is_stmt 1 view -0
 307              		.cfi_startproc
 308              		@ args = 0, pretend = 0, frame = 0
 309              		@ frame_needed = 0, uses_anonymous_args = 0
 310              		@ link register save eliminated.
 127:taptempo.cpp  ****         return tempo_;    //in ms
 311              		.loc 1 127 9 view .LVU109
 128:taptempo.cpp  ****     }  
 312              		.loc 1 128 5 is_stmt 0 view .LVU110
 313 0000 90ED0B0A 		vldr.32	s0, [r0, #44]
 314 0004 7047     		bx	lr
 315              		.cfi_endproc
 316              	.LFE3887:
 318 0006 00BF     		.section	.text._ZN8Taptempo10getTapFreqEv,"ax",%progbits
 319              		.align	1
 320              		.p2align 2,,3
 321              		.global	_ZN8Taptempo10getTapFreqEv
 322              		.syntax unified
 323              		.thumb
 324              		.thumb_func
 325              		.fpu fpv5-d16
 327              	_ZN8Taptempo10getTapFreqEv:
 328              	.LVL10:
 329              	.LFB3888:
 129:taptempo.cpp  ****     
 130:taptempo.cpp  ****     //outputs tap frequency in Hz
 131:taptempo.cpp  ****     float Taptempo::getTapFreq()
 132:taptempo.cpp  ****     {
 330              		.loc 1 132 5 is_stmt 1 view -0
 331              		.cfi_startproc
 332              		@ args = 0, pretend = 0, frame = 0
 333              		@ frame_needed = 0, uses_anonymous_args = 0
 334              		@ link register save eliminated.
 133:taptempo.cpp  ****         return 1.0f / (tempo_ / 1000.0f); //in Hz
 335              		.loc 1 133 9 view .LVU112
 336              		.loc 1 133 31 is_stmt 0 view .LVU113
ARM GAS  /var/folders/0d/2ntwfkp1791d52chq7d_xwdm0000gn/T//ccFEdNid.s 			page 10


 337 0000 9FED057A 		vldr.32	s14, .L24
 338              		.loc 1 133 40 view .LVU114
 339 0004 B7EE000A 		vmov.f32	s0, #1.0e+0
 340              		.loc 1 133 31 view .LVU115
 341 0008 D0ED0B6A 		vldr.32	s13, [r0, #44]
 342 000c C6EE877A 		vdiv.f32	s15, s13, s14
 134:taptempo.cpp  ****     }
 343              		.loc 1 134 5 view .LVU116
 344 0010 80EE270A 		vdiv.f32	s0, s0, s15
 345 0014 7047     		bx	lr
 346              	.L25:
 347 0016 00BF     		.align	2
 348              	.L24:
 349 0018 00007A44 		.word	1148846080
 350              		.cfi_endproc
 351              	.LFE3888:
 353              		.section	.text._ZN8Taptempo11setTapRatioEf,"ax",%progbits
 354              		.align	1
 355              		.p2align 2,,3
 356              		.global	_ZN8Taptempo11setTapRatioEf
 357              		.syntax unified
 358              		.thumb
 359              		.thumb_func
 360              		.fpu fpv5-d16
 362              	_ZN8Taptempo11setTapRatioEf:
 363              	.LVL11:
 364              	.LFB3889:
 135:taptempo.cpp  **** 
 136:taptempo.cpp  ****     void Taptempo::setTapRatio(float tapRatio)
 137:taptempo.cpp  ****     {
 365              		.loc 1 137 5 is_stmt 1 view -0
 366              		.cfi_startproc
 367              		@ args = 0, pretend = 0, frame = 0
 368              		@ frame_needed = 0, uses_anonymous_args = 0
 369              		@ link register save eliminated.
 138:taptempo.cpp  ****         tapRatio_ = tapRatio;
 370              		.loc 1 138 9 view .LVU118
 371              		.loc 1 138 19 is_stmt 0 view .LVU119
 372 0000 80ED0C0A 		vstr.32	s0, [r0, #48]
 139:taptempo.cpp  ****     }
 373              		.loc 1 139 5 view .LVU120
 374 0004 7047     		bx	lr
 375              		.cfi_endproc
 376              	.LFE3889:
 378 0006 00BF     		.text
 379              	.Letext0:
 380              		.file 2 "/usr/local/Cellar/arm-none-eabi-gcc/9-2019-q4-major/gcc/arm-none-eabi/include/machine/_de
 381              		.file 3 "/usr/local/Cellar/arm-none-eabi-gcc/9-2019-q4-major/gcc/arm-none-eabi/include/sys/_stdint
 382              		.file 4 "/usr/local/Cellar/arm-none-eabi-gcc/9-2019-q4-major/gcc/arm-none-eabi/include/stdint.h"
 383              		.file 5 "../libdaisy/Drivers/CMSIS/Include/core_cm7.h"
 384              		.file 6 "../libdaisy/Drivers/CMSIS/Device/ST/STM32H7xx/Include/system_stm32h7xx.h"
 385              		.file 7 "/usr/local/Cellar/arm-none-eabi-gcc/9-2019-q4-major/gcc/lib/gcc/arm-none-eabi/9.2.1/inclu
 386              		.file 8 "/usr/local/Cellar/arm-none-eabi-gcc/9-2019-q4-major/gcc/arm-none-eabi/include/c++/9.2.1/c
 387              		.file 9 "/usr/local/Cellar/arm-none-eabi-gcc/9-2019-q4-major/gcc/arm-none-eabi/include/c++/9.2.1/b
 388              		.file 10 "/usr/local/Cellar/arm-none-eabi-gcc/9-2019-q4-major/gcc/arm-none-eabi/include/c++/9.2.1/
 389              		.file 11 "/usr/local/Cellar/arm-none-eabi-gcc/9-2019-q4-major/gcc/arm-none-eabi/include/c++/9.2.1/
 390              		.file 12 "/usr/local/Cellar/arm-none-eabi-gcc/9-2019-q4-major/gcc/arm-none-eabi/include/c++/9.2.1/
ARM GAS  /var/folders/0d/2ntwfkp1791d52chq7d_xwdm0000gn/T//ccFEdNid.s 			page 11


 391              		.file 13 "/usr/local/Cellar/arm-none-eabi-gcc/9-2019-q4-major/gcc/arm-none-eabi/include/c++/9.2.1/
 392              		.file 14 "/usr/local/Cellar/arm-none-eabi-gcc/9-2019-q4-major/gcc/arm-none-eabi/include/c++/9.2.1/
 393              		.file 15 "/usr/local/Cellar/arm-none-eabi-gcc/9-2019-q4-major/gcc/arm-none-eabi/include/c++/9.2.1/
 394              		.file 16 "/usr/local/Cellar/arm-none-eabi-gcc/9-2019-q4-major/gcc/arm-none-eabi/include/c++/9.2.1/
 395              		.file 17 "/usr/local/Cellar/arm-none-eabi-gcc/9-2019-q4-major/gcc/arm-none-eabi/include/c++/9.2.1/
 396              		.file 18 "/usr/local/Cellar/arm-none-eabi-gcc/9-2019-q4-major/gcc/arm-none-eabi/include/c++/9.2.1/
 397              		.file 19 "/usr/local/Cellar/arm-none-eabi-gcc/9-2019-q4-major/gcc/arm-none-eabi/include/c++/9.2.1/
 398              		.file 20 "/usr/local/Cellar/arm-none-eabi-gcc/9-2019-q4-major/gcc/arm-none-eabi/include/c++/9.2.1/
 399              		.file 21 "/usr/local/Cellar/arm-none-eabi-gcc/9-2019-q4-major/gcc/arm-none-eabi/include/c++/9.2.1/
 400              		.file 22 "/usr/local/Cellar/arm-none-eabi-gcc/9-2019-q4-major/gcc/arm-none-eabi/include/c++/9.2.1/
 401              		.file 23 "/usr/local/Cellar/arm-none-eabi-gcc/9-2019-q4-major/gcc/arm-none-eabi/include/c++/9.2.1/
 402              		.file 24 "/usr/local/Cellar/arm-none-eabi-gcc/9-2019-q4-major/gcc/arm-none-eabi/include/c++/9.2.1/
 403              		.file 25 "/usr/local/Cellar/arm-none-eabi-gcc/9-2019-q4-major/gcc/arm-none-eabi/include/c++/9.2.1/
 404              		.file 26 "/usr/local/Cellar/arm-none-eabi-gcc/9-2019-q4-major/gcc/arm-none-eabi/include/c++/9.2.1/
 405              		.file 27 "/usr/local/Cellar/arm-none-eabi-gcc/9-2019-q4-major/gcc/arm-none-eabi/include/c++/9.2.1/
 406              		.file 28 "/usr/local/Cellar/arm-none-eabi-gcc/9-2019-q4-major/gcc/arm-none-eabi/include/c++/9.2.1/
 407              		.file 29 "/usr/local/Cellar/arm-none-eabi-gcc/9-2019-q4-major/gcc/arm-none-eabi/include/c++/9.2.1/
 408              		.file 30 "/usr/local/Cellar/arm-none-eabi-gcc/9-2019-q4-major/gcc/arm-none-eabi/include/sys/lock.h
 409              		.file 31 "/usr/local/Cellar/arm-none-eabi-gcc/9-2019-q4-major/gcc/arm-none-eabi/include/sys/_types
 410              		.file 32 "/usr/local/Cellar/arm-none-eabi-gcc/9-2019-q4-major/gcc/arm-none-eabi/include/sys/reent.
 411              		.file 33 "/usr/local/Cellar/arm-none-eabi-gcc/9-2019-q4-major/gcc/arm-none-eabi/include/math.h"
 412              		.file 34 "/usr/local/Cellar/arm-none-eabi-gcc/9-2019-q4-major/gcc/arm-none-eabi/include/stdlib.h"
 413              		.file 35 "/usr/local/Cellar/arm-none-eabi-gcc/9-2019-q4-major/gcc/arm-none-eabi/include/c++/9.2.1/
 414              		.file 36 "../libdaisy/Drivers/STM32H7xx_HAL_Driver/Inc/stm32h7xx_hal_def.h"
 415              		.file 37 "../libdaisy/Drivers/STM32H7xx_HAL_Driver/Inc/stm32h7xx_hal_flash.h"
 416              		.file 38 "../DaisySP/Source/Control/adenv.h"
 417              		.file 39 "../DaisySP/Source/Utility/dsp.h"
 418              		.file 40 "/usr/local/Cellar/arm-none-eabi-gcc/9-2019-q4-major/gcc/lib/gcc/arm-none-eabi/9.2.1/incl
 419              		.file 41 "<built-in>"
 420              		.file 42 "/usr/local/Cellar/arm-none-eabi-gcc/9-2019-q4-major/gcc/arm-none-eabi/include/wchar.h"
 421              		.file 43 "/usr/local/Cellar/arm-none-eabi-gcc/9-2019-q4-major/gcc/arm-none-eabi/include/locale.h"
 422              		.file 44 "/usr/local/Cellar/arm-none-eabi-gcc/9-2019-q4-major/gcc/arm-none-eabi/include/ctype.h"
 423              		.file 45 "/usr/local/Cellar/arm-none-eabi-gcc/9-2019-q4-major/gcc/arm-none-eabi/include/stdio.h"
 424              		.file 46 "/usr/local/Cellar/arm-none-eabi-gcc/9-2019-q4-major/gcc/arm-none-eabi/include/sys/errno.
 425              		.file 47 "/usr/local/Cellar/arm-none-eabi-gcc/9-2019-q4-major/gcc/arm-none-eabi/include/c++/9.2.1/
 426              		.file 48 "/usr/local/Cellar/arm-none-eabi-gcc/9-2019-q4-major/gcc/arm-none-eabi/include/string.h"
 427              		.file 49 "../libdaisy/src/per/tim.h"
 428              		.file 50 "../libdaisy/src/sys/system.h"
 429              		.file 51 "../libdaisy/src/util/wav_format.h"
 430              		.file 52 "/usr/local/Cellar/arm-none-eabi-gcc/9-2019-q4-major/gcc/arm-none-eabi/include/sys/unistd
 431              		.file 53 "../libdaisy/src/util/oled_fonts.h"
 432              		.file 54 "../libdaisy/Middlewares/Third_Party/FatFs/src/integer.h"
 433              		.file 55 "../libdaisy/Middlewares/Third_Party/FatFs/src/ff.h"
 434              		.file 56 "../libdaisy/Middlewares/Third_Party/FatFs/src/diskio.h"
 435              		.file 57 "../libdaisy/Middlewares/Third_Party/FatFs/src/ff_gen_drv.h"
 436              		.file 58 "../libdaisy/src/util/sd_diskio.h"
 437              		.file 59 "../libdaisy/src/sys/fatfs.h"
 438              		.file 60 "taptempo.h"
 439              		.file 61 "../libdaisy/src/dev/sr_595.h"
ARM GAS  /var/folders/0d/2ntwfkp1791d52chq7d_xwdm0000gn/T//ccFEdNid.s 			page 12


DEFINED SYMBOLS
                            *ABS*:0000000000000000 taptempo.cpp
/var/folders/0d/2ntwfkp1791d52chq7d_xwdm0000gn/T//ccFEdNid.s:17     .text._ZN8Taptempo4initEiif:0000000000000000 $t
/var/folders/0d/2ntwfkp1791d52chq7d_xwdm0000gn/T//ccFEdNid.s:26     .text._ZN8Taptempo4initEiif:0000000000000000 _ZN8Taptempo4initEiif
/var/folders/0d/2ntwfkp1791d52chq7d_xwdm0000gn/T//ccFEdNid.s:77     .text._ZN8Taptempo4initEiif:0000000000000028 $d
/var/folders/0d/2ntwfkp1791d52chq7d_xwdm0000gn/T//ccFEdNid.s:82     .text._ZN8Taptempo3tapEv:0000000000000000 $t
/var/folders/0d/2ntwfkp1791d52chq7d_xwdm0000gn/T//ccFEdNid.s:90     .text._ZN8Taptempo3tapEv:0000000000000000 _ZN8Taptempo3tapEv
/var/folders/0d/2ntwfkp1791d52chq7d_xwdm0000gn/T//ccFEdNid.s:214    .text._ZN8Taptempo5clockEv:0000000000000000 $t
/var/folders/0d/2ntwfkp1791d52chq7d_xwdm0000gn/T//ccFEdNid.s:222    .text._ZN8Taptempo5clockEv:0000000000000000 _ZN8Taptempo5clockEv
/var/folders/0d/2ntwfkp1791d52chq7d_xwdm0000gn/T//ccFEdNid.s:295    .text._ZN8Taptempo12getTapLengthEv:0000000000000000 $t
/var/folders/0d/2ntwfkp1791d52chq7d_xwdm0000gn/T//ccFEdNid.s:303    .text._ZN8Taptempo12getTapLengthEv:0000000000000000 _ZN8Taptempo12getTapLengthEv
/var/folders/0d/2ntwfkp1791d52chq7d_xwdm0000gn/T//ccFEdNid.s:319    .text._ZN8Taptempo10getTapFreqEv:0000000000000000 $t
/var/folders/0d/2ntwfkp1791d52chq7d_xwdm0000gn/T//ccFEdNid.s:327    .text._ZN8Taptempo10getTapFreqEv:0000000000000000 _ZN8Taptempo10getTapFreqEv
/var/folders/0d/2ntwfkp1791d52chq7d_xwdm0000gn/T//ccFEdNid.s:349    .text._ZN8Taptempo10getTapFreqEv:0000000000000018 $d
/var/folders/0d/2ntwfkp1791d52chq7d_xwdm0000gn/T//ccFEdNid.s:354    .text._ZN8Taptempo11setTapRatioEf:0000000000000000 $t
/var/folders/0d/2ntwfkp1791d52chq7d_xwdm0000gn/T//ccFEdNid.s:362    .text._ZN8Taptempo11setTapRatioEf:0000000000000000 _ZN8Taptempo11setTapRatioEf

UNDEFINED SYMBOLS
_ZN5daisy6System6GetNowEv
