ARM GAS  /var/folders/0d/2ntwfkp1791d52chq7d_xwdm0000gn/T//cc0vrvH1.s 			page 1


   1              		.cpu cortex-m7
   2              		.eabi_attribute 28, 1
   3              		.eabi_attribute 20, 1
   4              		.eabi_attribute 21, 1
   5              		.eabi_attribute 23, 3
   6              		.eabi_attribute 24, 1
   7              		.eabi_attribute 25, 1
   8              		.eabi_attribute 26, 1
   9              		.eabi_attribute 30, 2
  10              		.eabi_attribute 34, 1
  11              		.eabi_attribute 18, 4
  12              		.file	"Veno-Echo.cpp"
  13              		.text
  14              	.Ltext0:
  15              		.cfi_sections	.debug_frame
  16              		.section	.text._ZN5daisy6SwitchD2Ev,"axG",%progbits,_ZN5daisy6SwitchD5Ev,comdat
  17              		.align	1
  18              		.p2align 2,,3
  19              		.weak	_ZN5daisy6SwitchD2Ev
  20              		.arch armv7e-m
  21              		.syntax unified
  22              		.thumb
  23              		.thumb_func
  24              		.fpu fpv5-d16
  26              	_ZN5daisy6SwitchD2Ev:
  27              	.LVL0:
  28              	.LFB1523:
  29              		.file 1 "../libdaisy/src/hid/switch.h"
   1:../libdaisy/src/hid/switch.h **** #pragma once
   2:../libdaisy/src/hid/switch.h **** #ifndef DSY_SWITCH_H
   3:../libdaisy/src/hid/switch.h **** #define DSY_SWITCH_H
   4:../libdaisy/src/hid/switch.h **** #include "daisy_core.h"
   5:../libdaisy/src/hid/switch.h **** #include "per/gpio.h"
   6:../libdaisy/src/hid/switch.h **** 
   7:../libdaisy/src/hid/switch.h **** namespace daisy
   8:../libdaisy/src/hid/switch.h **** {
   9:../libdaisy/src/hid/switch.h **** /** 
  10:../libdaisy/src/hid/switch.h ****     Generic Class for handling momentary/latching switches \n 
  11:../libdaisy/src/hid/switch.h ****     Inspired/influenced by Mutable Instruments (pichenettes) Switch classes
  12:../libdaisy/src/hid/switch.h ****     @author Stephen Hensley
  13:../libdaisy/src/hid/switch.h ****     @date December 2019
  14:../libdaisy/src/hid/switch.h ****     @ingroup controls
  15:../libdaisy/src/hid/switch.h **** */
  16:../libdaisy/src/hid/switch.h **** class Switch
  17:../libdaisy/src/hid/switch.h **** {
  18:../libdaisy/src/hid/switch.h ****   public:
  19:../libdaisy/src/hid/switch.h ****     /** Specifies the expected behavior of the switch */
  20:../libdaisy/src/hid/switch.h ****     enum Type
  21:../libdaisy/src/hid/switch.h ****     {
  22:../libdaisy/src/hid/switch.h ****         TYPE_TOGGLE,    /**< & */
  23:../libdaisy/src/hid/switch.h ****         TYPE_MOMENTARY, /**< & */
  24:../libdaisy/src/hid/switch.h ****     };
  25:../libdaisy/src/hid/switch.h ****     /** Specifies whether the pressed is HIGH or LOW. */
  26:../libdaisy/src/hid/switch.h ****     enum Polarity
  27:../libdaisy/src/hid/switch.h ****     {
  28:../libdaisy/src/hid/switch.h ****         POLARITY_NORMAL,   /**< & */
  29:../libdaisy/src/hid/switch.h ****         POLARITY_INVERTED, /**< & */
ARM GAS  /var/folders/0d/2ntwfkp1791d52chq7d_xwdm0000gn/T//cc0vrvH1.s 			page 2


  30:../libdaisy/src/hid/switch.h ****     };
  31:../libdaisy/src/hid/switch.h **** 
  32:../libdaisy/src/hid/switch.h ****     /** Specifies whether to use built-in Pull Up/Down resistors to hold button at a given state wh
  33:../libdaisy/src/hid/switch.h ****     enum Pull
  34:../libdaisy/src/hid/switch.h ****     {
  35:../libdaisy/src/hid/switch.h ****         PULL_UP,   /**< & */
  36:../libdaisy/src/hid/switch.h ****         PULL_DOWN, /**< & */
  37:../libdaisy/src/hid/switch.h ****         PULL_NONE, /**< & */
  38:../libdaisy/src/hid/switch.h ****     };
  39:../libdaisy/src/hid/switch.h **** 
  40:../libdaisy/src/hid/switch.h ****     Switch() {}
  41:../libdaisy/src/hid/switch.h ****     ~Switch() {}
  30              		.loc 1 41 5 view -0
  31              		.cfi_startproc
  32              		@ args = 0, pretend = 0, frame = 0
  33              		@ frame_needed = 0, uses_anonymous_args = 0
  34              		@ link register save eliminated.
  35              		.loc 1 41 16 is_stmt 0 view .LVU1
  36 0000 7047     		bx	lr
  37              		.cfi_endproc
  38              	.LFE1523:
  40              		.weak	_ZN5daisy6SwitchD1Ev
  41              		.thumb_set _ZN5daisy6SwitchD1Ev,_ZN5daisy6SwitchD2Ev
  42 0002 00BF     		.section	.text._ZN5daisy6GateInD2Ev,"axG",%progbits,_ZN5daisy6GateInD5Ev,comdat
  43              		.align	1
  44              		.p2align 2,,3
  45              		.weak	_ZN5daisy6GateInD2Ev
  46              		.syntax unified
  47              		.thumb
  48              		.thumb_func
  49              		.fpu fpv5-d16
  51              	_ZN5daisy6GateInD2Ev:
  52              	.LVL1:
  53              	.LFB1563:
  54              		.file 2 "../libdaisy/src/hid/gatein.h"
   1:../libdaisy/src/hid/gatein.h **** #pragma once
   2:../libdaisy/src/hid/gatein.h **** #ifndef DSY_GATEIN_H
   3:../libdaisy/src/hid/gatein.h **** #define DSY_GATEIN_H
   4:../libdaisy/src/hid/gatein.h **** #include "per/gpio.h"
   5:../libdaisy/src/hid/gatein.h **** 
   6:../libdaisy/src/hid/gatein.h **** namespace daisy
   7:../libdaisy/src/hid/gatein.h **** {
   8:../libdaisy/src/hid/gatein.h **** /** @file hid_gatein.h */
   9:../libdaisy/src/hid/gatein.h **** /**
  10:../libdaisy/src/hid/gatein.h ****    @brief Generic Class for handling gate inputs through GPIO.
  11:../libdaisy/src/hid/gatein.h ****    @author Stephen Hensley
  12:../libdaisy/src/hid/gatein.h ****    @date    March 2020
  13:../libdaisy/src/hid/gatein.h ****    @ingroup controls
  14:../libdaisy/src/hid/gatein.h **** */
  15:../libdaisy/src/hid/gatein.h **** class GateIn
  16:../libdaisy/src/hid/gatein.h **** {
  17:../libdaisy/src/hid/gatein.h ****   public:
  18:../libdaisy/src/hid/gatein.h ****     /** GateIn 
  19:../libdaisy/src/hid/gatein.h ****     Constructor 
  20:../libdaisy/src/hid/gatein.h ****     */
  21:../libdaisy/src/hid/gatein.h ****     GateIn() {}
  22:../libdaisy/src/hid/gatein.h ****     /** GateIn~
ARM GAS  /var/folders/0d/2ntwfkp1791d52chq7d_xwdm0000gn/T//cc0vrvH1.s 			page 3


  23:../libdaisy/src/hid/gatein.h ****     Destructor 
  24:../libdaisy/src/hid/gatein.h ****     */
  25:../libdaisy/src/hid/gatein.h ****     ~GateIn() {}
  55              		.loc 2 25 5 is_stmt 1 view -0
  56              		.cfi_startproc
  57              		@ args = 0, pretend = 0, frame = 0
  58              		@ frame_needed = 0, uses_anonymous_args = 0
  59              		@ link register save eliminated.
  60              		.loc 2 25 16 is_stmt 0 view .LVU3
  61 0000 7047     		bx	lr
  62              		.cfi_endproc
  63              	.LFE1563:
  65              		.weak	_ZN5daisy6GateInD1Ev
  66              		.thumb_set _ZN5daisy6GateInD1Ev,_ZN5daisy6GateInD2Ev
  67 0002 00BF     		.section	.text._ZN5daisy9DaisySeedD2Ev,"axG",%progbits,_ZN5daisy9DaisySeedD5Ev,comdat
  68              		.align	1
  69              		.p2align 2,,3
  70              		.weak	_ZN5daisy9DaisySeedD2Ev
  71              		.syntax unified
  72              		.thumb
  73              		.thumb_func
  74              		.fpu fpv5-d16
  76              	_ZN5daisy9DaisySeedD2Ev:
  77              	.LVL2:
  78              	.LFB1703:
  79              		.file 3 "../libdaisy/src/daisy_seed.h"
   1:../libdaisy/src/daisy_seed.h **** #pragma once
   2:../libdaisy/src/daisy_seed.h **** #ifndef DSY_SEED_H
   3:../libdaisy/src/daisy_seed.h **** #define DSY_SEED_H
   4:../libdaisy/src/daisy_seed.h **** 
   5:../libdaisy/src/daisy_seed.h **** #include "daisy.h"
   6:../libdaisy/src/daisy_seed.h **** 
   7:../libdaisy/src/daisy_seed.h **** //Uncomment this out if you're still using the rev2 hardware
   8:../libdaisy/src/daisy_seed.h **** //#define SEED_REV2
   9:../libdaisy/src/daisy_seed.h **** 
  10:../libdaisy/src/daisy_seed.h **** namespace daisy
  11:../libdaisy/src/daisy_seed.h **** {
  12:../libdaisy/src/daisy_seed.h **** /**
  13:../libdaisy/src/daisy_seed.h ****    @brief This is the higher-level interface for the Daisy board. \n 
  14:../libdaisy/src/daisy_seed.h ****     All basic peripheral configuration/initialization is setup here. \n
  15:../libdaisy/src/daisy_seed.h **** 
  16:../libdaisy/src/daisy_seed.h ****    @ingroup boards
  17:../libdaisy/src/daisy_seed.h **** */
  18:../libdaisy/src/daisy_seed.h **** class DaisySeed
  19:../libdaisy/src/daisy_seed.h **** {
  20:../libdaisy/src/daisy_seed.h ****   public:
  21:../libdaisy/src/daisy_seed.h ****     DaisySeed() {}
  22:../libdaisy/src/daisy_seed.h ****     ~DaisySeed() {}
  80              		.loc 3 22 5 is_stmt 1 view -0
  81              		.cfi_startproc
  82              		@ args = 0, pretend = 0, frame = 0
  83              		@ frame_needed = 0, uses_anonymous_args = 0
  84              		@ link register save eliminated.
  85              	.LBB892:
  86              	.LBI892:
  87              		.file 4 "../libdaisy/src/sys/system.h"
   1:../libdaisy/src/sys/system.h **** #ifndef DSY_SYSTEM_H
ARM GAS  /var/folders/0d/2ntwfkp1791d52chq7d_xwdm0000gn/T//cc0vrvH1.s 			page 4


   2:../libdaisy/src/sys/system.h **** #define DSY_SYSTEM_H
   3:../libdaisy/src/sys/system.h **** 
   4:../libdaisy/src/sys/system.h **** #include <cstdint>
   5:../libdaisy/src/sys/system.h **** #include "per/tim.h"
   6:../libdaisy/src/sys/system.h **** 
   7:../libdaisy/src/sys/system.h **** namespace daisy
   8:../libdaisy/src/sys/system.h **** {
   9:../libdaisy/src/sys/system.h **** /** A handle for interacting with the Core System. 
  10:../libdaisy/src/sys/system.h ****  ** This includes the Clock tree, MPU, global DMA initialization,
  11:../libdaisy/src/sys/system.h ****  ** cache handling, and any other necessary global initiailzation
  12:../libdaisy/src/sys/system.h ****  **
  13:../libdaisy/src/sys/system.h ****  ** @author shensley
  14:../libdaisy/src/sys/system.h ****  ** @addtogroup system
  15:../libdaisy/src/sys/system.h ****  */
  16:../libdaisy/src/sys/system.h **** class System
  17:../libdaisy/src/sys/system.h **** {
  18:../libdaisy/src/sys/system.h ****   public:
  19:../libdaisy/src/sys/system.h ****     /** Contains settings for initializing the System */
  20:../libdaisy/src/sys/system.h ****     struct Config
  21:../libdaisy/src/sys/system.h ****     {
  22:../libdaisy/src/sys/system.h ****         /** Specifies the system clock frequency that feeds APB/AHB clocks, etc. */
  23:../libdaisy/src/sys/system.h ****         enum class SysClkFreq
  24:../libdaisy/src/sys/system.h ****         {
  25:../libdaisy/src/sys/system.h ****             FREQ_400MHZ,
  26:../libdaisy/src/sys/system.h ****             FREQ_480MHZ,
  27:../libdaisy/src/sys/system.h ****         };
  28:../libdaisy/src/sys/system.h **** 
  29:../libdaisy/src/sys/system.h ****         /** Method to call on the struct to set to defaults
  30:../libdaisy/src/sys/system.h ****          ** CPU Freq set to 400MHz
  31:../libdaisy/src/sys/system.h ****          ** Cache Enabled 
  32:../libdaisy/src/sys/system.h ****          ** */
  33:../libdaisy/src/sys/system.h ****         void Defaults()
  34:../libdaisy/src/sys/system.h ****         {
  35:../libdaisy/src/sys/system.h ****             cpu_freq   = SysClkFreq::FREQ_400MHZ;
  36:../libdaisy/src/sys/system.h ****             use_dcache = true;
  37:../libdaisy/src/sys/system.h ****             use_icache = true;
  38:../libdaisy/src/sys/system.h ****         }
  39:../libdaisy/src/sys/system.h **** 
  40:../libdaisy/src/sys/system.h ****         /** Method to call on the struct to set to boost mode:
  41:../libdaisy/src/sys/system.h ****          ** CPU Freq set to 480MHz
  42:../libdaisy/src/sys/system.h ****          ** Cache Enabled 
  43:../libdaisy/src/sys/system.h ****          ** */
  44:../libdaisy/src/sys/system.h ****         void Boost()
  45:../libdaisy/src/sys/system.h ****         {
  46:../libdaisy/src/sys/system.h ****             cpu_freq   = SysClkFreq::FREQ_480MHZ;
  47:../libdaisy/src/sys/system.h ****             use_dcache = true;
  48:../libdaisy/src/sys/system.h ****             use_icache = true;
  49:../libdaisy/src/sys/system.h ****         }
  50:../libdaisy/src/sys/system.h **** 
  51:../libdaisy/src/sys/system.h ****         SysClkFreq cpu_freq;
  52:../libdaisy/src/sys/system.h ****         bool       use_dcache;
  53:../libdaisy/src/sys/system.h ****         bool       use_icache;
  54:../libdaisy/src/sys/system.h ****     };
  55:../libdaisy/src/sys/system.h **** 
  56:../libdaisy/src/sys/system.h ****     System() {}
  57:../libdaisy/src/sys/system.h ****     ~System() {}
  88              		.loc 4 57 5 view .LVU5
ARM GAS  /var/folders/0d/2ntwfkp1791d52chq7d_xwdm0000gn/T//cc0vrvH1.s 			page 5


  89              		.loc 4 57 5 is_stmt 0 view .LVU6
  90              	.LBE892:
  91              	.LBB893:
  92              	.LBI893:
  93              		.file 5 "../libdaisy/src/hid/usb.h"
   1:../libdaisy/src/hid/usb.h **** #pragma once
   2:../libdaisy/src/hid/usb.h **** #ifndef DSY_HID_USB_H
   3:../libdaisy/src/hid/usb.h **** #define DSY_HID_USB_H
   4:../libdaisy/src/hid/usb.h **** #include <stdint.h>
   5:../libdaisy/src/hid/usb.h **** #include <stdlib.h>
   6:../libdaisy/src/hid/usb.h **** 
   7:../libdaisy/src/hid/usb.h **** namespace daisy
   8:../libdaisy/src/hid/usb.h **** /** @addtogroup externals
   9:../libdaisy/src/hid/usb.h ****     @{
  10:../libdaisy/src/hid/usb.h **** */
  11:../libdaisy/src/hid/usb.h **** 
  12:../libdaisy/src/hid/usb.h **** {
  13:../libdaisy/src/hid/usb.h **** /** 
  14:../libdaisy/src/hid/usb.h ****     @brief Interface for initializing and using the USB Peripherals on the daisy
  15:../libdaisy/src/hid/usb.h ****     @author Stephen Hensley
  16:../libdaisy/src/hid/usb.h ****     @date December 2019
  17:../libdaisy/src/hid/usb.h **** */
  18:../libdaisy/src/hid/usb.h **** class UsbHandle
  19:../libdaisy/src/hid/usb.h **** {
  20:../libdaisy/src/hid/usb.h ****   public:
  21:../libdaisy/src/hid/usb.h ****     /** Return values for USBHandle Functions */
  22:../libdaisy/src/hid/usb.h ****     enum class Result
  23:../libdaisy/src/hid/usb.h ****     {
  24:../libdaisy/src/hid/usb.h ****         OK,
  25:../libdaisy/src/hid/usb.h ****         ERR,
  26:../libdaisy/src/hid/usb.h ****     };
  27:../libdaisy/src/hid/usb.h **** 
  28:../libdaisy/src/hid/usb.h ****     /** Specified which of the two USB Peripherals to initialize. */
  29:../libdaisy/src/hid/usb.h ****     enum UsbPeriph
  30:../libdaisy/src/hid/usb.h ****     {
  31:../libdaisy/src/hid/usb.h ****         FS_INTERNAL, /**< Internal pin */
  32:../libdaisy/src/hid/usb.h ****         FS_EXTERNAL, /**< FS External D+ pin is Pin 38 (GPIO32). FS External D- pin is Pin 37 (GPIO
  33:../libdaisy/src/hid/usb.h ****         FS_BOTH,     /**< Both */
  34:../libdaisy/src/hid/usb.h ****     };
  35:../libdaisy/src/hid/usb.h **** 
  36:../libdaisy/src/hid/usb.h **** 
  37:../libdaisy/src/hid/usb.h ****     /** Function called upon reception of a buffer */
  38:../libdaisy/src/hid/usb.h ****     typedef void (*ReceiveCallback)(uint8_t* buff, uint32_t* len);
  39:../libdaisy/src/hid/usb.h **** 
  40:../libdaisy/src/hid/usb.h ****     UsbHandle() {}
  41:../libdaisy/src/hid/usb.h **** 
  42:../libdaisy/src/hid/usb.h ****     ~UsbHandle() {}
  94              		.loc 5 42 5 is_stmt 1 view .LVU7
  95              		.loc 5 42 5 is_stmt 0 view .LVU8
  96              	.LBE893:
  97              	.LBB894:
  98              	.LBI894:
  99              		.file 6 "../libdaisy/src/per/adc.h"
   1:../libdaisy/src/per/adc.h **** #pragma once
   2:../libdaisy/src/per/adc.h **** #ifndef DSY_ADC_H
   3:../libdaisy/src/per/adc.h **** #define DSY_ADC_H /**< Macro */
   4:../libdaisy/src/per/adc.h **** #include <stdint.h>
ARM GAS  /var/folders/0d/2ntwfkp1791d52chq7d_xwdm0000gn/T//cc0vrvH1.s 			page 6


   5:../libdaisy/src/per/adc.h **** #include <stdlib.h>
   6:../libdaisy/src/per/adc.h **** #include "daisy_core.h"
   7:../libdaisy/src/per/adc.h **** #include "per/gpio.h"
   8:../libdaisy/src/per/adc.h **** 
   9:../libdaisy/src/per/adc.h **** #define DSY_ADC_MAX_CHANNELS 14 /**< Maximum number of ADC channels */
  10:../libdaisy/src/per/adc.h **** 
  11:../libdaisy/src/per/adc.h **** namespace daisy
  12:../libdaisy/src/per/adc.h **** {
  13:../libdaisy/src/per/adc.h **** /** @addtogroup analog_digital_conversion
  14:../libdaisy/src/per/adc.h ****     @{
  15:../libdaisy/src/per/adc.h **** */
  16:../libdaisy/src/per/adc.h **** 
  17:../libdaisy/src/per/adc.h **** /* While there may not be many configuration options here,
  18:../libdaisy/src/per/adc.h **** using a struct like this allows us to add more configuration
  19:../libdaisy/src/per/adc.h **** later without breaking existing functionality.
  20:../libdaisy/src/per/adc.h **** */
  21:../libdaisy/src/per/adc.h **** 
  22:../libdaisy/src/per/adc.h **** /** Configuration Structure for a given channel */
  23:../libdaisy/src/per/adc.h **** struct AdcChannelConfig
  24:../libdaisy/src/per/adc.h **** {
  25:../libdaisy/src/per/adc.h ****     /** Which pin to use for multiplexing */
  26:../libdaisy/src/per/adc.h ****     enum MuxPin
  27:../libdaisy/src/per/adc.h ****     {
  28:../libdaisy/src/per/adc.h ****         MUX_SEL_0,    /**< & */
  29:../libdaisy/src/per/adc.h ****         MUX_SEL_1,    /**< & */
  30:../libdaisy/src/per/adc.h ****         MUX_SEL_2,    /**< & */
  31:../libdaisy/src/per/adc.h ****         MUX_SEL_LAST, /**< & */
  32:../libdaisy/src/per/adc.h ****     };
  33:../libdaisy/src/per/adc.h **** 
  34:../libdaisy/src/per/adc.h ****     /** Initializes a single ADC pin as an ADC. 
  35:../libdaisy/src/per/adc.h ****     \param pin Pin to init.
  36:../libdaisy/src/per/adc.h ****      */
  37:../libdaisy/src/per/adc.h ****     void InitSingle(dsy_gpio_pin pin);
  38:../libdaisy/src/per/adc.h **** 
  39:../libdaisy/src/per/adc.h ****     /** 
  40:../libdaisy/src/per/adc.h ****     Initializes a single ADC pin as a Multiplexed ADC.
  41:../libdaisy/src/per/adc.h ****     Requires a CD405X Multiplexer connected to the pin.
  42:../libdaisy/src/per/adc.h ****     You only need to supply the mux pins that are required,
  43:../libdaisy/src/per/adc.h ****     e.g. a 4052 mux would only require mux_0 and mux_1.
  44:../libdaisy/src/per/adc.h ****     Internal Callbacks handle the pin addressing.
  45:../libdaisy/src/per/adc.h ****     \param mux_channels must be 1-8
  46:../libdaisy/src/per/adc.h ****     \param mux_0 First mux pin
  47:../libdaisy/src/per/adc.h ****     \param mux_1 Second mux pin
  48:../libdaisy/src/per/adc.h ****     \param mux_2 Third mux pin
  49:../libdaisy/src/per/adc.h ****     \param adc_pin &
  50:../libdaisy/src/per/adc.h ****     */
  51:../libdaisy/src/per/adc.h ****     void InitMux(dsy_gpio_pin adc_pin,
  52:../libdaisy/src/per/adc.h ****                  size_t       mux_channels,
  53:../libdaisy/src/per/adc.h ****                  dsy_gpio_pin mux_0,
  54:../libdaisy/src/per/adc.h ****                  dsy_gpio_pin mux_1 = {DSY_GPIOX, 0},
  55:../libdaisy/src/per/adc.h ****                  dsy_gpio_pin mux_2 = {DSY_GPIOX, 0});
  56:../libdaisy/src/per/adc.h **** 
  57:../libdaisy/src/per/adc.h ****     dsy_gpio pin_;                   /**< & */
  58:../libdaisy/src/per/adc.h ****     dsy_gpio mux_pin_[MUX_SEL_LAST]; /**< & */
  59:../libdaisy/src/per/adc.h ****     uint8_t  mux_channels_;          /**< & */
  60:../libdaisy/src/per/adc.h **** };
  61:../libdaisy/src/per/adc.h **** 
ARM GAS  /var/folders/0d/2ntwfkp1791d52chq7d_xwdm0000gn/T//cc0vrvH1.s 			page 7


  62:../libdaisy/src/per/adc.h **** /**
  63:../libdaisy/src/per/adc.h ****    Handler for analog to digital conversion
  64:../libdaisy/src/per/adc.h **** */
  65:../libdaisy/src/per/adc.h **** class AdcHandle
  66:../libdaisy/src/per/adc.h **** {
  67:../libdaisy/src/per/adc.h ****   public:
  68:../libdaisy/src/per/adc.h ****     /** Supported oversampling amounts */
  69:../libdaisy/src/per/adc.h ****     enum OverSampling
  70:../libdaisy/src/per/adc.h ****     {
  71:../libdaisy/src/per/adc.h ****         OVS_NONE, /**< & */
  72:../libdaisy/src/per/adc.h ****         OVS_4,    /**< & */
  73:../libdaisy/src/per/adc.h ****         OVS_8,    /**< & */
  74:../libdaisy/src/per/adc.h ****         OVS_16,   /**< & */
  75:../libdaisy/src/per/adc.h ****         OVS_32,   /**< & */
  76:../libdaisy/src/per/adc.h ****         OVS_64,   /**< & */
  77:../libdaisy/src/per/adc.h ****         OVS_128,  /**< & */
  78:../libdaisy/src/per/adc.h ****         OVS_256,  /**< & */
  79:../libdaisy/src/per/adc.h ****         OVS_512,  /**< & */
  80:../libdaisy/src/per/adc.h ****         OVS_1024, /**< & */
  81:../libdaisy/src/per/adc.h ****         OVS_LAST, /**< & */
  82:../libdaisy/src/per/adc.h ****     };
  83:../libdaisy/src/per/adc.h **** 
  84:../libdaisy/src/per/adc.h ****     AdcHandle() {}
  85:../libdaisy/src/per/adc.h ****     ~AdcHandle() {}
 100              		.loc 6 85 5 is_stmt 1 view .LVU9
 101              		.loc 6 85 5 is_stmt 0 view .LVU10
 102              	.LBE894:
 103              	.LBB895:
 104              	.LBI895:
 105              		.file 7 "../libdaisy/src/hid/audio.h"
   1:../libdaisy/src/hid/audio.h **** #ifndef DSY_AUDIO_H
   2:../libdaisy/src/hid/audio.h **** #define DSY_AUDIO_H /**< & */
   3:../libdaisy/src/hid/audio.h **** 
   4:../libdaisy/src/hid/audio.h **** #include "per/sai.h"
   5:../libdaisy/src/hid/audio.h **** 
   6:../libdaisy/src/hid/audio.h **** namespace daisy
   7:../libdaisy/src/hid/audio.h **** {
   8:../libdaisy/src/hid/audio.h **** class AudioHandle
   9:../libdaisy/src/hid/audio.h **** {
  10:../libdaisy/src/hid/audio.h ****   public:
  11:../libdaisy/src/hid/audio.h ****     /** Manually configurable details about the Audio Engine */
  12:../libdaisy/src/hid/audio.h ****     /** TODO: Figure out how to get samplerate in here. */
  13:../libdaisy/src/hid/audio.h ****     struct Config
  14:../libdaisy/src/hid/audio.h ****     {
  15:../libdaisy/src/hid/audio.h ****         size_t                        blocksize;
  16:../libdaisy/src/hid/audio.h ****         SaiHandle::Config::SampleRate samplerate;
  17:../libdaisy/src/hid/audio.h ****         float                         postgain;
  18:../libdaisy/src/hid/audio.h ****     };
  19:../libdaisy/src/hid/audio.h **** 
  20:../libdaisy/src/hid/audio.h ****     enum class Result
  21:../libdaisy/src/hid/audio.h ****     {
  22:../libdaisy/src/hid/audio.h ****         OK,
  23:../libdaisy/src/hid/audio.h ****         ERR,
  24:../libdaisy/src/hid/audio.h ****     };
  25:../libdaisy/src/hid/audio.h **** 
  26:../libdaisy/src/hid/audio.h ****     /** Non-Interleaving Callback format. Both arrays arranged by float[chn][sample] */
  27:../libdaisy/src/hid/audio.h ****     typedef void (*AudioCallback)(float** in, float** out, size_t size);
ARM GAS  /var/folders/0d/2ntwfkp1791d52chq7d_xwdm0000gn/T//cc0vrvH1.s 			page 8


  28:../libdaisy/src/hid/audio.h **** 
  29:../libdaisy/src/hid/audio.h ****     /** Non-Interleaving Callback format. 
  30:../libdaisy/src/hid/audio.h ****      ** audio is prepared as { L0, R0, L1, R1, . . . LN, RN }
  31:../libdaisy/src/hid/audio.h ****      */
  32:../libdaisy/src/hid/audio.h ****     typedef void (*InterleavingAudioCallback)(float* in,
  33:../libdaisy/src/hid/audio.h ****                                               float* out,
  34:../libdaisy/src/hid/audio.h ****                                               size_t size);
  35:../libdaisy/src/hid/audio.h **** 
  36:../libdaisy/src/hid/audio.h ****     AudioHandle() : pimpl_(nullptr) {}
  37:../libdaisy/src/hid/audio.h ****     ~AudioHandle() {}
 106              		.loc 7 37 5 is_stmt 1 view .LVU11
 107              		.loc 7 37 5 is_stmt 0 view .LVU12
 108              	.LBE895:
 109              		.loc 3 22 19 view .LVU13
 110 0000 7047     		bx	lr
 111              		.cfi_endproc
 112              	.LFE1703:
 114              		.weak	_ZN5daisy9DaisySeedD1Ev
 115              		.thumb_set _ZN5daisy9DaisySeedD1Ev,_ZN5daisy9DaisySeedD2Ev
 116 0002 00BF     		.section	.text._ZN7daisysp4AdsrD2Ev,"axG",%progbits,_ZN7daisysp4AdsrD5Ev,comdat
 117              		.align	1
 118              		.p2align 2,,3
 119              		.weak	_ZN7daisysp4AdsrD2Ev
 120              		.syntax unified
 121              		.thumb
 122              		.thumb_func
 123              		.fpu fpv5-d16
 125              	_ZN7daisysp4AdsrD2Ev:
 126              	.LVL3:
 127              	.LFB1726:
 128              		.file 8 "../DaisySP/Source/Control/adsr.h"
   1:../DaisySP/Source/Control/adsr.h **** #pragma once
   2:../DaisySP/Source/Control/adsr.h **** #ifndef DSY_ADSR_H
   3:../DaisySP/Source/Control/adsr.h **** #define DSY_ADSR_H
   4:../DaisySP/Source/Control/adsr.h **** 
   5:../DaisySP/Source/Control/adsr.h **** #include <stdint.h>
   6:../DaisySP/Source/Control/adsr.h **** #ifdef __cplusplus
   7:../DaisySP/Source/Control/adsr.h **** 
   8:../DaisySP/Source/Control/adsr.h **** namespace daisysp
   9:../DaisySP/Source/Control/adsr.h **** {
  10:../DaisySP/Source/Control/adsr.h **** /** Distinct stages that the phase of the envelope can be located in.
  11:../DaisySP/Source/Control/adsr.h **** - IDLE   = located at phase location 0, and not currently running
  12:../DaisySP/Source/Control/adsr.h **** - ATTACK  = First segment of envelope where phase moves from 0 to 1
  13:../DaisySP/Source/Control/adsr.h **** - DECAY   = Second segment of envelope where phase moves from 1 to SUSTAIN value
  14:../DaisySP/Source/Control/adsr.h **** - SUSTAIN = Third segment of envelope, stays at SUSTAIN level until GATE is released
  15:../DaisySP/Source/Control/adsr.h **** - RELEASE =     Fourth segment of envelop where phase moves from SUSTAIN to 0
  16:../DaisySP/Source/Control/adsr.h **** - LAST    =  Last segment, aka release
  17:../DaisySP/Source/Control/adsr.h **** */
  18:../DaisySP/Source/Control/adsr.h **** enum
  19:../DaisySP/Source/Control/adsr.h **** {
  20:../DaisySP/Source/Control/adsr.h ****     ADSR_SEG_IDLE,
  21:../DaisySP/Source/Control/adsr.h ****     ADSR_SEG_ATTACK,
  22:../DaisySP/Source/Control/adsr.h ****     ADSR_SEG_DECAY,
  23:../DaisySP/Source/Control/adsr.h ****     ADSR_SEG_SUSTAIN,
  24:../DaisySP/Source/Control/adsr.h ****     ADSR_SEG_RELEASE,
  25:../DaisySP/Source/Control/adsr.h ****     ADSR_SEG_LAST,
  26:../DaisySP/Source/Control/adsr.h **** };
ARM GAS  /var/folders/0d/2ntwfkp1791d52chq7d_xwdm0000gn/T//cc0vrvH1.s 			page 9


  27:../DaisySP/Source/Control/adsr.h **** 
  28:../DaisySP/Source/Control/adsr.h **** 
  29:../DaisySP/Source/Control/adsr.h **** /** adsr envelope module
  30:../DaisySP/Source/Control/adsr.h **** 
  31:../DaisySP/Source/Control/adsr.h **** Original author(s) : Paul Batchelor
  32:../DaisySP/Source/Control/adsr.h **** 
  33:../DaisySP/Source/Control/adsr.h **** Ported from Soundpipe by Ben Sergentanis, May 2020
  34:../DaisySP/Source/Control/adsr.h **** */
  35:../DaisySP/Source/Control/adsr.h **** class Adsr
  36:../DaisySP/Source/Control/adsr.h **** {
  37:../DaisySP/Source/Control/adsr.h ****   public:
  38:../DaisySP/Source/Control/adsr.h ****     Adsr() {}
  39:../DaisySP/Source/Control/adsr.h ****     ~Adsr() {}
 129              		.loc 8 39 5 is_stmt 1 view -0
 130              		.cfi_startproc
 131              		@ args = 0, pretend = 0, frame = 0
 132              		@ frame_needed = 0, uses_anonymous_args = 0
 133              		@ link register save eliminated.
 134              		.loc 8 39 14 is_stmt 0 view .LVU15
 135 0000 7047     		bx	lr
 136              		.cfi_endproc
 137              	.LFE1726:
 139              		.weak	_ZN7daisysp4AdsrD1Ev
 140              		.thumb_set _ZN7daisysp4AdsrD1Ev,_ZN7daisysp4AdsrD2Ev
 141 0002 00BF     		.section	.text._ZN7daisysp10OscillatorD2Ev,"axG",%progbits,_ZN7daisysp10OscillatorD5Ev,comdat
 142              		.align	1
 143              		.p2align 2,,3
 144              		.weak	_ZN7daisysp10OscillatorD2Ev
 145              		.syntax unified
 146              		.thumb
 147              		.thumb_func
 148              		.fpu fpv5-d16
 150              	_ZN7daisysp10OscillatorD2Ev:
 151              	.LVL4:
 152              	.LFB3340:
 153              		.file 9 "../DaisySP/Source/Synthesis/oscillator.h"
   1:../DaisySP/Source/Synthesis/oscillator.h **** #pragma once
   2:../DaisySP/Source/Synthesis/oscillator.h **** #ifndef DSY_OSCILLATOR_H
   3:../DaisySP/Source/Synthesis/oscillator.h **** #define DSY_OSCILLATOR_H
   4:../DaisySP/Source/Synthesis/oscillator.h **** #include <stdint.h>
   5:../DaisySP/Source/Synthesis/oscillator.h **** #include "Utility/dsp.h"
   6:../DaisySP/Source/Synthesis/oscillator.h **** #ifdef __cplusplus
   7:../DaisySP/Source/Synthesis/oscillator.h **** 
   8:../DaisySP/Source/Synthesis/oscillator.h **** namespace daisysp
   9:../DaisySP/Source/Synthesis/oscillator.h **** {
  10:../DaisySP/Source/Synthesis/oscillator.h **** /** Synthesis of several waveforms, including polyBLEP bandlimited waveforms.
  11:../DaisySP/Source/Synthesis/oscillator.h **** */
  12:../DaisySP/Source/Synthesis/oscillator.h **** class Oscillator
  13:../DaisySP/Source/Synthesis/oscillator.h **** {
  14:../DaisySP/Source/Synthesis/oscillator.h ****   public:
  15:../DaisySP/Source/Synthesis/oscillator.h ****     Oscillator() {}
  16:../DaisySP/Source/Synthesis/oscillator.h ****     ~Oscillator() {}
 154              		.loc 9 16 5 is_stmt 1 view -0
 155              		.cfi_startproc
 156              		@ args = 0, pretend = 0, frame = 0
 157              		@ frame_needed = 0, uses_anonymous_args = 0
 158              		@ link register save eliminated.
ARM GAS  /var/folders/0d/2ntwfkp1791d52chq7d_xwdm0000gn/T//cc0vrvH1.s 			page 10


 159              		.loc 9 16 20 is_stmt 0 view .LVU17
 160 0000 7047     		bx	lr
 161              		.cfi_endproc
 162              	.LFE3340:
 164              		.weak	_ZN7daisysp10OscillatorD1Ev
 165              		.thumb_set _ZN7daisysp10OscillatorD1Ev,_ZN7daisysp10OscillatorD2Ev
 166 0002 00BF     		.section	.text._ZN7daisysp3SvfD2Ev,"axG",%progbits,_ZN7daisysp3SvfD5Ev,comdat
 167              		.align	1
 168              		.p2align 2,,3
 169              		.weak	_ZN7daisysp3SvfD2Ev
 170              		.syntax unified
 171              		.thumb
 172              		.thumb_func
 173              		.fpu fpv5-d16
 175              	_ZN7daisysp3SvfD2Ev:
 176              	.LVL5:
 177              	.LFB3356:
 178              		.file 10 "../DaisySP/Source/Filters/svf.h"
   1:../DaisySP/Source/Filters/svf.h **** #pragma once
   2:../DaisySP/Source/Filters/svf.h **** #ifndef DSY_SVF_H
   3:../DaisySP/Source/Filters/svf.h **** #define DSY_SVF_H
   4:../DaisySP/Source/Filters/svf.h **** 
   5:../DaisySP/Source/Filters/svf.h **** namespace daisysp
   6:../DaisySP/Source/Filters/svf.h **** {
   7:../DaisySP/Source/Filters/svf.h **** /**      Double Sampled, Stable State Variable Filter
   8:../DaisySP/Source/Filters/svf.h **** 
   9:../DaisySP/Source/Filters/svf.h **** Credit to Andrew Simper from musicdsp.org
  10:../DaisySP/Source/Filters/svf.h **** 
  11:../DaisySP/Source/Filters/svf.h **** This is his "State Variable Filter (Double Sampled, Stable)"
  12:../DaisySP/Source/Filters/svf.h **** 
  13:../DaisySP/Source/Filters/svf.h **** Additional thanks to Laurent de Soras for stability limit, and 
  14:../DaisySP/Source/Filters/svf.h **** Stefan Diedrichsen for the correct notch output
  15:../DaisySP/Source/Filters/svf.h **** 
  16:../DaisySP/Source/Filters/svf.h **** Ported by: Stephen Hensley
  17:../DaisySP/Source/Filters/svf.h **** */
  18:../DaisySP/Source/Filters/svf.h **** class Svf
  19:../DaisySP/Source/Filters/svf.h **** {
  20:../DaisySP/Source/Filters/svf.h ****   public:
  21:../DaisySP/Source/Filters/svf.h ****     Svf() {}
  22:../DaisySP/Source/Filters/svf.h ****     ~Svf() {}
 179              		.loc 10 22 5 is_stmt 1 view -0
 180              		.cfi_startproc
 181              		@ args = 0, pretend = 0, frame = 0
 182              		@ frame_needed = 0, uses_anonymous_args = 0
 183              		@ link register save eliminated.
 184              		.loc 10 22 13 is_stmt 0 view .LVU19
 185 0000 7047     		bx	lr
 186              		.cfi_endproc
 187              	.LFE3356:
 189              		.weak	_ZN7daisysp3SvfD1Ev
 190              		.thumb_set _ZN7daisysp3SvfD1Ev,_ZN7daisysp3SvfD2Ev
 191 0002 00BF     		.section	.text._ZN7daisysp9CrossFadeD2Ev,"axG",%progbits,_ZN7daisysp9CrossFadeD5Ev,comdat
 192              		.align	1
 193              		.p2align 2,,3
 194              		.weak	_ZN7daisysp9CrossFadeD2Ev
 195              		.syntax unified
 196              		.thumb
ARM GAS  /var/folders/0d/2ntwfkp1791d52chq7d_xwdm0000gn/T//cc0vrvH1.s 			page 11


 197              		.thumb_func
 198              		.fpu fpv5-d16
 200              	_ZN7daisysp9CrossFadeD2Ev:
 201              	.LVL6:
 202              	.LFB3461:
 203              		.file 11 "../DaisySP/Source/Dynamics/crossfade.h"
   1:../DaisySP/Source/Dynamics/crossfade.h **** #pragma once
   2:../DaisySP/Source/Dynamics/crossfade.h **** #ifndef DSY_CROSSFADE_H
   3:../DaisySP/Source/Dynamics/crossfade.h **** #define DSY_CROSSFADE_H
   4:../DaisySP/Source/Dynamics/crossfade.h **** #include <stdint.h>
   5:../DaisySP/Source/Dynamics/crossfade.h **** #ifdef __cplusplus
   6:../DaisySP/Source/Dynamics/crossfade.h **** 
   7:../DaisySP/Source/Dynamics/crossfade.h **** namespace daisysp
   8:../DaisySP/Source/Dynamics/crossfade.h **** {
   9:../DaisySP/Source/Dynamics/crossfade.h **** /** Curve applied to the CrossFade
  10:../DaisySP/Source/Dynamics/crossfade.h **** - LIN = linear
  11:../DaisySP/Source/Dynamics/crossfade.h **** - CPOW = constant power
  12:../DaisySP/Source/Dynamics/crossfade.h **** - LOG = logarithmic
  13:../DaisySP/Source/Dynamics/crossfade.h **** - EXP  exponential
  14:../DaisySP/Source/Dynamics/crossfade.h **** - LAST = end of enum (used for array indexing)
  15:../DaisySP/Source/Dynamics/crossfade.h **** */
  16:../DaisySP/Source/Dynamics/crossfade.h **** enum
  17:../DaisySP/Source/Dynamics/crossfade.h **** {
  18:../DaisySP/Source/Dynamics/crossfade.h ****     CROSSFADE_LIN,
  19:../DaisySP/Source/Dynamics/crossfade.h ****     CROSSFADE_CPOW,
  20:../DaisySP/Source/Dynamics/crossfade.h ****     CROSSFADE_LOG,
  21:../DaisySP/Source/Dynamics/crossfade.h ****     CROSSFADE_EXP,
  22:../DaisySP/Source/Dynamics/crossfade.h ****     CROSSFADE_LAST,
  23:../DaisySP/Source/Dynamics/crossfade.h **** };
  24:../DaisySP/Source/Dynamics/crossfade.h **** 
  25:../DaisySP/Source/Dynamics/crossfade.h **** /** Performs a CrossFade between two signals
  26:../DaisySP/Source/Dynamics/crossfade.h **** 
  27:../DaisySP/Source/Dynamics/crossfade.h ****     Original author: Paul Batchelor
  28:../DaisySP/Source/Dynamics/crossfade.h **** 
  29:../DaisySP/Source/Dynamics/crossfade.h ****     Ported from Soundpipe by Andrew Ikenberry
  30:../DaisySP/Source/Dynamics/crossfade.h **** 
  31:../DaisySP/Source/Dynamics/crossfade.h ****     added curve option for constant power, etc.
  32:../DaisySP/Source/Dynamics/crossfade.h **** */
  33:../DaisySP/Source/Dynamics/crossfade.h **** class CrossFade
  34:../DaisySP/Source/Dynamics/crossfade.h **** {
  35:../DaisySP/Source/Dynamics/crossfade.h ****   public:
  36:../DaisySP/Source/Dynamics/crossfade.h ****     CrossFade() {}
  37:../DaisySP/Source/Dynamics/crossfade.h ****     ~CrossFade() {}
 204              		.loc 11 37 5 is_stmt 1 view -0
 205              		.cfi_startproc
 206              		@ args = 0, pretend = 0, frame = 0
 207              		@ frame_needed = 0, uses_anonymous_args = 0
 208              		@ link register save eliminated.
 209              		.loc 11 37 19 is_stmt 0 view .LVU21
 210 0000 7047     		bx	lr
 211              		.cfi_endproc
 212              	.LFE3461:
 214              		.weak	_ZN7daisysp9CrossFadeD1Ev
 215              		.thumb_set _ZN7daisysp9CrossFadeD1Ev,_ZN7daisysp9CrossFadeD2Ev
 216 0002 00BF     		.section	.text._ZN7daisysp7DcBlockD2Ev,"axG",%progbits,_ZN7daisysp7DcBlockD5Ev,comdat
 217              		.align	1
 218              		.p2align 2,,3
ARM GAS  /var/folders/0d/2ntwfkp1791d52chq7d_xwdm0000gn/T//cc0vrvH1.s 			page 12


 219              		.weak	_ZN7daisysp7DcBlockD2Ev
 220              		.syntax unified
 221              		.thumb
 222              		.thumb_func
 223              		.fpu fpv5-d16
 225              	_ZN7daisysp7DcBlockD2Ev:
 226              	.LVL7:
 227              	.LFB3753:
 228              		.file 12 "../DaisySP/Source/Utility/dcblock.h"
   1:../DaisySP/Source/Utility/dcblock.h **** 
   2:../DaisySP/Source/Utility/dcblock.h **** #pragma once
   3:../DaisySP/Source/Utility/dcblock.h **** #ifndef DSY_DCBLOCK_H
   4:../DaisySP/Source/Utility/dcblock.h **** #define DSY_DCBLOCK_H
   5:../DaisySP/Source/Utility/dcblock.h **** #ifdef __cplusplus
   6:../DaisySP/Source/Utility/dcblock.h **** 
   7:../DaisySP/Source/Utility/dcblock.h **** namespace daisysp
   8:../DaisySP/Source/Utility/dcblock.h **** {
   9:../DaisySP/Source/Utility/dcblock.h **** /** Removes DC component of a signal
  10:../DaisySP/Source/Utility/dcblock.h ****     */
  11:../DaisySP/Source/Utility/dcblock.h **** class DcBlock
  12:../DaisySP/Source/Utility/dcblock.h **** {
  13:../DaisySP/Source/Utility/dcblock.h ****   public:
  14:../DaisySP/Source/Utility/dcblock.h ****     DcBlock(){};
  15:../DaisySP/Source/Utility/dcblock.h ****     ~DcBlock(){};
 229              		.loc 12 15 5 is_stmt 1 view -0
 230              		.cfi_startproc
 231              		@ args = 0, pretend = 0, frame = 0
 232              		@ frame_needed = 0, uses_anonymous_args = 0
 233              		@ link register save eliminated.
 234              		.loc 12 15 16 is_stmt 0 view .LVU23
 235 0000 7047     		bx	lr
 236              		.cfi_endproc
 237              	.LFE3753:
 239              		.weak	_ZN7daisysp7DcBlockD1Ev
 240              		.thumb_set _ZN7daisysp7DcBlockD1Ev,_ZN7daisysp7DcBlockD2Ev
 241 0002 00BF     		.section	.text._ZN7daisysp9EnvFollowD2Ev,"axG",%progbits,_ZN7daisysp9EnvFollowD5Ev,comdat
 242              		.align	1
 243              		.p2align 2,,3
 244              		.weak	_ZN7daisysp9EnvFollowD2Ev
 245              		.syntax unified
 246              		.thumb
 247              		.thumb_func
 248              		.fpu fpv5-d16
 250              	_ZN7daisysp9EnvFollowD2Ev:
 251              	.LVL8:
 252              	.LFB3940:
 253              		.file 13 "envFollow.h"
   1:envFollow.h   **** // Copyright 2021 Adam Fulford
   2:envFollow.h   **** // 
   3:envFollow.h   **** // Permission is hereby granted, free of charge, to any person obtaining a copy
   4:envFollow.h   **** // of this software and associated documentation files (the "Software"), to deal
   5:envFollow.h   **** // in the Software without restriction, including without limitation the rights
   6:envFollow.h   **** // to use, copy, modify, merge, publish, distribute, sublicense, and/or sell
   7:envFollow.h   **** // copies of the Software, and to permit persons to whom the Software is
   8:envFollow.h   **** // furnished to do so, subject to the following conditions:
   9:envFollow.h   **** // 
  10:envFollow.h   **** // The above copyright notice and this permission notice shall be included in
ARM GAS  /var/folders/0d/2ntwfkp1791d52chq7d_xwdm0000gn/T//cc0vrvH1.s 			page 13


  11:envFollow.h   **** // all copies or substantial portions of the Software.
  12:envFollow.h   **** // 
  13:envFollow.h   **** // THE SOFTWARE IS PROVIDED "AS IS", WITHOUT WARRANTY OF ANY KIND, EXPRESS OR
  14:envFollow.h   **** // IMPLIED, INCLUDING BUT NOT LIMITED TO THE WARRANTIES OF MERCHANTABILITY,
  15:envFollow.h   **** // FITNESS FOR A PARTICULAR PURPOSE AND NONINFRINGEMENT. IN NO EVENT SHALL THE
  16:envFollow.h   **** // AUTHORS OR COPYRIGHT HOLDERS BE LIABLE FOR ANY CLAIM, DAMAGES OR OTHER
  17:envFollow.h   **** // LIABILITY, WHETHER IN AN ACTION OF CONTRACT, TORT OR OTHERWISE, ARISING FROM,
  18:envFollow.h   **** // OUT OF OR IN CONNECTION WITH THE SOFTWARE OR THE USE OR OTHER DEALINGS IN
  19:envFollow.h   **** // THE SOFTWARE.
  20:envFollow.h   **** // 
  21:envFollow.h   **** // See http://creativecommons.org/licenses/MIT/ for more information.
  22:envFollow.h   **** 
  23:envFollow.h   **** #ifndef ENV_FOLLOW_H
  24:envFollow.h   **** #define ENV_FOLLOW_H
  25:envFollow.h   **** #include <math.h>
  26:envFollow.h   **** 
  27:envFollow.h   **** namespace daisysp
  28:envFollow.h   **** {
  29:envFollow.h   **** 
  30:envFollow.h   **** class EnvFollow
  31:envFollow.h   **** {
  32:envFollow.h   ****     private:
  33:envFollow.h   ****     
  34:envFollow.h   ****     float avg;      //exp average of input
  35:envFollow.h   ****     float pos_sample;   //positive sample
  36:envFollow.h   ****     float sample_noDC;  //no DC sample
  37:envFollow.h   ****     float avg_env;  //average envelope
  38:envFollow.h   ****     float w;        //weighting
  39:envFollow.h   ****     float w_env;    //envelope weighting
  40:envFollow.h   **** 
  41:envFollow.h   ****     public:
  42:envFollow.h   **** 
  43:envFollow.h   ****     EnvFollow() //default constructor
  44:envFollow.h   ****     {
  45:envFollow.h   ****         avg = 0.0f;      //exp average of input
  46:envFollow.h   ****         pos_sample = 0.0f;   //positive sample
  47:envFollow.h   ****         avg_env = 0.0f;  //average envelope
  48:envFollow.h   ****         w = 0.0001f;        //weighting
  49:envFollow.h   ****         w_env = 0.0001f;    //envelope weighting
  50:envFollow.h   ****         sample_noDC = 0.0f;
  51:envFollow.h   ****     }  
  52:envFollow.h   ****     ~EnvFollow() {}
 254              		.loc 13 52 5 is_stmt 1 view -0
 255              		.cfi_startproc
 256              		@ args = 0, pretend = 0, frame = 0
 257              		@ frame_needed = 0, uses_anonymous_args = 0
 258              		@ link register save eliminated.
 259              		.loc 13 52 19 is_stmt 0 view .LVU25
 260 0000 7047     		bx	lr
 261              		.cfi_endproc
 262              	.LFE3940:
 264              		.weak	_ZN7daisysp9EnvFollowD1Ev
 265              		.thumb_set _ZN7daisysp9EnvFollowD1Ev,_ZN7daisysp9EnvFollowD2Ev
 266 0002 00BF     		.section	.text._ZN8TaptempoD2Ev,"axG",%progbits,_ZN8TaptempoD5Ev,comdat
 267              		.align	1
 268              		.p2align 2,,3
 269              		.weak	_ZN8TaptempoD2Ev
ARM GAS  /var/folders/0d/2ntwfkp1791d52chq7d_xwdm0000gn/T//cc0vrvH1.s 			page 14


 270              		.syntax unified
 271              		.thumb
 272              		.thumb_func
 273              		.fpu fpv5-d16
 275              	_ZN8TaptempoD2Ev:
 276              	.LVL9:
 277              	.LFB3947:
 278              		.file 14 "taptempo.h"
   1:taptempo.h    **** // Copyright 2021 Adam Fulford
   2:taptempo.h    **** // 
   3:taptempo.h    **** // Permission is hereby granted, free of charge, to any person obtaining a copy
   4:taptempo.h    **** // of this software and associated documentation files (the "Software"), to deal
   5:taptempo.h    **** // in the Software without restriction, including without limitation the rights
   6:taptempo.h    **** // to use, copy, modify, merge, publish, distribute, sublicense, and/or sell
   7:taptempo.h    **** // copies of the Software, and to permit persons to whom the Software is
   8:taptempo.h    **** // furnished to do so, subject to the following conditions:
   9:taptempo.h    **** // 
  10:taptempo.h    **** // The above copyright notice and this permission notice shall be included in
  11:taptempo.h    **** // all copies or substantial portions of the Software.
  12:taptempo.h    **** // 
  13:taptempo.h    **** // THE SOFTWARE IS PROVIDED "AS IS", WITHOUT WARRANTY OF ANY KIND, EXPRESS OR
  14:taptempo.h    **** // IMPLIED, INCLUDING BUT NOT LIMITED TO THE WARRANTIES OF MERCHANTABILITY,
  15:taptempo.h    **** // FITNESS FOR A PARTICULAR PURPOSE AND NONINFRINGEMENT. IN NO EVENT SHALL THE
  16:taptempo.h    **** // AUTHORS OR COPYRIGHT HOLDERS BE LIABLE FOR ANY CLAIM, DAMAGES OR OTHER
  17:taptempo.h    **** // LIABILITY, WHETHER IN AN ACTION OF CONTRACT, TORT OR OTHERWISE, ARISING FROM,
  18:taptempo.h    **** // OUT OF OR IN CONNECTION WITH THE SOFTWARE OR THE USE OR OTHER DEALINGS IN
  19:taptempo.h    **** // THE SOFTWARE.
  20:taptempo.h    **** // 
  21:taptempo.h    **** // See http://creativecommons.org/licenses/MIT/ for more information.
  22:taptempo.h    **** 
  23:taptempo.h    **** #ifndef TAP_TEMPO_H
  24:taptempo.h    **** #define TAP_TEMPO_H
  25:taptempo.h    **** 
  26:taptempo.h    **** #include "daisysp.h"
  27:taptempo.h    **** #include "daisy_seed.h"
  28:taptempo.h    **** 
  29:taptempo.h    **** using namespace daisy;
  30:taptempo.h    **** using namespace daisysp;
  31:taptempo.h    **** 
  32:taptempo.h    **** class Taptempo
  33:taptempo.h    **** {
  34:taptempo.h    ****     private:
  35:taptempo.h    ****         uint32_t mintap_,maxtap_;
  36:taptempo.h    ****         uint32_t currentTime_,currentClockTime_,lastTime_,lastClockTime_,lastTapLength_,tapLength_;
  37:taptempo.h    ****         uint32_t clockLength_, lastClockLength_, clockThresh_,tempo_;
  38:taptempo.h    ****         bool tapflag_;
  39:taptempo.h    ****         float tap_tolerance_,tempoFloat_;
  40:taptempo.h    ****         float tapRatio_;
  41:taptempo.h    ****         int PPQN_;
  42:taptempo.h    **** 
  43:taptempo.h    ****     public:
  44:taptempo.h    **** 
  45:taptempo.h    ****     Taptempo()  //default constructor
  46:taptempo.h    ****     {
  47:taptempo.h    ****         tapflag_ = false;
  48:taptempo.h    ****         tap_tolerance_ = 1.25f;
  49:taptempo.h    ****         maxtap_ = 2000000;
ARM GAS  /var/folders/0d/2ntwfkp1791d52chq7d_xwdm0000gn/T//cc0vrvH1.s 			page 15


  50:taptempo.h    ****         mintap_ = 80000;
  51:taptempo.h    ****         lastTapLength_ = 0;
  52:taptempo.h    ****         tempo_ = 500000.0f;
  53:taptempo.h    ****         lastTime_ = 0;
  54:taptempo.h    ****         currentTime_ = 0;
  55:taptempo.h    ****         tapRatio_ = 1.0f;
  56:taptempo.h    ****         clockLength_ = 0;
  57:taptempo.h    ****         lastClockLength_ = 0;
  58:taptempo.h    ****         clockThresh_ = 10000; //Us change
  59:taptempo.h    ****         PPQN_=24;
  60:taptempo.h    ****     }
  61:taptempo.h    ****     ~Taptempo() {}
 279              		.loc 14 61 5 is_stmt 1 view -0
 280              		.cfi_startproc
 281              		@ args = 0, pretend = 0, frame = 0
 282              		@ frame_needed = 0, uses_anonymous_args = 0
 283              		@ link register save eliminated.
 284              		.loc 14 61 18 is_stmt 0 view .LVU27
 285 0000 7047     		bx	lr
 286              		.cfi_endproc
 287              	.LFE3947:
 289              		.weak	_ZN8TaptempoD1Ev
 290              		.thumb_set _ZN8TaptempoD1Ev,_ZN8TaptempoD2Ev
 291 0002 00BF     		.section	.text._ZN8TempoLEDD2Ev,"axG",%progbits,_ZN8TempoLEDD5Ev,comdat
 292              		.align	1
 293              		.p2align 2,,3
 294              		.weak	_ZN8TempoLEDD2Ev
 295              		.syntax unified
 296              		.thumb
 297              		.thumb_func
 298              		.fpu fpv5-d16
 300              	_ZN8TempoLEDD2Ev:
 301              	.LVL10:
 302              	.LFB3970:
 303              		.file 15 "LEDs.h"
   1:LEDs.h        **** // Copyright 2021 Adam Fulford
   2:LEDs.h        **** // 
   3:LEDs.h        **** // Permission is hereby granted, free of charge, to any person obtaining a copy
   4:LEDs.h        **** // of this software and associated documentation files (the "Software"), to deal
   5:LEDs.h        **** // in the Software without restriction, including without limitation the rights
   6:LEDs.h        **** // to use, copy, modify, merge, publish, distribute, sublicense, and/or sell
   7:LEDs.h        **** // copies of the Software, and to permit persons to whom the Software is
   8:LEDs.h        **** // furnished to do so, subject to the following conditions:
   9:LEDs.h        **** // 
  10:LEDs.h        **** // The above copyright notice and this permission notice shall be included in
  11:LEDs.h        **** // all copies or substantial portions of the Software.
  12:LEDs.h        **** // 
  13:LEDs.h        **** // THE SOFTWARE IS PROVIDED "AS IS", WITHOUT WARRANTY OF ANY KIND, EXPRESS OR
  14:LEDs.h        **** // IMPLIED, INCLUDING BUT NOT LIMITED TO THE WARRANTIES OF MERCHANTABILITY,
  15:LEDs.h        **** // FITNESS FOR A PARTICULAR PURPOSE AND NONINFRINGEMENT. IN NO EVENT SHALL THE
  16:LEDs.h        **** // AUTHORS OR COPYRIGHT HOLDERS BE LIABLE FOR ANY CLAIM, DAMAGES OR OTHER
  17:LEDs.h        **** // LIABILITY, WHETHER IN AN ACTION OF CONTRACT, TORT OR OTHERWISE, ARISING FROM,
  18:LEDs.h        **** // OUT OF OR IN CONNECTION WITH THE SOFTWARE OR THE USE OR OTHER DEALINGS IN
  19:LEDs.h        **** // THE SOFTWARE.
  20:LEDs.h        **** // 
  21:LEDs.h        **** // See http://creativecommons.org/licenses/MIT/ for more information.
  22:LEDs.h        **** 
ARM GAS  /var/folders/0d/2ntwfkp1791d52chq7d_xwdm0000gn/T//cc0vrvH1.s 			page 16


  23:LEDs.h        **** #ifndef LEDS_H
  24:LEDs.h        **** #define LEDS_H
  25:LEDs.h        **** 
  26:LEDs.h        **** #include "daisysp.h"
  27:LEDs.h        **** #include "daisy_seed.h"
  28:LEDs.h        **** #include "oscillator_p.h"
  29:LEDs.h        **** #include "constants.h"
  30:LEDs.h        **** 
  31:LEDs.h        **** using namespace daisysp;
  32:LEDs.h        **** using namespace daisy;
  33:LEDs.h        **** 
  34:LEDs.h        **** class TempoLED
  35:LEDs.h        **** {
  36:LEDs.h        **** 
  37:LEDs.h        **** Led led;
  38:LEDs.h        **** Oscillator_p blink;
  39:LEDs.h        **** TempoDivs div_last_;
  40:LEDs.h        **** //int phaseCounter_;
  41:LEDs.h        **** //int div_int;
  42:LEDs.h        **** //float phase_last_;
  43:LEDs.h        **** float GetDivInt(TempoDivs div);
  44:LEDs.h        **** 
  45:LEDs.h        **** public:
  46:LEDs.h        **** 
  47:LEDs.h        **** TempoLED(){}
  48:LEDs.h        **** ~TempoLED(){}   //destructor
 304              		.loc 15 48 1 is_stmt 1 view -0
 305              		.cfi_startproc
 306              		@ args = 0, pretend = 0, frame = 0
 307              		@ frame_needed = 0, uses_anonymous_args = 0
 308              		@ link register save eliminated.
 309              	.LBB896:
 310              	.LBI896:
 311              		.file 16 "oscillator_p.h"
   1:oscillator_p.h **** #pragma once
   2:oscillator_p.h **** #ifndef DSY_OSCILLATOR_P_H
   3:oscillator_p.h **** #define DSY_OSCILLATOR_P_H
   4:oscillator_p.h **** #include <stdint.h>
   5:oscillator_p.h **** #include "Utility/dsp.h"
   6:oscillator_p.h **** #ifdef __cplusplus
   7:oscillator_p.h **** 
   8:oscillator_p.h **** namespace daisysp
   9:oscillator_p.h **** {
  10:oscillator_p.h **** /** Synthesis of several waveforms, including polyBLEP bandlimited waveforms.
  11:oscillator_p.h **** */
  12:oscillator_p.h **** class Oscillator_p
  13:oscillator_p.h **** {
  14:oscillator_p.h ****   public:
  15:oscillator_p.h ****     Oscillator_p() {}
  16:oscillator_p.h ****     ~Oscillator_p() {}
 312              		.loc 16 16 5 view .LVU29
 313              		.loc 16 16 5 is_stmt 0 view .LVU30
 314              	.LBE896:
 315              	.LBB897:
 316              	.LBI897:
 317              		.file 17 "../libdaisy/src/hid/led.h"
   1:../libdaisy/src/hid/led.h **** 
ARM GAS  /var/folders/0d/2ntwfkp1791d52chq7d_xwdm0000gn/T//cc0vrvH1.s 			page 17


   2:../libdaisy/src/hid/led.h **** #pragma once
   3:../libdaisy/src/hid/led.h **** #ifndef DSY_LED_H
   4:../libdaisy/src/hid/led.h **** #define DSY_LED_H
   5:../libdaisy/src/hid/led.h **** #include "daisy_core.h"
   6:../libdaisy/src/hid/led.h **** #include "per/gpio.h"
   7:../libdaisy/src/hid/led.h **** 
   8:../libdaisy/src/hid/led.h **** /* TODO - Get this set up to work with the dev_leddriver stuff as well
   9:../libdaisy/src/hid/led.h **** - Setup Hardware PWM for pins that have it
  10:../libdaisy/src/hid/led.h **** */
  11:../libdaisy/src/hid/led.h **** 
  12:../libdaisy/src/hid/led.h **** namespace daisy
  13:../libdaisy/src/hid/led.h **** {
  14:../libdaisy/src/hid/led.h **** /**
  15:../libdaisy/src/hid/led.h ****     @brief LED Class providing simple Software PWM ability, etc \n 
  16:../libdaisy/src/hid/led.h ****     Eventually this will work with hardware PWM, and external LED Driver devices as well.
  17:../libdaisy/src/hid/led.h ****     @author shensley
  18:../libdaisy/src/hid/led.h ****     @date March 2020
  19:../libdaisy/src/hid/led.h ****     @ingroup feedback
  20:../libdaisy/src/hid/led.h **** */
  21:../libdaisy/src/hid/led.h **** class Led
  22:../libdaisy/src/hid/led.h **** {
  23:../libdaisy/src/hid/led.h ****   public:
  24:../libdaisy/src/hid/led.h ****     Led() {}
  25:../libdaisy/src/hid/led.h ****     ~Led() {}
 318              		.loc 17 25 5 is_stmt 1 view .LVU31
 319              		.loc 17 25 5 is_stmt 0 view .LVU32
 320              	.LBE897:
 321              		.loc 15 48 13 view .LVU33
 322 0000 7047     		bx	lr
 323              		.cfi_endproc
 324              	.LFE3970:
 326              		.weak	_ZN8TempoLEDD1Ev
 327              		.thumb_set _ZN8TempoLEDD1Ev,_ZN8TempoLEDD2Ev
 328 0002 00BF     		.section	.text._ZN9ButtonLEDD2Ev,"axG",%progbits,_ZN9ButtonLEDD5Ev,comdat
 329              		.align	1
 330              		.p2align 2,,3
 331              		.weak	_ZN9ButtonLEDD2Ev
 332              		.syntax unified
 333              		.thumb
 334              		.thumb_func
 335              		.fpu fpv5-d16
 337              	_ZN9ButtonLEDD2Ev:
 338              	.LVL11:
 339              	.LFB3977:
  49:LEDs.h        **** 
  50:LEDs.h        **** void init(dsy_gpio_pin ledpin, float samplerate);  //led pin number
  51:LEDs.h        **** 
  52:LEDs.h        **** void setTempo(float tempo);
  53:LEDs.h        **** 
  54:LEDs.h        **** void resetPhase();
  55:LEDs.h        **** 
  56:LEDs.h        **** void resetPhaseCounter();
  57:LEDs.h        **** 
  58:LEDs.h        **** //update using oscillator
  59:LEDs.h        **** void update();
  60:LEDs.h        **** 
  61:LEDs.h        **** //update using external sync
ARM GAS  /var/folders/0d/2ntwfkp1791d52chq7d_xwdm0000gn/T//cc0vrvH1.s 			page 18


  62:LEDs.h        **** void update(TempoDivs div, float phase);
  63:LEDs.h        **** 
  64:LEDs.h        **** void LED_set(float brightness);
  65:LEDs.h        **** 
  66:LEDs.h        **** bool isEOC();
  67:LEDs.h        **** 
  68:LEDs.h        **** //high if just had a div change
  69:LEDs.h        **** //bool divChange();
  70:LEDs.h        **** 
  71:LEDs.h        **** float GetPhase() { return blink.GetPhase(); }
  72:LEDs.h        **** 
  73:LEDs.h        **** };
  74:LEDs.h        **** 
  75:LEDs.h        **** class ButtonLED    //button with status LED
  76:LEDs.h        **** {
  77:LEDs.h        ****     public:
  78:LEDs.h        ****     ButtonLED() {}
  79:LEDs.h        ****     ~ButtonLED() {}
 340              		.loc 15 79 5 is_stmt 1 view -0
 341              		.cfi_startproc
 342              		@ args = 0, pretend = 0, frame = 0
 343              		@ frame_needed = 0, uses_anonymous_args = 0
 344              		@ link register save eliminated.
 345              	.LBB898:
 346              	.LBI898:
 347              		.loc 17 25 5 view .LVU35
 348              		.loc 17 25 5 is_stmt 0 view .LVU36
 349              	.LBE898:
 350              	.LBB899:
 351              	.LBI899:
 352              		.loc 1 41 5 is_stmt 1 view .LVU37
 353              		.loc 1 41 5 is_stmt 0 view .LVU38
 354              	.LBE899:
 355              		.loc 15 79 19 view .LVU39
 356 0000 7047     		bx	lr
 357              		.cfi_endproc
 358              	.LFE3977:
 360              		.weak	_ZN9ButtonLEDD1Ev
 361              		.thumb_set _ZN9ButtonLEDD1Ev,_ZN9ButtonLEDD2Ev
 362 0002 00BF     		.section	.text._ZN10DelayMultiD2Ev,"axG",%progbits,_ZN10DelayMultiD5Ev,comdat
 363              		.align	1
 364              		.p2align 2,,3
 365              		.weak	_ZN10DelayMultiD2Ev
 366              		.syntax unified
 367              		.thumb
 368              		.thumb_func
 369              		.fpu fpv5-d16
 371              	_ZN10DelayMultiD2Ev:
 372              	.LVL12:
 373              	.LFB3983:
 374              		.file 18 "DelayMulti.h"
   1:DelayMulti.h  **** // Copyright 2021 Adam Fulford
   2:DelayMulti.h  **** // 
   3:DelayMulti.h  **** // Permission is hereby granted, free of charge, to any person obtaining a copy
   4:DelayMulti.h  **** // of this software and associated documentation files (the "Software"), to deal
   5:DelayMulti.h  **** // in the Software without restriction, including without limitation the rights
   6:DelayMulti.h  **** // to use, copy, modify, merge, publish, distribute, sublicense, and/or sell
ARM GAS  /var/folders/0d/2ntwfkp1791d52chq7d_xwdm0000gn/T//cc0vrvH1.s 			page 19


   7:DelayMulti.h  **** // copies of the Software, and to permit persons to whom the Software is
   8:DelayMulti.h  **** // furnished to do so, subject to the following conditions:
   9:DelayMulti.h  **** // 
  10:DelayMulti.h  **** // The above copyright notice and this permission notice shall be included in
  11:DelayMulti.h  **** // all copies or substantial portions of the Software.
  12:DelayMulti.h  **** // 
  13:DelayMulti.h  **** // THE SOFTWARE IS PROVIDED "AS IS", WITHOUT WARRANTY OF ANY KIND, EXPRESS OR
  14:DelayMulti.h  **** // IMPLIED, INCLUDING BUT NOT LIMITED TO THE WARRANTIES OF MERCHANTABILITY,
  15:DelayMulti.h  **** // FITNESS FOR A PARTICULAR PURPOSE AND NONINFRINGEMENT. IN NO EVENT SHALL THE
  16:DelayMulti.h  **** // AUTHORS OR COPYRIGHT HOLDERS BE LIABLE FOR ANY CLAIM, DAMAGES OR OTHER
  17:DelayMulti.h  **** // LIABILITY, WHETHER IN AN ACTION OF CONTRACT, TORT OR OTHERWISE, ARISING FROM,
  18:DelayMulti.h  **** // OUT OF OR IN CONNECTION WITH THE SOFTWARE OR THE USE OR OTHER DEALINGS IN
  19:DelayMulti.h  **** // THE SOFTWARE.
  20:DelayMulti.h  **** // 
  21:DelayMulti.h  **** // See http://creativecommons.org/licenses/MIT/ for more information.
  22:DelayMulti.h  **** 
  23:DelayMulti.h  **** #ifndef DELAYMULTI_H
  24:DelayMulti.h  **** #define DELAYMULTI_H
  25:DelayMulti.h  **** 
  26:DelayMulti.h  **** #include "daisysp.h"
  27:DelayMulti.h  **** #include "daisy_seed.h"
  28:DelayMulti.h  **** #include "delayline_multitap.h" //modified delayline
  29:DelayMulti.h  **** #include "constants.h"
  30:DelayMulti.h  **** #include "LEDs.h"
  31:DelayMulti.h  **** #include "scale.h"
  32:DelayMulti.h  **** 
  33:DelayMulti.h  **** using namespace daisysp;
  34:DelayMulti.h  **** using namespace daisy;
  35:DelayMulti.h  **** 
  36:DelayMulti.h  **** constexpr size_t numHeads{1};
  37:DelayMulti.h  **** //constexpr size_t numHeadsSets{2};
  38:DelayMulti.h  **** constexpr size_t totalNumHeads{2};
  39:DelayMulti.h  **** 
  40:DelayMulti.h  **** constexpr float delaytime_threshold{50};   //in samples
  41:DelayMulti.h  **** constexpr uint32_t timethresh{25}; //length of wait before triggering xfade (used to be 75)
  42:DelayMulti.h  **** 
  43:DelayMulti.h  **** class DelayMulti
  44:DelayMulti.h  **** {
  45:DelayMulti.h  **** public:
  46:DelayMulti.h  **** DelayLineMultiTap <float, static_cast<size_t>(48000 * 36.0f)>  *del; //36 second buffer
  47:DelayMulti.h  **** //tempoLED
  48:DelayMulti.h  **** TempoLED tempoled;
  49:DelayMulti.h  **** DelayMulti() {}
  50:DelayMulti.h  **** ~DelayMulti() {}
 375              		.loc 18 50 1 is_stmt 1 view -0
 376              		.cfi_startproc
 377              		@ args = 0, pretend = 0, frame = 0
 378              		@ frame_needed = 0, uses_anonymous_args = 0
 379              		@ link register save eliminated.
 380              	.LBB900:
 381              	.LBI900:
  48:LEDs.h        **** 
 382              		.loc 15 48 1 view .LVU41
 383              	.LBB901:
 384              	.LBI901:
 385              		.loc 16 16 5 view .LVU42
 386              		.loc 16 16 5 is_stmt 0 view .LVU43
ARM GAS  /var/folders/0d/2ntwfkp1791d52chq7d_xwdm0000gn/T//cc0vrvH1.s 			page 20


 387              	.LBE901:
 388              	.LBB902:
 389              	.LBI902:
 390              		.loc 17 25 5 is_stmt 1 view .LVU44
 391              		.loc 17 25 5 is_stmt 0 view .LVU45
 392              	.LBE902:
 393              	.LBE900:
 394              		.loc 18 50 16 view .LVU46
 395 0000 7047     		bx	lr
 396              		.cfi_endproc
 397              	.LFE3983:
 399              		.weak	_ZN10DelayMultiD1Ev
 400              		.thumb_set _ZN10DelayMultiD1Ev,_ZN10DelayMultiD2Ev
 401 0002 00BF     		.section	.text._ZN7daisysp17DelayLineMultiTapIfLj1728000EED2Ev,"axG",%progbits,_ZN7daisysp17DelayL
 402              		.align	1
 403              		.p2align 2,,3
 404              		.weak	_ZN7daisysp17DelayLineMultiTapIfLj1728000EED2Ev
 405              		.syntax unified
 406              		.thumb
 407              		.thumb_func
 408              		.fpu fpv5-d16
 410              	_ZN7daisysp17DelayLineMultiTapIfLj1728000EED2Ev:
 411              	.LVL13:
 412              	.LFB4914:
 413              		.file 19 "delayline_multitap.h"
   1:delayline_multitap.h **** // Copyright 2021 Adam Fulford
   2:delayline_multitap.h **** // 
   3:delayline_multitap.h **** // Permission is hereby granted, free of charge, to any person obtaining a copy
   4:delayline_multitap.h **** // of this software and associated documentation files (the "Software"), to deal
   5:delayline_multitap.h **** // in the Software without restriction, including without limitation the rights
   6:delayline_multitap.h **** // to use, copy, modify, merge, publish, distribute, sublicense, and/or sell
   7:delayline_multitap.h **** // copies of the Software, and to permit persons to whom the Software is
   8:delayline_multitap.h **** // furnished to do so, subject to the following conditions:
   9:delayline_multitap.h **** // 
  10:delayline_multitap.h **** // The above copyright notice and this permission notice shall be included in
  11:delayline_multitap.h **** // all copies or substantial portions of the Software.
  12:delayline_multitap.h **** // 
  13:delayline_multitap.h **** // THE SOFTWARE IS PROVIDED "AS IS", WITHOUT WARRANTY OF ANY KIND, EXPRESS OR
  14:delayline_multitap.h **** // IMPLIED, INCLUDING BUT NOT LIMITED TO THE WARRANTIES OF MERCHANTABILITY,
  15:delayline_multitap.h **** // FITNESS FOR A PARTICULAR PURPOSE AND NONINFRINGEMENT. IN NO EVENT SHALL THE
  16:delayline_multitap.h **** // AUTHORS OR COPYRIGHT HOLDERS BE LIABLE FOR ANY CLAIM, DAMAGES OR OTHER
  17:delayline_multitap.h **** // LIABILITY, WHETHER IN AN ACTION OF CONTRACT, TORT OR OTHERWISE, ARISING FROM,
  18:delayline_multitap.h **** // OUT OF OR IN CONNECTION WITH THE SOFTWARE OR THE USE OR OTHER DEALINGS IN
  19:delayline_multitap.h **** // THE SOFTWARE.
  20:delayline_multitap.h **** // 
  21:delayline_multitap.h **** // See http://creativecommons.org/licenses/MIT/ for more information.
  22:delayline_multitap.h **** 
  23:delayline_multitap.h **** #pragma once
  24:delayline_multitap.h **** #ifndef DSY_DELAY_MULTITAP_H
  25:delayline_multitap.h **** #define DSY_DELAY_MULTITAP_H
  26:delayline_multitap.h **** #include <stdlib.h>
  27:delayline_multitap.h **** #include <stdint.h>
  28:delayline_multitap.h **** #include <array>
  29:delayline_multitap.h **** namespace daisysp
  30:delayline_multitap.h **** {
  31:delayline_multitap.h **** /** Mulitap Delay line.
  32:delayline_multitap.h **** 
ARM GAS  /var/folders/0d/2ntwfkp1791d52chq7d_xwdm0000gn/T//cc0vrvH1.s 			page 21


  33:delayline_multitap.h **** DelayLine<float, SAMPLE_RATE> del;
  34:delayline_multitap.h **** 
  35:delayline_multitap.h **** By: Adam Fulford
  36:delayline_multitap.h **** */
  37:delayline_multitap.h **** template <typename T, size_t max_size>
  38:delayline_multitap.h **** class DelayLineMultiTap
  39:delayline_multitap.h **** {
  40:delayline_multitap.h **** private:
  41:delayline_multitap.h ****     size_t write_ptr_;
  42:delayline_multitap.h ****     std::array<size_t, 16> delay_;    //array to hold delay times for upto 16 read heads.
  43:delayline_multitap.h ****     std::array<float, 16> frac_;
  44:delayline_multitap.h ****     T      line_[max_size];
  45:delayline_multitap.h ****     size_t num_heads_;
  46:delayline_multitap.h **** 
  47:delayline_multitap.h ****   public:
  48:delayline_multitap.h ****     DelayLineMultiTap() 
  49:delayline_multitap.h ****     {
  50:delayline_multitap.h ****        // num_heads_ = 16; //Why can't I do this in the default constructor?! Compiles but does not
  51:delayline_multitap.h ****     }
  52:delayline_multitap.h ****     ~DelayLineMultiTap() {}
 414              		.loc 19 52 5 is_stmt 1 view -0
 415              		.cfi_startproc
 416              		@ args = 0, pretend = 0, frame = 0
 417              		@ frame_needed = 0, uses_anonymous_args = 0
 418              		@ link register save eliminated.
 419              		.loc 19 52 27 is_stmt 0 view .LVU48
 420 0000 7047     		bx	lr
 421              		.cfi_endproc
 422              	.LFE4914:
 424              		.weak	_ZN7daisysp17DelayLineMultiTapIfLj1728000EED1Ev
 425              		.thumb_set _ZN7daisysp17DelayLineMultiTapIfLj1728000EED1Ev,_ZN7daisysp17DelayLineMultiTapIfLj17280
 426 0002 00BF     		.section	.text._ZN7daisysp16DelayLineReverseIfLj600000EED2Ev,"axG",%progbits,_ZN7daisysp16DelayLin
 427              		.align	1
 428              		.p2align 2,,3
 429              		.weak	_ZN7daisysp16DelayLineReverseIfLj600000EED2Ev
 430              		.syntax unified
 431              		.thumb
 432              		.thumb_func
 433              		.fpu fpv5-d16
 435              	_ZN7daisysp16DelayLineReverseIfLj600000EED2Ev:
 436              	.LVL14:
 437              	.LFB4917:
 438              		.file 20 "delayline_reverse.h"
   1:delayline_reverse.h **** // Copyright 2021 Adam Fulford
   2:delayline_reverse.h **** // 
   3:delayline_reverse.h **** // Permission is hereby granted, free of charge, to any person obtaining a copy
   4:delayline_reverse.h **** // of this software and associated documentation files (the "Software"), to deal
   5:delayline_reverse.h **** // in the Software without restriction, including without limitation the rights
   6:delayline_reverse.h **** // to use, copy, modify, merge, publish, distribute, sublicense, and/or sell
   7:delayline_reverse.h **** // copies of the Software, and to permit persons to whom the Software is
   8:delayline_reverse.h **** // furnished to do so, subject to the following conditions:
   9:delayline_reverse.h **** // 
  10:delayline_reverse.h **** // The above copyright notice and this permission notice shall be included in
  11:delayline_reverse.h **** // all copies or substantial portions of the Software.
  12:delayline_reverse.h **** // 
  13:delayline_reverse.h **** // THE SOFTWARE IS PROVIDED "AS IS", WITHOUT WARRANTY OF ANY KIND, EXPRESS OR
  14:delayline_reverse.h **** // IMPLIED, INCLUDING BUT NOT LIMITED TO THE WARRANTIES OF MERCHANTABILITY,
ARM GAS  /var/folders/0d/2ntwfkp1791d52chq7d_xwdm0000gn/T//cc0vrvH1.s 			page 22


  15:delayline_reverse.h **** // FITNESS FOR A PARTICULAR PURPOSE AND NONINFRINGEMENT. IN NO EVENT SHALL THE
  16:delayline_reverse.h **** // AUTHORS OR COPYRIGHT HOLDERS BE LIABLE FOR ANY CLAIM, DAMAGES OR OTHER
  17:delayline_reverse.h **** // LIABILITY, WHETHER IN AN ACTION OF CONTRACT, TORT OR OTHERWISE, ARISING FROM,
  18:delayline_reverse.h **** // OUT OF OR IN CONNECTION WITH THE SOFTWARE OR THE USE OR OTHER DEALINGS IN
  19:delayline_reverse.h **** // THE SOFTWARE.
  20:delayline_reverse.h **** // 
  21:delayline_reverse.h **** // See http://creativecommons.org/licenses/MIT/ for more information.
  22:delayline_reverse.h **** 
  23:delayline_reverse.h **** #pragma once
  24:delayline_reverse.h **** #ifndef DSY_DELAY_REVERSE_H
  25:delayline_reverse.h **** #define DSY_DELAY_REVERSE_H
  26:delayline_reverse.h **** #include <stdlib.h>
  27:delayline_reverse.h **** #include <stdint.h>
  28:delayline_reverse.h **** #include <math.h>
  29:delayline_reverse.h **** namespace daisysp
  30:delayline_reverse.h **** {
  31:delayline_reverse.h **** /** Reverse Delay line
  32:delayline_reverse.h **** By: Adam Fulford
  33:delayline_reverse.h **** */
  34:delayline_reverse.h **** template <typename T, size_t max_size>
  35:delayline_reverse.h **** class DelayLineReverse
  36:delayline_reverse.h **** {
  37:delayline_reverse.h ****   public:
  38:delayline_reverse.h ****     DelayLineReverse() {}
  39:delayline_reverse.h ****     ~DelayLineReverse() {}
 439              		.loc 20 39 5 is_stmt 1 view -0
 440              		.cfi_startproc
 441              		@ args = 0, pretend = 0, frame = 0
 442              		@ frame_needed = 0, uses_anonymous_args = 0
 443              		@ link register save eliminated.
 444              		.loc 20 39 26 is_stmt 0 view .LVU50
 445 0000 7047     		bx	lr
 446              		.cfi_endproc
 447              	.LFE4917:
 449              		.weak	_ZN7daisysp16DelayLineReverseIfLj600000EED1Ev
 450              		.thumb_set _ZN7daisysp16DelayLineReverseIfLj600000EED1Ev,_ZN7daisysp16DelayLineReverseIfLj600000EE
 451 0002 00BF     		.section	.text._Z10InitDelaysf,"ax",%progbits
 452              		.align	1
 453              		.p2align 2,,3
 454              		.global	_Z10InitDelaysf
 455              		.syntax unified
 456              		.thumb
 457              		.thumb_func
 458              		.fpu fpv5-d16
 460              	_Z10InitDelaysf:
 461              	.LVL15:
 462              	.LFB4310:
 463              		.file 21 "Veno-Echo.cpp"
   1:Veno-Echo.cpp **** // Copyright 2021 Adam Fulford
   2:Veno-Echo.cpp **** // 
   3:Veno-Echo.cpp **** // Permission is hereby granted, free of charge, to any person obtaining a copy
   4:Veno-Echo.cpp **** // of this software and associated documentation files (the "Software"), to deal
   5:Veno-Echo.cpp **** // in the Software without restriction, including without limitation the rights
   6:Veno-Echo.cpp **** // to use, copy, modify, merge, publish, distribute, sublicense, and/or sell
   7:Veno-Echo.cpp **** // copies of the Software, and to permit persons to whom the Software is
   8:Veno-Echo.cpp **** // furnished to do so, subject to the following conditions:
   9:Veno-Echo.cpp **** // 
ARM GAS  /var/folders/0d/2ntwfkp1791d52chq7d_xwdm0000gn/T//cc0vrvH1.s 			page 23


  10:Veno-Echo.cpp **** // The above copyright notice and this permission notice shall be included in
  11:Veno-Echo.cpp **** // all copies or substantial portions of the Software.
  12:Veno-Echo.cpp **** // 
  13:Veno-Echo.cpp **** // THE SOFTWARE IS PROVIDED "AS IS", WITHOUT WARRANTY OF ANY KIND, EXPRESS OR
  14:Veno-Echo.cpp **** // IMPLIED, INCLUDING BUT NOT LIMITED TO THE WARRANTIES OF MERCHANTABILITY,
  15:Veno-Echo.cpp **** // FITNESS FOR A PARTICULAR PURPOSE AND NONINFRINGEMENT. IN NO EVENT SHALL THE
  16:Veno-Echo.cpp **** // AUTHORS OR COPYRIGHT HOLDERS BE LIABLE FOR ANY CLAIM, DAMAGES OR OTHER
  17:Veno-Echo.cpp **** // LIABILITY, WHETHER IN AN ACTION OF CONTRACT, TORT OR OTHERWISE, ARISING FROM,
  18:Veno-Echo.cpp **** // OUT OF OR IN CONNECTION WITH THE SOFTWARE OR THE USE OR OTHER DEALINGS IN
  19:Veno-Echo.cpp **** // THE SOFTWARE.
  20:Veno-Echo.cpp **** // 
  21:Veno-Echo.cpp **** // See http://creativecommons.org/licenses/MIT/ for more information.
  22:Veno-Echo.cpp **** 
  23:Veno-Echo.cpp **** #include "Veno-Echo.h"
  24:Veno-Echo.cpp **** #include "QSPI_Settings.h"
  25:Veno-Echo.cpp **** #include "daisysp.h"
  26:Veno-Echo.cpp **** #include "delayline_multitap.h" //modified delayline
  27:Veno-Echo.cpp **** #include "delayline_reverse.h"  //reverse delayline
  28:Veno-Echo.cpp **** #include "envFollow.h"
  29:Veno-Echo.cpp **** #include "scale.h"
  30:Veno-Echo.cpp **** #include "constants.h"
  31:Veno-Echo.cpp **** #include "taptempo.h"
  32:Veno-Echo.cpp **** #include "LEDs.h"
  33:Veno-Echo.cpp **** #include "DelayMulti.h"
  34:Veno-Echo.cpp **** #include <math.h>
  35:Veno-Echo.cpp **** #include <string.h>
  36:Veno-Echo.cpp **** #include <atomic>
  37:Veno-Echo.cpp **** 
  38:Veno-Echo.cpp **** using namespace daisysp;
  39:Veno-Echo.cpp **** 
  40:Veno-Echo.cpp **** static Svf LPF_L;
  41:Veno-Echo.cpp **** static Svf LPF_R;
  42:Veno-Echo.cpp **** static Svf HPF_L;
  43:Veno-Echo.cpp **** static Svf HPF_R;
  44:Veno-Echo.cpp **** 
  45:Veno-Echo.cpp **** static Svf LPF_L_post;
  46:Veno-Echo.cpp **** static Svf LPF_R_post;
  47:Veno-Echo.cpp **** static Svf HPF_L_post;
  48:Veno-Echo.cpp **** static Svf HPF_R_post;
  49:Veno-Echo.cpp **** 
  50:Veno-Echo.cpp **** static Oscillator lfo;
  51:Veno-Echo.cpp **** static EnvFollow LeftEnv, RightEnv;   //env follower class
  52:Veno-Echo.cpp **** 
  53:Veno-Echo.cpp **** static DcBlock DcBlock_LFB, DcBlock_RFB; //DC blocks
  54:Veno-Echo.cpp **** 
  55:Veno-Echo.cpp **** // Declare a DelayLine of MAX_DELAY number of floats.
  56:Veno-Echo.cpp **** DelayLineMultiTap<float, static_cast<size_t>(48000 * 36.0f)> DSY_SDRAM_BSS delMemsL;
  57:Veno-Echo.cpp **** DelayLineMultiTap<float, static_cast<size_t>(48000 * 36.0f)> DSY_SDRAM_BSS delMemsR;
  58:Veno-Echo.cpp **** 
  59:Veno-Echo.cpp **** DelayLineReverse<float, static_cast<size_t>(maxRevDelay * 2.5f)> DSY_SDRAM_BSS delMemsL_REV; //10 s
  60:Veno-Echo.cpp **** DelayLineReverse<float, static_cast<size_t>(maxRevDelay * 2.5f)> DSY_SDRAM_BSS delMemsR_REV;
  61:Veno-Echo.cpp **** 
  62:Veno-Echo.cpp **** struct DelayRev
  63:Veno-Echo.cpp **** {
  64:Veno-Echo.cpp ****     DelayLineReverse <float, static_cast<size_t>(maxRevDelay*2.5f)>  *del;
  65:Veno-Echo.cpp ****     float currentDelay_;
  66:Veno-Echo.cpp ****     //float delayTarget;
ARM GAS  /var/folders/0d/2ntwfkp1791d52chq7d_xwdm0000gn/T//cc0vrvH1.s 			page 24


  67:Veno-Echo.cpp **** 
  68:Veno-Echo.cpp ****     void SetDelayTime(float delayTime)
  69:Veno-Echo.cpp ****     {
  70:Veno-Echo.cpp ****         if(abs(delayTime - currentDelay_) > (0.005f * currentDelay_) )  
  71:Veno-Echo.cpp ****         //only update if more than 0.5% of last value
  72:Veno-Echo.cpp ****         {
  73:Veno-Echo.cpp ****             currentDelay_ = delayTime;
  74:Veno-Echo.cpp ****             del -> SetDelay1(static_cast<size_t>(currentDelay_));
  75:Veno-Echo.cpp ****             //del -> Reset();
  76:Veno-Echo.cpp ****         }
  77:Veno-Echo.cpp ****     }
  78:Veno-Echo.cpp **** 
  79:Veno-Echo.cpp ****     float Read()
  80:Veno-Echo.cpp ****     {
  81:Veno-Echo.cpp ****         //read from head1
  82:Veno-Echo.cpp ****         float read = del -> ReadRev();
  83:Veno-Echo.cpp ****         return read;
  84:Veno-Echo.cpp ****     }
  85:Veno-Echo.cpp **** 
  86:Veno-Echo.cpp ****     float FwdFbk()
  87:Veno-Echo.cpp ****     {
  88:Veno-Echo.cpp ****         float read = del -> ReadFwd();
  89:Veno-Echo.cpp ****         return read;
  90:Veno-Echo.cpp ****     }
  91:Veno-Echo.cpp **** 
  92:Veno-Echo.cpp ****     void Write(float in)    //sort out feedback in audiocallback
  93:Veno-Echo.cpp ****     {
  94:Veno-Echo.cpp ****         del -> Write(in);
  95:Veno-Echo.cpp ****     }
  96:Veno-Echo.cpp **** };
  97:Veno-Echo.cpp **** 
  98:Veno-Echo.cpp **** DelayMulti delayL,delayR;
  99:Veno-Echo.cpp **** DelayRev delaysL_REV,delaysR_REV;
 100:Veno-Echo.cpp **** 
 101:Veno-Echo.cpp **** //LED objects:
 102:Veno-Echo.cpp **** ButtonLED LPF_sw,HPF_sw,Rev_L_sw,Rev_R_sw, Tap_Button;
 103:Veno-Echo.cpp **** TempoLED tempoLED_BASE;
 104:Veno-Echo.cpp **** 
 105:Veno-Echo.cpp **** 
 106:Veno-Echo.cpp **** float delayTimeL_CV{};
 107:Veno-Echo.cpp **** float delayTimeR_CV{};
 108:Veno-Echo.cpp **** 
 109:Veno-Echo.cpp **** float feedbackL{};
 110:Veno-Echo.cpp **** float feedbackL_CV{};
 111:Veno-Echo.cpp **** 
 112:Veno-Echo.cpp **** float feedbackR{};
 113:Veno-Echo.cpp **** float feedbackR_CV{};
 114:Veno-Echo.cpp **** 
 115:Veno-Echo.cpp **** float crossfeedback{};
 116:Veno-Echo.cpp **** float crossfeedback_CV{};
 117:Veno-Echo.cpp **** 
 118:Veno-Echo.cpp **** float drywet{0.5};
 119:Veno-Echo.cpp **** float drywet_CV{};
 120:Veno-Echo.cpp **** 
 121:Veno-Echo.cpp **** float width{1.0};
 122:Veno-Echo.cpp **** float width_CV{};
 123:Veno-Echo.cpp **** 
ARM GAS  /var/folders/0d/2ntwfkp1791d52chq7d_xwdm0000gn/T//cc0vrvH1.s 			page 25


 124:Veno-Echo.cpp **** float filterXfade{};
 125:Veno-Echo.cpp **** 
 126:Veno-Echo.cpp **** //TempoDivs div_L{};
 127:Veno-Echo.cpp **** //TempoDivs div_R{};
 128:Veno-Echo.cpp **** 
 129:Veno-Echo.cpp **** float ModDepth{0.0f};   //100.0 is a lot!
 130:Veno-Echo.cpp **** 
 131:Veno-Echo.cpp **** //float modulation_CV{};
 132:Veno-Echo.cpp **** float modulation_CV_Raw{};
 133:Veno-Echo.cpp **** 
 134:Veno-Echo.cpp **** bool syncMode{false};
 135:Veno-Echo.cpp **** bool shift{false};  //global variable for secondary shift functions
 136:Veno-Echo.cpp **** bool mute{};
 137:Veno-Echo.cpp **** 
 138:Veno-Echo.cpp **** bool ClockInFlag{false};
 139:Veno-Echo.cpp **** bool PostFilters{false};
 140:Veno-Echo.cpp **** 
 141:Veno-Echo.cpp **** std::atomic<bool> save_flag{};
 142:Veno-Echo.cpp **** 
 143:Veno-Echo.cpp **** SaveState saveState{IDLE};
 144:Veno-Echo.cpp **** 
 145:Veno-Echo.cpp **** float DELAYL_DEBUG;
 146:Veno-Echo.cpp **** float DELAYR_DEBUG;
 147:Veno-Echo.cpp **** float PHASE_DEBUG;
 148:Veno-Echo.cpp **** float CLOCK_DEBUG;
 149:Veno-Echo.cpp **** 
 150:Veno-Echo.cpp **** static Adsr FwdRevLEnv;
 151:Veno-Echo.cpp **** static Adsr FwdRevREnv;
 152:Veno-Echo.cpp **** 
 153:Veno-Echo.cpp **** static Adsr LPF_Env;
 154:Veno-Echo.cpp **** static Adsr HPF_Env;
 155:Veno-Echo.cpp **** 
 156:Veno-Echo.cpp **** static CrossFade FwdRevLXfade;  //crossfades for reverse delay into fwd delay
 157:Veno-Echo.cpp **** static CrossFade FwdRevRXfade;
 158:Veno-Echo.cpp **** 
 159:Veno-Echo.cpp **** static CrossFade WidthXfade;
 160:Veno-Echo.cpp **** 
 161:Veno-Echo.cpp **** //crossfades for switching in and out of filters
 162:Veno-Echo.cpp **** static CrossFade LPF_LXfade;
 163:Veno-Echo.cpp **** static CrossFade LPF_RXfade;
 164:Veno-Echo.cpp **** static CrossFade HPF_LXfade;
 165:Veno-Echo.cpp **** static CrossFade HPF_RXfade;
 166:Veno-Echo.cpp **** 
 167:Veno-Echo.cpp **** //crossfades for switching in and out of post filters
 168:Veno-Echo.cpp **** static CrossFade LPF_LXfade_post;
 169:Veno-Echo.cpp **** static CrossFade LPF_RXfade_post;
 170:Veno-Echo.cpp **** static CrossFade HPF_LXfade_post;
 171:Veno-Echo.cpp **** static CrossFade HPF_RXfade_post;
 172:Veno-Echo.cpp **** 
 173:Veno-Echo.cpp **** //cross fades for manual filter crossfading
 174:Veno-Echo.cpp **** static CrossFade FilterMix_L;
 175:Veno-Echo.cpp **** static CrossFade FilterMix_R;
 176:Veno-Echo.cpp **** 
 177:Veno-Echo.cpp **** static CrossFade FilterMix_L_post;
 178:Veno-Echo.cpp **** static CrossFade FilterMix_R_post;
 179:Veno-Echo.cpp **** 
 180:Veno-Echo.cpp **** //Gate inputs
ARM GAS  /var/folders/0d/2ntwfkp1791d52chq7d_xwdm0000gn/T//cc0vrvH1.s 			page 26


 181:Veno-Echo.cpp **** Switch ReverseGateL;
 182:Veno-Echo.cpp **** Switch ReverseGateR;
 183:Veno-Echo.cpp **** 
 184:Veno-Echo.cpp **** //Switch TapButton;
 185:Veno-Echo.cpp **** Switch Sync;
 186:Veno-Echo.cpp **** dsy_gpio_pin ClockPin{hw.GetPin(5)};
 187:Veno-Echo.cpp **** GateIn ClockIn;
 188:Veno-Echo.cpp **** //Switch ClockIn;
 189:Veno-Echo.cpp **** 
 190:Veno-Echo.cpp **** //Tap tempo
 191:Veno-Echo.cpp **** Taptempo BaseTempo; 
 192:Veno-Echo.cpp **** 
 193:Veno-Echo.cpp **** Settings AltControls;
 194:Veno-Echo.cpp **** 
 195:Veno-Echo.cpp **** //default alt control values
 196:Veno-Echo.cpp **** constexpr Settings defaultAltControls
 197:Veno-Echo.cpp **** {
 198:Veno-Echo.cpp ****     (minRevDelay + maxRevDelay) / 2.0f, //RevLength
 199:Veno-Echo.cpp ****     1.0f,   //tapRatio
 200:Veno-Echo.cpp ****     0.0f,   //ModDepth
 201:Veno-Echo.cpp ****     (maxModRate + minModRate) / 2.0f,   //ModFreq
 202:Veno-Echo.cpp ****     defaultHPCut,   //HP_Cutoff
 203:Veno-Echo.cpp ****     defaultLPCut,   //LP_Cutoff
 204:Veno-Echo.cpp ****     default_Res,     //Filter Resonance
 205:Veno-Echo.cpp ****     0.0f,    //filter prepost
 206:Veno-Echo.cpp ****     500000.0f,     //base tempo (in us)
 207:Veno-Echo.cpp ****     0.0f,       //L_Rev
 208:Veno-Echo.cpp ****     0.0f    //R_Rev
 209:Veno-Echo.cpp **** };
 210:Veno-Echo.cpp **** 
 211:Veno-Echo.cpp **** void Update_DelayTimeL_CV();
 212:Veno-Echo.cpp **** void Update_DelayTimeL();
 213:Veno-Echo.cpp **** 
 214:Veno-Echo.cpp **** void Update_DelayTimeR_CV();
 215:Veno-Echo.cpp **** void Update_DelayTimeR();
 216:Veno-Echo.cpp **** 
 217:Veno-Echo.cpp **** void Update_feedbackL_CV();
 218:Veno-Echo.cpp **** void Update_feedbackL();
 219:Veno-Echo.cpp **** 
 220:Veno-Echo.cpp **** void Update_feedbackR_CV();
 221:Veno-Echo.cpp **** void Update_feedbackR();
 222:Veno-Echo.cpp **** 
 223:Veno-Echo.cpp **** void Update_drywet_CV();
 224:Veno-Echo.cpp **** void Update_drywet();
 225:Veno-Echo.cpp **** 
 226:Veno-Echo.cpp **** void Update_width_CV();
 227:Veno-Echo.cpp **** void Update_width();
 228:Veno-Echo.cpp **** 
 229:Veno-Echo.cpp **** void Update_crossfeedback();
 230:Veno-Echo.cpp **** void Update_filterXfade();
 231:Veno-Echo.cpp **** 
 232:Veno-Echo.cpp **** void Update_Buttons();
 233:Veno-Echo.cpp **** void Update_DelayBaseTempo();
 234:Veno-Echo.cpp **** void Update_BaseTempoLED();
 235:Veno-Echo.cpp **** void Update_DelayTempoLEDs();
 236:Veno-Echo.cpp **** void Update_Mod();
 237:Veno-Echo.cpp **** void GetModCV();
ARM GAS  /var/folders/0d/2ntwfkp1791d52chq7d_xwdm0000gn/T//cc0vrvH1.s 			page 27


 238:Veno-Echo.cpp **** float SetTempoDiv(float input, TempoDivs *div);
 239:Veno-Echo.cpp **** void UpdateClock();
 240:Veno-Echo.cpp **** double GetTapRatio(TapRatios ratio);
 241:Veno-Echo.cpp **** void ApplySettings(const Settings &setting);
 242:Veno-Echo.cpp **** void TurnOnAllLEDs();
 243:Veno-Echo.cpp **** void ResetAllLEDs();
 244:Veno-Echo.cpp **** float HardLimit(float input, float limit);
 245:Veno-Echo.cpp **** float PotCVCombo(float Pot_Val, float CV_Val);
 246:Veno-Echo.cpp **** bool checkPickupState(float value, float lastvalue, bool lastState, bool ShiftChange);
 247:Veno-Echo.cpp **** pickupState checkPickupState_alt(float value, float lastValue, pickupState lastState, bool ShiftCha
 248:Veno-Echo.cpp **** 
 249:Veno-Echo.cpp **** static void AudioCallback(float *in, float *out, size_t size)
 250:Veno-Echo.cpp **** {
 251:Veno-Echo.cpp **** 
 252:Veno-Echo.cpp **** /*
 253:Veno-Echo.cpp **** static uint32_t funcLength{};
 254:Veno-Echo.cpp **** static uint32_t lastFuncTime{};
 255:Veno-Echo.cpp **** static uint32_t maxFuncLength{};
 256:Veno-Echo.cpp **** static uint32_t minFuncLength{500000000};
 257:Veno-Echo.cpp **** static uint32_t aveFuncLength{};
 258:Veno-Echo.cpp **** 
 259:Veno-Echo.cpp **** */
 260:Veno-Echo.cpp **** 
 261:Veno-Echo.cpp **** static int Counter{};
 262:Veno-Echo.cpp **** 
 263:Veno-Echo.cpp **** /*
 264:Veno-Echo.cpp ****     funcLength = System::GetUs() - lastFuncTime;
 265:Veno-Echo.cpp **** 
 266:Veno-Echo.cpp ****     aveFuncLength = (funcLength + 1023 * aveFuncLength) >> 10;
 267:Veno-Echo.cpp ****     if (funcLength > maxFuncLength)
 268:Veno-Echo.cpp ****     {
 269:Veno-Echo.cpp ****         maxFuncLength = funcLength;
 270:Veno-Echo.cpp ****     }
 271:Veno-Echo.cpp **** 
 272:Veno-Echo.cpp ****     if (funcLength < minFuncLength)
 273:Veno-Echo.cpp ****     {
 274:Veno-Echo.cpp ****         minFuncLength = funcLength;
 275:Veno-Echo.cpp ****     }
 276:Veno-Echo.cpp **** 
 277:Veno-Echo.cpp **** */
 278:Veno-Echo.cpp **** 
 279:Veno-Echo.cpp **** Counter = (Counter + 1) % updateDiv;
 280:Veno-Echo.cpp **** 
 281:Veno-Echo.cpp ****     /*
 282:Veno-Echo.cpp ****         //each call generate random dither length between 0 and 14
 283:Veno-Echo.cpp ****         uint16_t randomDither{uint16_t (rand() % 5)};
 284:Veno-Echo.cpp ****         //init timeofCall as current time
 285:Veno-Echo.cpp ****         uint32_t timeofCall{System::GetUs()};
 286:Veno-Echo.cpp **** 
 287:Veno-Echo.cpp ****         //wait for random Dither time
 288:Veno-Echo.cpp ****         while( (System::GetUs() - timeofCall ) < randomDither)
 289:Veno-Echo.cpp ****         {}
 290:Veno-Echo.cpp ****     */
 291:Veno-Echo.cpp **** 
 292:Veno-Echo.cpp ****         switch (Counter)
 293:Veno-Echo.cpp ****         {
 294:Veno-Echo.cpp ****             case 0:
ARM GAS  /var/folders/0d/2ntwfkp1791d52chq7d_xwdm0000gn/T//cc0vrvH1.s 			page 28


 295:Veno-Echo.cpp ****                 Update_Buttons();
 296:Veno-Echo.cpp ****                 GetModCV();
 297:Veno-Echo.cpp ****                 //Update_DelayBaseTempo();
 298:Veno-Echo.cpp ****                 Update_DelayTempoLEDs();
 299:Veno-Echo.cpp ****             break;
 300:Veno-Echo.cpp **** 
 301:Veno-Echo.cpp ****             case 1:
 302:Veno-Echo.cpp ****                 Update_DelayTimeL_CV();
 303:Veno-Echo.cpp ****             break;
 304:Veno-Echo.cpp **** 
 305:Veno-Echo.cpp ****             case 2:
 306:Veno-Echo.cpp ****                 if(saveState != SAVING)
 307:Veno-Echo.cpp ****                 {
 308:Veno-Echo.cpp ****                     Update_DelayTimeL();
 309:Veno-Echo.cpp ****                 }
 310:Veno-Echo.cpp ****             break;
 311:Veno-Echo.cpp **** 
 312:Veno-Echo.cpp ****             case 3:
 313:Veno-Echo.cpp ****                 Update_DelayTimeR_CV();
 314:Veno-Echo.cpp ****             break;
 315:Veno-Echo.cpp **** 
 316:Veno-Echo.cpp ****             case 4:
 317:Veno-Echo.cpp ****                 if(saveState != SAVING) //don't check ADCs 
 318:Veno-Echo.cpp ****                 {
 319:Veno-Echo.cpp ****                     Update_DelayTimeR();
 320:Veno-Echo.cpp ****                 }
 321:Veno-Echo.cpp ****             break;
 322:Veno-Echo.cpp **** 
 323:Veno-Echo.cpp ****             case 5:
 324:Veno-Echo.cpp ****                 Update_feedbackL_CV();
 325:Veno-Echo.cpp ****             break;
 326:Veno-Echo.cpp **** 
 327:Veno-Echo.cpp ****             case 6:
 328:Veno-Echo.cpp ****                 if(saveState != SAVING) //don't check ADCs 
 329:Veno-Echo.cpp ****                 {
 330:Veno-Echo.cpp ****                     Update_feedbackL();
 331:Veno-Echo.cpp ****                 }
 332:Veno-Echo.cpp ****             break;
 333:Veno-Echo.cpp **** 
 334:Veno-Echo.cpp ****             case 7:
 335:Veno-Echo.cpp ****                 Update_feedbackR_CV();
 336:Veno-Echo.cpp ****             break;
 337:Veno-Echo.cpp **** 
 338:Veno-Echo.cpp ****             case 8:
 339:Veno-Echo.cpp ****                 if(saveState != SAVING) //don't check ADCs 
 340:Veno-Echo.cpp ****                 {
 341:Veno-Echo.cpp ****                     Update_feedbackR();
 342:Veno-Echo.cpp ****                 }
 343:Veno-Echo.cpp ****             break;
 344:Veno-Echo.cpp **** 
 345:Veno-Echo.cpp ****             case 9:
 346:Veno-Echo.cpp ****                 Update_drywet_CV();
 347:Veno-Echo.cpp ****             break;
 348:Veno-Echo.cpp **** 
 349:Veno-Echo.cpp ****             case 10:
 350:Veno-Echo.cpp ****                 if(saveState != SAVING) //don't check ADCs 
 351:Veno-Echo.cpp ****                 {
ARM GAS  /var/folders/0d/2ntwfkp1791d52chq7d_xwdm0000gn/T//cc0vrvH1.s 			page 29


 352:Veno-Echo.cpp ****                     Update_drywet();
 353:Veno-Echo.cpp ****                 }
 354:Veno-Echo.cpp ****             break;
 355:Veno-Echo.cpp **** 
 356:Veno-Echo.cpp ****             case 11:
 357:Veno-Echo.cpp ****                 Update_width_CV();
 358:Veno-Echo.cpp ****             break;
 359:Veno-Echo.cpp **** 
 360:Veno-Echo.cpp ****             case 12:
 361:Veno-Echo.cpp ****                 if(saveState != SAVING) //don't check ADCs 
 362:Veno-Echo.cpp ****                 {
 363:Veno-Echo.cpp ****                     Update_width();
 364:Veno-Echo.cpp ****                 }
 365:Veno-Echo.cpp ****             break;
 366:Veno-Echo.cpp **** 
 367:Veno-Echo.cpp ****             case 13:
 368:Veno-Echo.cpp ****                 if(saveState != SAVING) //don't check ADCs 
 369:Veno-Echo.cpp ****                 {
 370:Veno-Echo.cpp ****                     Update_crossfeedback();
 371:Veno-Echo.cpp ****                 }
 372:Veno-Echo.cpp ****             break;
 373:Veno-Echo.cpp **** 
 374:Veno-Echo.cpp ****             case 14:
 375:Veno-Echo.cpp ****                 if(saveState != SAVING) //don't check ADCs 
 376:Veno-Echo.cpp ****                 {
 377:Veno-Echo.cpp ****                     Update_filterXfade();
 378:Veno-Echo.cpp ****                 }
 379:Veno-Echo.cpp ****             break;
 380:Veno-Echo.cpp ****         }
 381:Veno-Echo.cpp **** 
 382:Veno-Echo.cpp ****     for(size_t i = 0; i < size; i += 2)
 383:Veno-Echo.cpp ****     {   
 384:Veno-Echo.cpp ****         UpdateClock(); 
 385:Veno-Echo.cpp ****         Update_Mod();
 386:Veno-Echo.cpp ****         Update_DelayBaseTempo();
 387:Veno-Echo.cpp **** 
 388:Veno-Echo.cpp ****         //get xfade positions from envelopes:
 389:Veno-Echo.cpp ****         float FwdRevLXFadepos = FwdRevLEnv.Process(Rev_L_sw.getState());
 390:Veno-Echo.cpp ****         float FwdRevRXFadepos = FwdRevREnv.Process(Rev_R_sw.getState());
 391:Veno-Echo.cpp ****         
 392:Veno-Echo.cpp ****         float HPFXFadepos = HPF_Env.Process(HPF_sw.getState());
 393:Veno-Echo.cpp ****         float LPFXFadepos = LPF_Env.Process(LPF_sw.getState());
 394:Veno-Echo.cpp **** 
 395:Veno-Echo.cpp ****         //set xfade positions      
 396:Veno-Echo.cpp ****         FwdRevLXfade.SetPos(FwdRevLXFadepos);
 397:Veno-Echo.cpp ****         FwdRevRXfade.SetPos(FwdRevRXFadepos);
 398:Veno-Echo.cpp ****         
 399:Veno-Echo.cpp ****         HPF_LXfade.SetPos(HPFXFadepos);
 400:Veno-Echo.cpp ****         HPF_RXfade.SetPos(HPFXFadepos);
 401:Veno-Echo.cpp ****         LPF_LXfade.SetPos(LPFXFadepos);
 402:Veno-Echo.cpp ****         LPF_RXfade.SetPos(LPFXFadepos);
 403:Veno-Echo.cpp **** 
 404:Veno-Echo.cpp ****         HPF_LXfade_post.SetPos(HPFXFadepos);
 405:Veno-Echo.cpp ****         HPF_RXfade_post.SetPos(HPFXFadepos);
 406:Veno-Echo.cpp ****         LPF_LXfade_post.SetPos(LPFXFadepos);
 407:Veno-Echo.cpp ****         LPF_RXfade_post.SetPos(LPFXFadepos);
 408:Veno-Echo.cpp **** 
ARM GAS  /var/folders/0d/2ntwfkp1791d52chq7d_xwdm0000gn/T//cc0vrvH1.s 			page 30


 409:Veno-Echo.cpp ****         FilterMix_L.SetPos(filterXfade);
 410:Veno-Echo.cpp ****         FilterMix_R.SetPos(filterXfade);
 411:Veno-Echo.cpp **** 
 412:Veno-Echo.cpp ****         FilterMix_L_post.SetPos(filterXfade);
 413:Veno-Echo.cpp ****         FilterMix_R_post.SetPos(filterXfade);
 414:Veno-Echo.cpp **** 
 415:Veno-Echo.cpp ****         //filter controls, read from reverse delay lines:
 416:Veno-Echo.cpp ****         float delayRevSignalL = delaysL_REV.Read();
 417:Veno-Echo.cpp ****         float delayRevSignalR = delaysR_REV.Read();
 418:Veno-Echo.cpp **** 
 419:Veno-Echo.cpp ****         //write input to reverse delay (no feedback)
 420:Veno-Echo.cpp ****         delaysL_REV.Write(in[i]);
 421:Veno-Echo.cpp ****         delaysR_REV.Write(in[i+1]);
 422:Veno-Echo.cpp ****         //delaysL_REV.Write(Input_L);
 423:Veno-Echo.cpp ****         //delaysR_REV.Write(Input_R);
 424:Veno-Echo.cpp **** 
 425:Veno-Echo.cpp ****         //process Xfade between reverse and direct input
 426:Veno-Echo.cpp ****         float FwdRevSignalLXFade = FwdRevLXfade.Process(in[i],delayRevSignalL);
 427:Veno-Echo.cpp ****         float FwdRevSignalRXFade = FwdRevRXfade.Process(in[i+1],delayRevSignalR);
 428:Veno-Echo.cpp **** 
 429:Veno-Echo.cpp ****         //Get combined output from all delay heads
 430:Veno-Echo.cpp ****         float delaySignal_L{delayL.GetOutput()};   
 431:Veno-Echo.cpp ****         float delaySignal_R{delayR.GetOutput()};
 432:Veno-Echo.cpp **** 
 433:Veno-Echo.cpp ****         //Update Base Tempo LED
 434:Veno-Echo.cpp ****         Update_BaseTempoLED();
 435:Veno-Echo.cpp **** 
 436:Veno-Echo.cpp ****         //hard limit
 437:Veno-Echo.cpp ****         delaySignal_L = HardLimit(delaySignal_L,AudioLimit);
 438:Veno-Echo.cpp ****         delaySignal_R = HardLimit(delaySignal_R,AudioLimit);
 439:Veno-Echo.cpp **** 
 440:Veno-Echo.cpp **** if(!PostFilters)
 441:Veno-Echo.cpp **** {
 442:Veno-Echo.cpp **** //****************************************************************************************
 443:Veno-Echo.cpp ****         //pre filters
 444:Veno-Echo.cpp ****         //process LPF
 445:Veno-Echo.cpp ****         //0.1 factor necessary to stop variables going out of range with large amplitude inputs
 446:Veno-Echo.cpp ****         LPF_L.Process(delaySignal_L * 0.1f);
 447:Veno-Echo.cpp ****         LPF_R.Process(delaySignal_R * 0.1f);
 448:Veno-Echo.cpp **** 
 449:Veno-Echo.cpp ****         //10.0f factor to bring back to regular level.
 450:Veno-Echo.cpp ****         float LPF_L_signal{LPF_L.Low() * 10.0f};
 451:Veno-Echo.cpp ****         float LPF_R_signal{LPF_R.Low() * 10.0f};
 452:Veno-Echo.cpp ****         
 453:Veno-Echo.cpp ****         //crossfades will need to be tweaked for new switch layout.
 454:Veno-Echo.cpp ****         float filteredDelay_L{LPF_LXfade.Process(delaySignal_L, LPF_L_signal)};
 455:Veno-Echo.cpp ****         float filteredDelay_R{LPF_RXfade.Process(delaySignal_R, LPF_R_signal)};
 456:Veno-Echo.cpp **** 
 457:Veno-Echo.cpp ****         //hard limit
 458:Veno-Echo.cpp ****         filteredDelay_L = HardLimit(filteredDelay_L,AudioLimit);
 459:Veno-Echo.cpp ****         filteredDelay_R = HardLimit(filteredDelay_R,AudioLimit);
 460:Veno-Echo.cpp **** 
 461:Veno-Echo.cpp ****         //process HPF
 462:Veno-Echo.cpp ****         HPF_L.Process(filteredDelay_L * 0.1f);
 463:Veno-Echo.cpp ****         HPF_R.Process(filteredDelay_R * 0.1f);
 464:Veno-Echo.cpp **** 
 465:Veno-Echo.cpp ****         float HPF_L_signal{HPF_L.High() * 10.0f};
ARM GAS  /var/folders/0d/2ntwfkp1791d52chq7d_xwdm0000gn/T//cc0vrvH1.s 			page 31


 466:Veno-Echo.cpp ****         float HPF_R_signal{HPF_R.High() * 10.0f};
 467:Veno-Echo.cpp **** 
 468:Veno-Echo.cpp ****         filteredDelay_L = HPF_LXfade.Process(filteredDelay_L, HPF_L_signal);
 469:Veno-Echo.cpp ****         filteredDelay_R = HPF_RXfade.Process(filteredDelay_R, HPF_R_signal);
 470:Veno-Echo.cpp **** 
 471:Veno-Echo.cpp ****         //crossfade between filtered and unfiltered delays:
 472:Veno-Echo.cpp **** 
 473:Veno-Echo.cpp ****         delaySignal_L = FilterMix_L.Process(delaySignal_L,filteredDelay_L);
 474:Veno-Echo.cpp ****         delaySignal_R = FilterMix_R.Process(delaySignal_R,filteredDelay_R);
 475:Veno-Echo.cpp **** 
 476:Veno-Echo.cpp **** //****************************************************************************************
 477:Veno-Echo.cpp **** }
 478:Veno-Echo.cpp **** 
 479:Veno-Echo.cpp **** else
 480:Veno-Echo.cpp **** {
 481:Veno-Echo.cpp ****     /* code */
 482:Veno-Echo.cpp **** }
 483:Veno-Echo.cpp **** 
 484:Veno-Echo.cpp ****         static float LNegFB{};  //static so value can be used for next sample
 485:Veno-Echo.cpp ****         static float RNegFB{};
 486:Veno-Echo.cpp **** 
 487:Veno-Echo.cpp ****         //ensure we never get inverse feedback
 488:Veno-Echo.cpp ****         if(feedbackL < LNegFB) 
 489:Veno-Echo.cpp ****             LNegFB = 0.0f;
 490:Veno-Echo.cpp ****         
 491:Veno-Echo.cpp ****         if(feedbackR < RNegFB)
 492:Veno-Echo.cpp ****             RNegFB = 0.0f;
 493:Veno-Echo.cpp **** 
 494:Veno-Echo.cpp ****         float feedbackSignalL{ (feedbackL - LNegFB) * delaySignal_L };
 495:Veno-Echo.cpp ****         float feedbackSignalR{ (feedbackR - RNegFB)  * delaySignal_R };
 496:Veno-Echo.cpp **** 
 497:Veno-Echo.cpp ****         //crossfeedback:
 498:Veno-Echo.cpp ****         float feedbackSignalLR{((1 - crossfeedback) * feedbackSignalL) + (crossfeedback * feedbackS
 499:Veno-Echo.cpp ****         float feedbackSignalRL{((1 - crossfeedback) * feedbackSignalR) + (crossfeedback * feedbackS
 500:Veno-Echo.cpp **** 
 501:Veno-Echo.cpp **** 
 502:Veno-Echo.cpp ****         //get envelopes for feedback signals
 503:Veno-Echo.cpp ****         float EnvL{LeftEnv.GetEnv(feedbackSignalL)};  
 504:Veno-Echo.cpp ****         float EnvR{RightEnv.GetEnv(feedbackSignalR)};  
 505:Veno-Echo.cpp **** 
 506:Veno-Echo.cpp ****             //if envelope of feedback signal exceeds threshold calculate negative FB factor
 507:Veno-Echo.cpp ****             if (EnvL >= NegFBOffset)
 508:Veno-Echo.cpp ****                 LNegFB = (EnvL - NegFBOffset) * NegFBCoeff;
 509:Veno-Echo.cpp ****             //else set negative feedback factor to zero
 510:Veno-Echo.cpp ****             else LNegFB = 0.0;
 511:Veno-Echo.cpp ****             
 512:Veno-Echo.cpp ****             if (EnvR >= NegFBOffset)
 513:Veno-Echo.cpp ****                 RNegFB = (EnvR - NegFBOffset) * NegFBCoeff;
 514:Veno-Echo.cpp ****             else RNegFB = 0.0;
 515:Veno-Echo.cpp **** 
 516:Veno-Echo.cpp ****         //write to fwd delay lines, including a DC block and hard limit
 517:Veno-Echo.cpp ****         float combinedL{feedbackSignalLR + FwdRevSignalLXFade};
 518:Veno-Echo.cpp ****         float combinedR{feedbackSignalRL + FwdRevSignalRXFade};
 519:Veno-Echo.cpp ****  
 520:Veno-Echo.cpp ****         //hard limit
 521:Veno-Echo.cpp ****         combinedL = HardLimit(combinedL,AudioLimit);
 522:Veno-Echo.cpp ****         combinedR = HardLimit(combinedR,AudioLimit);
ARM GAS  /var/folders/0d/2ntwfkp1791d52chq7d_xwdm0000gn/T//cc0vrvH1.s 			page 32


 523:Veno-Echo.cpp **** 
 524:Veno-Echo.cpp ****         //delayL.Write( DcBlock_LFB.Process(combinedL ) );
 525:Veno-Echo.cpp ****         //delayR.Write( DcBlock_RFB.Process(combinedR ) );
 526:Veno-Echo.cpp **** 
 527:Veno-Echo.cpp ****         delayL.Write(combinedL);
 528:Veno-Echo.cpp ****         delayR.Write(combinedR);
 529:Veno-Echo.cpp **** 
 530:Veno-Echo.cpp ****         // floats for wet dry mix
 531:Veno-Echo.cpp ****         float mixL;
 532:Veno-Echo.cpp ****         float mixR;
 533:Veno-Echo.cpp **** 
 534:Veno-Echo.cpp ****         float delaySignal_L_SUM = WidthXfade.Process(delaySignal_L,delaySignal_R);    //mix to mono
 535:Veno-Echo.cpp ****         float delaySignal_R_SUM = WidthXfade.Process(delaySignal_R,delaySignal_L);
 536:Veno-Echo.cpp **** 
 537:Veno-Echo.cpp ****         //hard limit
 538:Veno-Echo.cpp ****         delaySignal_L_SUM = HardLimit(delaySignal_L_SUM,AudioLimit);
 539:Veno-Echo.cpp ****         delaySignal_R_SUM = HardLimit(delaySignal_R_SUM,AudioLimit);
 540:Veno-Echo.cpp **** 
 541:Veno-Echo.cpp **** if(PostFilters)
 542:Veno-Echo.cpp **** {
 543:Veno-Echo.cpp ****     //****************************************************************************************
 544:Veno-Echo.cpp ****         //post filters
 545:Veno-Echo.cpp ****         //process LPF
 546:Veno-Echo.cpp ****         //0.1 factor necessary to stop variables going out of range with large amplitude inputs
 547:Veno-Echo.cpp ****         LPF_L_post.Process(delaySignal_L_SUM * 0.1f);
 548:Veno-Echo.cpp ****         LPF_R_post.Process(delaySignal_R_SUM * 0.1f);
 549:Veno-Echo.cpp **** 
 550:Veno-Echo.cpp ****         //10.0f factor to bring back to regular level.
 551:Veno-Echo.cpp ****         float LPF_L_signal_post{LPF_L_post.Low() * 10.0f};
 552:Veno-Echo.cpp ****         float LPF_R_signal_post{LPF_R_post.Low() * 10.0f};
 553:Veno-Echo.cpp ****         
 554:Veno-Echo.cpp ****         //crossfades will need to be tweaked for new switch layout.
 555:Veno-Echo.cpp ****         float filteredDelay_L_post{LPF_LXfade_post.Process(delaySignal_L_SUM, LPF_L_signal_post)};
 556:Veno-Echo.cpp ****         float filteredDelay_R_post{LPF_RXfade_post.Process(delaySignal_R_SUM, LPF_R_signal_post)};
 557:Veno-Echo.cpp **** 
 558:Veno-Echo.cpp ****         //hard limit
 559:Veno-Echo.cpp ****         filteredDelay_L_post = HardLimit(filteredDelay_L_post,AudioLimit);
 560:Veno-Echo.cpp ****         filteredDelay_R_post = HardLimit(filteredDelay_R_post,AudioLimit);
 561:Veno-Echo.cpp **** 
 562:Veno-Echo.cpp ****         //process HPF
 563:Veno-Echo.cpp ****         HPF_L_post.Process(filteredDelay_L_post * 0.1f);
 564:Veno-Echo.cpp ****         HPF_R_post.Process(filteredDelay_R_post * 0.1f);
 565:Veno-Echo.cpp **** 
 566:Veno-Echo.cpp ****         float HPF_L_signal_post{HPF_L_post.High() * 10.0f};
 567:Veno-Echo.cpp ****         float HPF_R_signal_post{HPF_R_post.High() * 10.0f};
 568:Veno-Echo.cpp **** 
 569:Veno-Echo.cpp ****         filteredDelay_L_post = HPF_LXfade_post.Process(filteredDelay_L_post, HPF_L_signal_post);
 570:Veno-Echo.cpp ****         filteredDelay_R_post = HPF_RXfade_post.Process(filteredDelay_R_post, HPF_R_signal_post);
 571:Veno-Echo.cpp **** 
 572:Veno-Echo.cpp ****         //crossfade between filtered and unfiltered delays:
 573:Veno-Echo.cpp ****         delaySignal_L_SUM = FilterMix_L_post.Process(delaySignal_L_SUM,filteredDelay_L_post);
 574:Veno-Echo.cpp ****         delaySignal_R_SUM = FilterMix_R_post.Process(delaySignal_R_SUM,filteredDelay_R_post);
 575:Veno-Echo.cpp **** 
 576:Veno-Echo.cpp ****     //****************************************************************************************
 577:Veno-Echo.cpp **** }
 578:Veno-Echo.cpp **** else
 579:Veno-Echo.cpp **** {
ARM GAS  /var/folders/0d/2ntwfkp1791d52chq7d_xwdm0000gn/T//cc0vrvH1.s 			page 33


 580:Veno-Echo.cpp ****     /* code */
 581:Veno-Echo.cpp **** }
 582:Veno-Echo.cpp ****         if(drywet < 0.5f)
 583:Veno-Echo.cpp ****         {
 584:Veno-Echo.cpp ****             mixL = in[i] + (2.0f * drywet * delaySignal_L_SUM);
 585:Veno-Echo.cpp ****             mixR = in[i+1] + (2.0f * drywet * delaySignal_R_SUM);
 586:Veno-Echo.cpp ****         }
 587:Veno-Echo.cpp ****         else if(drywet > 0.5f)
 588:Veno-Echo.cpp ****         {
 589:Veno-Echo.cpp ****             mixL = ((1 - drywet)* 2.0f * in[i]) + delaySignal_L_SUM;
 590:Veno-Echo.cpp ****             mixR = ((1 - drywet)* 2.0f * in[i+1]) + delaySignal_R_SUM;
 591:Veno-Echo.cpp ****         }
 592:Veno-Echo.cpp ****         else
 593:Veno-Echo.cpp ****         {
 594:Veno-Echo.cpp ****             mixL = in[i] + delaySignal_L_SUM;
 595:Veno-Echo.cpp ****             mixR = in[i+1] + delaySignal_R_SUM;
 596:Veno-Echo.cpp ****         }
 597:Veno-Echo.cpp **** 
 598:Veno-Echo.cpp ****         //send mixes to outputs
 599:Veno-Echo.cpp ****         if(mute)
 600:Veno-Echo.cpp ****         {
 601:Veno-Echo.cpp ****             out[i] = 0.0f;
 602:Veno-Echo.cpp ****             out[i+1] = 0.0f;
 603:Veno-Echo.cpp ****         }
 604:Veno-Echo.cpp ****         else
 605:Veno-Echo.cpp ****         {
 606:Veno-Echo.cpp ****             out[i] = mixL;
 607:Veno-Echo.cpp ****             out[i+1] = mixR;
 608:Veno-Echo.cpp ****         }
 609:Veno-Echo.cpp **** 
 610:Veno-Echo.cpp ****         //write to DAC for debug
 611:Veno-Echo.cpp ****        // dsy_dac_write(DSY_DAC_CHN1, static_cast<int>( EnvL * 4095.0f));
 612:Veno-Echo.cpp **** 
 613:Veno-Echo.cpp ****     }
 614:Veno-Echo.cpp **** 
 615:Veno-Echo.cpp **** }
 616:Veno-Echo.cpp **** 
 617:Veno-Echo.cpp **** void InitDelays(float samplerate)
 618:Veno-Echo.cpp **** {
 464              		.loc 21 618 1 is_stmt 1 view -0
 465              		.cfi_startproc
 466              		@ args = 0, pretend = 0, frame = 16
 467              		@ frame_needed = 0, uses_anonymous_args = 0
 619:Veno-Echo.cpp **** 
 620:Veno-Echo.cpp ****     //Init fwd delays
 621:Veno-Echo.cpp ****     delMemsL.Init(2);    //2 heads
 468              		.loc 21 621 5 view .LVU52
 469              	.LBB903:
 470              	.LBI903:
  53:delayline_multitap.h ****     
  54:delayline_multitap.h ****     /** initializes the delay line by clearing the values within, and setting delay head times to 0
  55:delayline_multitap.h ****     */
  56:delayline_multitap.h ****     void Init( size_t num_heads) 
 471              		.loc 19 56 10 view .LVU53
 472              	.LBB904:
 473              	.LBB905:
  57:delayline_multitap.h ****     {
ARM GAS  /var/folders/0d/2ntwfkp1791d52chq7d_xwdm0000gn/T//cc0vrvH1.s 			page 34


  58:delayline_multitap.h ****         for(size_t i = 0; i < max_size; i++)
 474              		.loc 19 58 29 view .LVU54
 475 0000 5D4B     		ldr	r3, .L37
 476 0002 5E49     		ldr	r1, .L37+4
 477              	.LBE905:
 478              	.LBE904:
 479              	.LBE903:
 618:Veno-Echo.cpp **** 
 480              		.loc 21 618 1 is_stmt 0 view .LVU55
 481 0004 F0B5     		push	{r4, r5, r6, r7, lr}
 482              		.cfi_def_cfa_offset 20
 483              		.cfi_offset 4, -20
 484              		.cfi_offset 5, -16
 485              		.cfi_offset 6, -12
 486              		.cfi_offset 7, -8
 487              		.cfi_offset 14, -4
 488 0006 A3F18405 		sub	r5, r3, #132
 489 000a 85B0     		sub	sp, sp, #20
 490              		.cfi_def_cfa_offset 40
 491 000c 2846     		mov	r0, r5
 492              	.LVL16:
 493              	.L18:
 494              	.LBB910:
 495              	.LBB909:
 496              	.LBB906:
  59:delayline_multitap.h ****         {
  60:delayline_multitap.h ****             line_[i] = T(0);
 497              		.loc 19 60 13 view .LVU56
 498 000e 0022     		movs	r2, #0
 499 0010 43F8042B 		str	r2, [r3], #4	@ float
  58:delayline_multitap.h ****         {
 500              		.loc 19 58 9 is_stmt 1 view .LVU57
  58:delayline_multitap.h ****         {
 501              		.loc 19 58 29 view .LVU58
 502 0014 8B42     		cmp	r3, r1
 503 0016 FAD1     		bne	.L18
 504              	.LBE906:
  61:delayline_multitap.h ****         }
  62:delayline_multitap.h **** 
  63:delayline_multitap.h ****         write_ptr_ = 0;
 505              		.loc 19 63 9 is_stmt 0 view .LVU59
 506 0018 0022     		movs	r2, #0
  64:delayline_multitap.h ****         num_heads_ = num_heads;
 507              		.loc 19 64 9 view .LVU60
 508 001a 594C     		ldr	r4, .L37+8
 509 001c 0226     		movs	r6, #2
 510              	.LBB907:
  65:delayline_multitap.h **** 
  66:delayline_multitap.h ****         for (size_t i{ 0 }; i < num_heads_; ++i)
 511              		.loc 19 66 21 view .LVU61
 512 001e 1346     		mov	r3, r2
 513              	.LBE907:
  63:delayline_multitap.h ****         num_heads_ = num_heads;
 514              		.loc 19 63 9 view .LVU62
 515 0020 2A60     		str	r2, [r5]
  64:delayline_multitap.h ****         num_heads_ = num_heads;
 516              		.loc 19 64 9 view .LVU63
ARM GAS  /var/folders/0d/2ntwfkp1791d52chq7d_xwdm0000gn/T//cc0vrvH1.s 			page 35


 517 0022 2E51     		str	r6, [r5, r4]
 518              	.LVL17:
 519              	.LBB908:
 520              		.loc 19 66 31 is_stmt 1 view .LVU64
 521              	.L19:
  67:delayline_multitap.h ****         {
  68:delayline_multitap.h ****             delay_[i] = 0;  //set all delay heads to 0 (no delay)
 522              		.loc 19 68 13 is_stmt 0 view .LVU65
 523 0024 0022     		movs	r2, #0
  66:delayline_multitap.h ****         {
 524              		.loc 19 66 9 view .LVU66
 525 0026 0133     		adds	r3, r3, #1
 526              	.LVL18:
  69:delayline_multitap.h ****             frac_[i] = 0;
 527              		.loc 19 69 13 view .LVU67
 528 0028 0024     		movs	r4, #0
  68:delayline_multitap.h ****             frac_[i] = 0;
 529              		.loc 19 68 13 view .LVU68
 530 002a 40F8042F 		str	r2, [r0, #4]!
  66:delayline_multitap.h ****         {
 531              		.loc 19 66 31 view .LVU69
 532 002e 0A68     		ldr	r2, [r1]
 533              		.loc 19 69 13 view .LVU70
 534 0030 0464     		str	r4, [r0, #64]	@ float
  66:delayline_multitap.h ****         {
 535              		.loc 19 66 9 is_stmt 1 view .LVU71
 536              	.LVL19:
  66:delayline_multitap.h ****         {
 537              		.loc 19 66 31 view .LVU72
 538 0032 9A42     		cmp	r2, r3
 539 0034 F6D8     		bhi	.L19
 540 0036 534B     		ldr	r3, .L37+12
 541              	.LVL20:
  66:delayline_multitap.h ****         {
 542              		.loc 19 66 31 is_stmt 0 view .LVU73
 543 0038 5349     		ldr	r1, .L37+16
 544 003a A3F18406 		sub	r6, r3, #132
 545 003e 3046     		mov	r0, r6
 546              	.LVL21:
 547              	.L20:
  66:delayline_multitap.h ****         {
 548              		.loc 19 66 31 view .LVU74
 549              	.LBE908:
 550              	.LBE909:
 551              	.LBE910:
 552              	.LBB911:
 553              	.LBB912:
 554              	.LBB913:
  60:delayline_multitap.h ****         }
 555              		.loc 19 60 13 view .LVU75
 556 0040 0022     		movs	r2, #0
 557 0042 43F8042B 		str	r2, [r3], #4	@ float
  58:delayline_multitap.h ****         {
 558              		.loc 19 58 9 is_stmt 1 view .LVU76
  58:delayline_multitap.h ****         {
 559              		.loc 19 58 29 view .LVU77
 560 0046 8B42     		cmp	r3, r1
ARM GAS  /var/folders/0d/2ntwfkp1791d52chq7d_xwdm0000gn/T//cc0vrvH1.s 			page 36


 561 0048 FAD1     		bne	.L20
 562              	.LBE913:
  63:delayline_multitap.h ****         num_heads_ = num_heads;
 563              		.loc 19 63 9 is_stmt 0 view .LVU78
 564 004a 0022     		movs	r2, #0
  64:delayline_multitap.h **** 
 565              		.loc 19 64 9 view .LVU79
 566 004c 4C4C     		ldr	r4, .L37+8
 567 004e 0227     		movs	r7, #2
 568              	.LBB914:
  66:delayline_multitap.h ****         {
 569              		.loc 19 66 21 view .LVU80
 570 0050 1346     		mov	r3, r2
 571              	.LBE914:
  63:delayline_multitap.h ****         num_heads_ = num_heads;
 572              		.loc 19 63 9 view .LVU81
 573 0052 3260     		str	r2, [r6]
  64:delayline_multitap.h **** 
 574              		.loc 19 64 9 view .LVU82
 575 0054 3751     		str	r7, [r6, r4]
 576              	.LVL22:
 577              	.LBB915:
  66:delayline_multitap.h ****         {
 578              		.loc 19 66 31 is_stmt 1 view .LVU83
 579              	.L21:
  68:delayline_multitap.h ****             frac_[i] = 0;
 580              		.loc 19 68 13 is_stmt 0 view .LVU84
 581 0056 0022     		movs	r2, #0
  66:delayline_multitap.h ****         {
 582              		.loc 19 66 9 view .LVU85
 583 0058 0133     		adds	r3, r3, #1
 584              	.LVL23:
 585              		.loc 19 69 13 view .LVU86
 586 005a 0024     		movs	r4, #0
  68:delayline_multitap.h ****             frac_[i] = 0;
 587              		.loc 19 68 13 view .LVU87
 588 005c 40F8042F 		str	r2, [r0, #4]!
  66:delayline_multitap.h ****         {
 589              		.loc 19 66 31 view .LVU88
 590 0060 0A68     		ldr	r2, [r1]
 591              		.loc 19 69 13 view .LVU89
 592 0062 0464     		str	r4, [r0, #64]	@ float
  66:delayline_multitap.h ****         {
 593              		.loc 19 66 9 is_stmt 1 view .LVU90
 594              	.LVL24:
  66:delayline_multitap.h ****         {
 595              		.loc 19 66 31 view .LVU91
 596 0064 9A42     		cmp	r2, r3
 597 0066 F6D8     		bhi	.L21
 598              	.LVL25:
  66:delayline_multitap.h ****         {
 599              		.loc 19 66 31 is_stmt 0 view .LVU92
 600              	.LBE915:
 601              	.LBE912:
 602              	.LBE911:
 622:Veno-Echo.cpp ****     delMemsR.Init(2);    //2 heads
 623:Veno-Echo.cpp **** 
ARM GAS  /var/folders/0d/2ntwfkp1791d52chq7d_xwdm0000gn/T//cc0vrvH1.s 			page 37


 624:Veno-Echo.cpp ****     //point del classes at SDRAM buffers
 625:Veno-Echo.cpp ****     delayL.del = &delMemsL; 
 603              		.loc 21 625 5 is_stmt 1 view .LVU93
 626:Veno-Echo.cpp ****     delayR.del = &delMemsR;
 604              		.loc 21 626 16 is_stmt 0 view .LVU94
 605 0068 484C     		ldr	r4, .L37+20
 627:Veno-Echo.cpp **** 
 628:Veno-Echo.cpp ****     delayL.init(hw.GetPin(8),samplerate);
 606              		.loc 21 628 16 view .LVU95
 607 006a 0820     		movs	r0, #8
 625:Veno-Echo.cpp ****     delayR.del = &delMemsR;
 608              		.loc 21 625 16 view .LVU96
 609 006c 484F     		ldr	r7, .L37+24
 610 006e 8DED010A 		vstr.32	s0, [sp, #4]	@ int
 611 0072 3D60     		str	r5, [r7]
 626:Veno-Echo.cpp ****     delayR.del = &delMemsR;
 612              		.loc 21 626 5 is_stmt 1 view .LVU97
 613              	.LBB916:
 614              	.LBB917:
 615              	.LBB918:
  40:delayline_reverse.h ****     /** initializes the delay line by clearing the values within, and setting delay to min time.
  41:delayline_reverse.h ****     */
  42:delayline_reverse.h ****     void Init() 
  43:delayline_reverse.h ****     { 
  44:delayline_reverse.h ****         Reset(); 
  45:delayline_reverse.h ****     }
  46:delayline_reverse.h ****     /** clears buffer, sets write ptr to 0, and delay to 1 sample.
  47:delayline_reverse.h ****     */
  48:delayline_reverse.h ****     void Reset()
  49:delayline_reverse.h ****     {
  50:delayline_reverse.h **** 
  51:delayline_reverse.h ****         delay1_  = 25000; //min Reverse delay time
 616              		.loc 20 51 9 is_stmt 0 view .LVU98
 617 0074 46F2A815 		movw	r5, #25000
 618              	.LBE918:
 619              	.LBE917:
 620              	.LBE916:
 626:Veno-Echo.cpp **** 
 621              		.loc 21 626 16 view .LVU99
 622 0078 2660     		str	r6, [r4]
 623              		.loc 21 628 5 is_stmt 1 view .LVU100
 624              		.loc 21 628 16 is_stmt 0 view .LVU101
 625 007a FFF7FEFF 		bl	_ZN5daisy9DaisySeed6GetPinEh
 626              	.LVL26:
 627              		.loc 21 628 16 view .LVU102
 628 007e 0346     		mov	r3, r0	@ movhi
 629 0080 9DED010A 		vldr.32	s0, [sp, #4]	@ int
 630 0084 3846     		mov	r0, r7
 631 0086 ADF80830 		strh	r3, [sp, #8]	@ movhi
 632 008a 0299     		ldr	r1, [sp, #8]
 633 008c FFF7FEFF 		bl	_ZN10DelayMulti4initE12dsy_gpio_pinf
 634              	.LVL27:
 629:Veno-Echo.cpp ****     delayR.init(hw.GetPin(9),samplerate);
 635              		.loc 21 629 5 is_stmt 1 view .LVU103
 636              		.loc 21 629 16 is_stmt 0 view .LVU104
 637 0090 0920     		movs	r0, #9
 638 0092 FFF7FEFF 		bl	_ZN5daisy9DaisySeed6GetPinEh
ARM GAS  /var/folders/0d/2ntwfkp1791d52chq7d_xwdm0000gn/T//cc0vrvH1.s 			page 38


 639              	.LVL28:
 640 0096 0346     		mov	r3, r0	@ movhi
 641 0098 2046     		mov	r0, r4
 642              	.LBB930:
 643              	.LBB925:
 644              	.LBB920:
 645              		.loc 20 51 9 view .LVU105
 646 009a 3E4C     		ldr	r4, .L37+28
 647              	.LBE920:
 648              	.LBE925:
 649              	.LBE930:
 650              		.loc 21 629 16 view .LVU106
 651 009c ADF80C30 		strh	r3, [sp, #12]	@ movhi
 652 00a0 0399     		ldr	r1, [sp, #12]
 653 00a2 9DED010A 		vldr.32	s0, [sp, #4]	@ int
 654 00a6 FFF7FEFF 		bl	_ZN10DelayMulti4initE12dsy_gpio_pinf
 655              	.LVL29:
 630:Veno-Echo.cpp **** 
 631:Veno-Echo.cpp ****     //delayL.SetDelayTime(500.0f);
 632:Veno-Echo.cpp ****     //delayR.SetDelayTime(500.0f);
 633:Veno-Echo.cpp **** 
 634:Veno-Echo.cpp ****     //Init rev delays
 635:Veno-Echo.cpp ****     delMemsL_REV.Init();
 656              		.loc 21 635 5 is_stmt 1 view .LVU107
 657              	.LBB931:
 658              	.LBI916:
  42:delayline_reverse.h ****     { 
 659              		.loc 20 42 10 view .LVU108
 660              	.LBB926:
 661              	.LBI917:
  48:delayline_reverse.h ****     {
 662              		.loc 20 48 10 view .LVU109
 663              	.LBB921:
  52:delayline_reverse.h ****         fadetime = 24000;    //in samples = 0.5 seconds
 664              		.loc 20 52 9 is_stmt 0 view .LVU110
 665 00aa 3B4A     		ldr	r2, .L37+32
 666 00ac 45F6C050 		movw	r0, #24000
 667 00b0 04F11803 		add	r3, r4, #24
 668 00b4 3949     		ldr	r1, .L37+36
  51:delayline_reverse.h ****         fadetime = 24000;    //in samples = 0.5 seconds
 669              		.loc 20 51 9 view .LVU111
 670 00b6 2561     		str	r5, [r4, #16]
 671              		.loc 20 52 9 view .LVU112
 672 00b8 A050     		str	r0, [r4, r2]
 673              	.LVL30:
 674              	.LBB919:
  53:delayline_reverse.h ****         
  54:delayline_reverse.h ****         for(size_t i = 0; i < max_size; i++)
 675              		.loc 20 54 29 is_stmt 1 view .LVU113
 676              	.L22:
  55:delayline_reverse.h ****         {
  56:delayline_reverse.h ****             line_[i] = T(0);
 677              		.loc 20 56 13 is_stmt 0 view .LVU114
 678 00ba 0022     		movs	r2, #0
 679 00bc 43F8042B 		str	r2, [r3], #4	@ float
  54:delayline_reverse.h ****         {
 680              		.loc 20 54 9 is_stmt 1 view .LVU115
ARM GAS  /var/folders/0d/2ntwfkp1791d52chq7d_xwdm0000gn/T//cc0vrvH1.s 			page 39


  54:delayline_reverse.h ****         {
 681              		.loc 20 54 29 view .LVU116
 682 00c0 8B42     		cmp	r3, r1
 683 00c2 FAD1     		bne	.L22
 684              	.LBE919:
 685              	.LBE921:
 686              	.LBE926:
 687              	.LBE931:
 688              	.LBB932:
 689              	.LBB933:
 690              	.LBB934:
  51:delayline_reverse.h ****         fadetime = 24000;    //in samples = 0.5 seconds
 691              		.loc 20 51 9 is_stmt 0 view .LVU117
 692 00c4 3648     		ldr	r0, .L37+40
 693 00c6 46F2A811 		movw	r1, #25000
  52:delayline_reverse.h ****         
 694              		.loc 20 52 9 view .LVU118
 695 00ca 334D     		ldr	r5, .L37+32
 696 00cc 45F6C056 		movw	r6, #24000
  51:delayline_reverse.h ****         fadetime = 24000;    //in samples = 0.5 seconds
 697              		.loc 20 51 9 view .LVU119
 698 00d0 0161     		str	r1, [r0, #16]
 699              	.LBE934:
 700              	.LBE933:
 701              	.LBE932:
 702              	.LBB957:
 703              	.LBB927:
 704              	.LBB922:
  57:delayline_reverse.h ****         }
  58:delayline_reverse.h ****         write_ptr_ = 0;
 705              		.loc 20 58 9 view .LVU120
 706 00d2 0021     		movs	r1, #0
 707              	.LBE922:
 708              	.LBE927:
 709              	.LBE957:
 710              	.LBB958:
 711              	.LBB947:
 712              	.LBB937:
  52:delayline_reverse.h ****         
 713              		.loc 20 52 9 view .LVU121
 714 00d4 4651     		str	r6, [r0, r5]
 715              	.LBE937:
 716              	.LBE947:
 717              	.LBE958:
 718              	.LBB959:
 719              	.LBB928:
 720              	.LBB923:
  59:delayline_reverse.h ****         read_ptr1_ = 0;
  60:delayline_reverse.h ****         read_ptr2_ = 0;
  61:delayline_reverse.h ****         headDiff_ = 0;
  62:delayline_reverse.h ****         playinghead_ = false;
 721              		.loc 20 62 9 view .LVU122
 722 00d6 0435     		adds	r5, r5, #4
  63:delayline_reverse.h ****         fadepos_ = 0.0f;
  64:delayline_reverse.h ****         fading_ = false;
 723              		.loc 20 64 9 view .LVU123
 724 00d8 324E     		ldr	r6, .L37+44
ARM GAS  /var/folders/0d/2ntwfkp1791d52chq7d_xwdm0000gn/T//cc0vrvH1.s 			page 40


 725 00da 00F11803 		add	r3, r0, #24
  62:delayline_reverse.h ****         fadepos_ = 0.0f;
 726              		.loc 20 62 9 view .LVU124
 727 00de 6155     		strb	r1, [r4, r5]
  60:delayline_reverse.h ****         headDiff_ = 0;
 728              		.loc 20 60 9 view .LVU125
 729 00e0 E160     		str	r1, [r4, #12]
  63:delayline_reverse.h ****         fadepos_ = 0.0f;
 730              		.loc 20 63 9 view .LVU126
 731 00e2 314D     		ldr	r5, .L37+48
  61:delayline_reverse.h ****         playinghead_ = false;
 732              		.loc 20 61 9 view .LVU127
 733 00e4 6161     		str	r1, [r4, #20]
 734              		.loc 20 64 9 view .LVU128
 735 00e6 A155     		strb	r1, [r4, r6]
 736              	.LVL31:
 737              		.loc 20 64 9 view .LVU129
 738              	.LBE923:
 739              	.LBE928:
 740              	.LBE959:
 636:Veno-Echo.cpp ****     delMemsR_REV.Init();
 741              		.loc 21 636 5 is_stmt 1 view .LVU130
 742              	.LBB960:
 743              	.LBI932:
  42:delayline_reverse.h ****     { 
 744              		.loc 20 42 10 view .LVU131
 745              	.LBB948:
 746              	.LBI933:
  48:delayline_reverse.h ****     {
 747              		.loc 20 48 10 view .LVU132
 748              	.LBB938:
 749              	.LBB935:
  54:delayline_reverse.h ****         {
 750              		.loc 20 54 29 view .LVU133
 751              	.LBE935:
 752              	.LBE938:
 753              	.LBE948:
 754              	.LBE960:
 755              	.LBB961:
 756              	.LBB929:
 757              	.LBB924:
  63:delayline_reverse.h ****         fading_ = false;
 758              		.loc 20 63 9 is_stmt 0 view .LVU134
 759 00e8 2A60     		str	r2, [r5]	@ float
  59:delayline_reverse.h ****         read_ptr2_ = 0;
 760              		.loc 20 59 9 view .LVU135
 761 00ea C4E90111 		strd	r1, r1, [r4, #4]
 762 00ee 2F49     		ldr	r1, .L37+52
 763              	.LVL32:
 764              	.L23:
  59:delayline_reverse.h ****         read_ptr2_ = 0;
 765              		.loc 20 59 9 view .LVU136
 766              	.LBE924:
 767              	.LBE929:
 768              	.LBE961:
 769              	.LBB962:
 770              	.LBB949:
ARM GAS  /var/folders/0d/2ntwfkp1791d52chq7d_xwdm0000gn/T//cc0vrvH1.s 			page 41


 771              	.LBB939:
 772              	.LBB936:
  56:delayline_reverse.h ****         }
 773              		.loc 20 56 13 view .LVU137
 774 00f0 0022     		movs	r2, #0
 775 00f2 43F8042B 		str	r2, [r3], #4	@ float
  54:delayline_reverse.h ****         {
 776              		.loc 20 54 9 is_stmt 1 view .LVU138
  54:delayline_reverse.h ****         {
 777              		.loc 20 54 29 view .LVU139
 778 00f6 8B42     		cmp	r3, r1
 779 00f8 FAD1     		bne	.L23
 780              	.LBE936:
 781              	.LBE939:
 782              	.LBE949:
 783              	.LBE962:
 637:Veno-Echo.cpp **** 
 638:Veno-Echo.cpp ****     //point struct at SDRAM buffers
 639:Veno-Echo.cpp ****     delaysL_REV.del = &delMemsL_REV; 
 784              		.loc 21 639 21 is_stmt 0 view .LVU140
 785 00fa 2D49     		ldr	r1, .L37+56
 786              	.LBB963:
 787              	.LBB950:
 788              	.LBB940:
  58:delayline_reverse.h ****         read_ptr1_ = 0;
 789              		.loc 20 58 9 view .LVU141
 790 00fc 0023     		movs	r3, #0
 791              	.LBE940:
 792              	.LBE950:
 793              	.LBE963:
 794              	.LBB964:
 795              	.LBB965:
  70:Veno-Echo.cpp ****         //only update if more than 0.5% of last value
 796              		.loc 21 70 15 view .LVU142
 797 00fe DFED2D6A 		vldr.32	s13, .L37+60
  70:Veno-Echo.cpp ****         //only update if more than 0.5% of last value
 798              		.loc 21 70 28 view .LVU143
 799 0102 D1ED017A 		vldr.32	s15, [r1, #4]
  70:Veno-Echo.cpp ****         //only update if more than 0.5% of last value
 800              		.loc 21 70 53 view .LVU144
 801 0106 9FED2C6A 		vldr.32	s12, .L37+64
  70:Veno-Echo.cpp ****         //only update if more than 0.5% of last value
 802              		.loc 21 70 15 view .LVU145
 803 010a 36EEE77A 		vsub.f32	s14, s13, s15
 804              	.LBE965:
 805              	.LBE964:
 806              	.LBB979:
 807              	.LBB951:
 808              	.LBB941:
  62:delayline_reverse.h ****         fadepos_ = 0.0f;
 809              		.loc 20 62 9 view .LVU146
 810 010e 2B4D     		ldr	r5, .L37+68
 811              	.LBE941:
 812              	.LBE951:
 813              	.LBE979:
 814              	.LBB980:
 815              	.LBB974:
ARM GAS  /var/folders/0d/2ntwfkp1791d52chq7d_xwdm0000gn/T//cc0vrvH1.s 			page 42


  70:Veno-Echo.cpp ****         //only update if more than 0.5% of last value
 816              		.loc 21 70 53 view .LVU147
 817 0110 67EE867A 		vmul.f32	s15, s15, s12
 818              	.LBE974:
 819              	.LBE980:
 820              	.LBB981:
 821              	.LBB952:
 822              	.LBB942:
 823              		.loc 20 64 9 view .LVU148
 824 0114 234E     		ldr	r6, .L37+44
  62:delayline_reverse.h ****         fadepos_ = 0.0f;
 825              		.loc 20 62 9 view .LVU149
 826 0116 4355     		strb	r3, [r0, r5]
 827              	.LBE942:
 828              	.LBE952:
 829              	.LBE981:
 830              	.LBB982:
 831              	.LBB975:
 832              	.LBB966:
 833              	.LBB967:
 834              		.file 22 "/usr/local/Cellar/arm-none-eabi-gcc/9-2019-q4-major/gcc/arm-none-eabi/include/c++/9.2.1/
   1:/usr/local/Cellar/arm-none-eabi-gcc/9-2019-q4-major/gcc/arm-none-eabi/include/c++/9.2.1/bits/std_abs.h **** // -*- C++ -*- C library enhancements header.
   2:/usr/local/Cellar/arm-none-eabi-gcc/9-2019-q4-major/gcc/arm-none-eabi/include/c++/9.2.1/bits/std_abs.h **** 
   3:/usr/local/Cellar/arm-none-eabi-gcc/9-2019-q4-major/gcc/arm-none-eabi/include/c++/9.2.1/bits/std_abs.h **** // Copyright (C) 2016-2019 Free Software Foundation, Inc.
   4:/usr/local/Cellar/arm-none-eabi-gcc/9-2019-q4-major/gcc/arm-none-eabi/include/c++/9.2.1/bits/std_abs.h **** //
   5:/usr/local/Cellar/arm-none-eabi-gcc/9-2019-q4-major/gcc/arm-none-eabi/include/c++/9.2.1/bits/std_abs.h **** // This file is part of the GNU ISO C++ Library.  This library is free
   6:/usr/local/Cellar/arm-none-eabi-gcc/9-2019-q4-major/gcc/arm-none-eabi/include/c++/9.2.1/bits/std_abs.h **** // software; you can redistribute it and/or modify it under the
   7:/usr/local/Cellar/arm-none-eabi-gcc/9-2019-q4-major/gcc/arm-none-eabi/include/c++/9.2.1/bits/std_abs.h **** // terms of the GNU General Public License as published by the
   8:/usr/local/Cellar/arm-none-eabi-gcc/9-2019-q4-major/gcc/arm-none-eabi/include/c++/9.2.1/bits/std_abs.h **** // Free Software Foundation; either version 3, or (at your option)
   9:/usr/local/Cellar/arm-none-eabi-gcc/9-2019-q4-major/gcc/arm-none-eabi/include/c++/9.2.1/bits/std_abs.h **** // any later version.
  10:/usr/local/Cellar/arm-none-eabi-gcc/9-2019-q4-major/gcc/arm-none-eabi/include/c++/9.2.1/bits/std_abs.h **** 
  11:/usr/local/Cellar/arm-none-eabi-gcc/9-2019-q4-major/gcc/arm-none-eabi/include/c++/9.2.1/bits/std_abs.h **** // This library is distributed in the hope that it will be useful,
  12:/usr/local/Cellar/arm-none-eabi-gcc/9-2019-q4-major/gcc/arm-none-eabi/include/c++/9.2.1/bits/std_abs.h **** // but WITHOUT ANY WARRANTY; without even the implied warranty of
  13:/usr/local/Cellar/arm-none-eabi-gcc/9-2019-q4-major/gcc/arm-none-eabi/include/c++/9.2.1/bits/std_abs.h **** // MERCHANTABILITY or FITNESS FOR A PARTICULAR PURPOSE.  See the
  14:/usr/local/Cellar/arm-none-eabi-gcc/9-2019-q4-major/gcc/arm-none-eabi/include/c++/9.2.1/bits/std_abs.h **** // GNU General Public License for more details.
  15:/usr/local/Cellar/arm-none-eabi-gcc/9-2019-q4-major/gcc/arm-none-eabi/include/c++/9.2.1/bits/std_abs.h **** 
  16:/usr/local/Cellar/arm-none-eabi-gcc/9-2019-q4-major/gcc/arm-none-eabi/include/c++/9.2.1/bits/std_abs.h **** // Under Section 7 of GPL version 3, you are granted additional
  17:/usr/local/Cellar/arm-none-eabi-gcc/9-2019-q4-major/gcc/arm-none-eabi/include/c++/9.2.1/bits/std_abs.h **** // permissions described in the GCC Runtime Library Exception, version
  18:/usr/local/Cellar/arm-none-eabi-gcc/9-2019-q4-major/gcc/arm-none-eabi/include/c++/9.2.1/bits/std_abs.h **** // 3.1, as published by the Free Software Foundation.
  19:/usr/local/Cellar/arm-none-eabi-gcc/9-2019-q4-major/gcc/arm-none-eabi/include/c++/9.2.1/bits/std_abs.h **** 
  20:/usr/local/Cellar/arm-none-eabi-gcc/9-2019-q4-major/gcc/arm-none-eabi/include/c++/9.2.1/bits/std_abs.h **** // You should have received a copy of the GNU General Public License and
  21:/usr/local/Cellar/arm-none-eabi-gcc/9-2019-q4-major/gcc/arm-none-eabi/include/c++/9.2.1/bits/std_abs.h **** // a copy of the GCC Runtime Library Exception along with this program;
  22:/usr/local/Cellar/arm-none-eabi-gcc/9-2019-q4-major/gcc/arm-none-eabi/include/c++/9.2.1/bits/std_abs.h **** // see the files COPYING3 and COPYING.RUNTIME respectively.  If not, see
  23:/usr/local/Cellar/arm-none-eabi-gcc/9-2019-q4-major/gcc/arm-none-eabi/include/c++/9.2.1/bits/std_abs.h **** // <http://www.gnu.org/licenses/>.
  24:/usr/local/Cellar/arm-none-eabi-gcc/9-2019-q4-major/gcc/arm-none-eabi/include/c++/9.2.1/bits/std_abs.h **** 
  25:/usr/local/Cellar/arm-none-eabi-gcc/9-2019-q4-major/gcc/arm-none-eabi/include/c++/9.2.1/bits/std_abs.h **** /** @file include/bits/std_abs.h
  26:/usr/local/Cellar/arm-none-eabi-gcc/9-2019-q4-major/gcc/arm-none-eabi/include/c++/9.2.1/bits/std_abs.h ****  *  This is an internal header file, included by other library headers.
  27:/usr/local/Cellar/arm-none-eabi-gcc/9-2019-q4-major/gcc/arm-none-eabi/include/c++/9.2.1/bits/std_abs.h ****  *  Do not attempt to use it directly. @headername{cmath, cstdlib}
  28:/usr/local/Cellar/arm-none-eabi-gcc/9-2019-q4-major/gcc/arm-none-eabi/include/c++/9.2.1/bits/std_abs.h ****  */
  29:/usr/local/Cellar/arm-none-eabi-gcc/9-2019-q4-major/gcc/arm-none-eabi/include/c++/9.2.1/bits/std_abs.h **** 
  30:/usr/local/Cellar/arm-none-eabi-gcc/9-2019-q4-major/gcc/arm-none-eabi/include/c++/9.2.1/bits/std_abs.h **** #ifndef _GLIBCXX_BITS_STD_ABS_H
  31:/usr/local/Cellar/arm-none-eabi-gcc/9-2019-q4-major/gcc/arm-none-eabi/include/c++/9.2.1/bits/std_abs.h **** #define _GLIBCXX_BITS_STD_ABS_H
  32:/usr/local/Cellar/arm-none-eabi-gcc/9-2019-q4-major/gcc/arm-none-eabi/include/c++/9.2.1/bits/std_abs.h **** 
  33:/usr/local/Cellar/arm-none-eabi-gcc/9-2019-q4-major/gcc/arm-none-eabi/include/c++/9.2.1/bits/std_abs.h **** #pragma GCC system_header
  34:/usr/local/Cellar/arm-none-eabi-gcc/9-2019-q4-major/gcc/arm-none-eabi/include/c++/9.2.1/bits/std_abs.h **** 
  35:/usr/local/Cellar/arm-none-eabi-gcc/9-2019-q4-major/gcc/arm-none-eabi/include/c++/9.2.1/bits/std_abs.h **** #include <bits/c++config.h>
  36:/usr/local/Cellar/arm-none-eabi-gcc/9-2019-q4-major/gcc/arm-none-eabi/include/c++/9.2.1/bits/std_abs.h **** 
ARM GAS  /var/folders/0d/2ntwfkp1791d52chq7d_xwdm0000gn/T//cc0vrvH1.s 			page 43


  37:/usr/local/Cellar/arm-none-eabi-gcc/9-2019-q4-major/gcc/arm-none-eabi/include/c++/9.2.1/bits/std_abs.h **** #define _GLIBCXX_INCLUDE_NEXT_C_HEADERS
  38:/usr/local/Cellar/arm-none-eabi-gcc/9-2019-q4-major/gcc/arm-none-eabi/include/c++/9.2.1/bits/std_abs.h **** #include_next <stdlib.h>
  39:/usr/local/Cellar/arm-none-eabi-gcc/9-2019-q4-major/gcc/arm-none-eabi/include/c++/9.2.1/bits/std_abs.h **** #ifdef __CORRECT_ISO_CPP_MATH_H_PROTO
  40:/usr/local/Cellar/arm-none-eabi-gcc/9-2019-q4-major/gcc/arm-none-eabi/include/c++/9.2.1/bits/std_abs.h **** # include_next <math.h>
  41:/usr/local/Cellar/arm-none-eabi-gcc/9-2019-q4-major/gcc/arm-none-eabi/include/c++/9.2.1/bits/std_abs.h **** #endif
  42:/usr/local/Cellar/arm-none-eabi-gcc/9-2019-q4-major/gcc/arm-none-eabi/include/c++/9.2.1/bits/std_abs.h **** #undef _GLIBCXX_INCLUDE_NEXT_C_HEADERS
  43:/usr/local/Cellar/arm-none-eabi-gcc/9-2019-q4-major/gcc/arm-none-eabi/include/c++/9.2.1/bits/std_abs.h **** 
  44:/usr/local/Cellar/arm-none-eabi-gcc/9-2019-q4-major/gcc/arm-none-eabi/include/c++/9.2.1/bits/std_abs.h **** #undef abs
  45:/usr/local/Cellar/arm-none-eabi-gcc/9-2019-q4-major/gcc/arm-none-eabi/include/c++/9.2.1/bits/std_abs.h **** 
  46:/usr/local/Cellar/arm-none-eabi-gcc/9-2019-q4-major/gcc/arm-none-eabi/include/c++/9.2.1/bits/std_abs.h **** extern "C++"
  47:/usr/local/Cellar/arm-none-eabi-gcc/9-2019-q4-major/gcc/arm-none-eabi/include/c++/9.2.1/bits/std_abs.h **** {
  48:/usr/local/Cellar/arm-none-eabi-gcc/9-2019-q4-major/gcc/arm-none-eabi/include/c++/9.2.1/bits/std_abs.h **** namespace std _GLIBCXX_VISIBILITY(default)
  49:/usr/local/Cellar/arm-none-eabi-gcc/9-2019-q4-major/gcc/arm-none-eabi/include/c++/9.2.1/bits/std_abs.h **** {
  50:/usr/local/Cellar/arm-none-eabi-gcc/9-2019-q4-major/gcc/arm-none-eabi/include/c++/9.2.1/bits/std_abs.h **** _GLIBCXX_BEGIN_NAMESPACE_VERSION
  51:/usr/local/Cellar/arm-none-eabi-gcc/9-2019-q4-major/gcc/arm-none-eabi/include/c++/9.2.1/bits/std_abs.h **** 
  52:/usr/local/Cellar/arm-none-eabi-gcc/9-2019-q4-major/gcc/arm-none-eabi/include/c++/9.2.1/bits/std_abs.h ****   using ::abs;
  53:/usr/local/Cellar/arm-none-eabi-gcc/9-2019-q4-major/gcc/arm-none-eabi/include/c++/9.2.1/bits/std_abs.h **** 
  54:/usr/local/Cellar/arm-none-eabi-gcc/9-2019-q4-major/gcc/arm-none-eabi/include/c++/9.2.1/bits/std_abs.h **** #ifndef __CORRECT_ISO_CPP_STDLIB_H_PROTO
  55:/usr/local/Cellar/arm-none-eabi-gcc/9-2019-q4-major/gcc/arm-none-eabi/include/c++/9.2.1/bits/std_abs.h ****   inline long
  56:/usr/local/Cellar/arm-none-eabi-gcc/9-2019-q4-major/gcc/arm-none-eabi/include/c++/9.2.1/bits/std_abs.h ****   abs(long __i) { return __builtin_labs(__i); }
  57:/usr/local/Cellar/arm-none-eabi-gcc/9-2019-q4-major/gcc/arm-none-eabi/include/c++/9.2.1/bits/std_abs.h **** #endif
  58:/usr/local/Cellar/arm-none-eabi-gcc/9-2019-q4-major/gcc/arm-none-eabi/include/c++/9.2.1/bits/std_abs.h **** 
  59:/usr/local/Cellar/arm-none-eabi-gcc/9-2019-q4-major/gcc/arm-none-eabi/include/c++/9.2.1/bits/std_abs.h **** #ifdef _GLIBCXX_USE_LONG_LONG
  60:/usr/local/Cellar/arm-none-eabi-gcc/9-2019-q4-major/gcc/arm-none-eabi/include/c++/9.2.1/bits/std_abs.h ****   inline long long
  61:/usr/local/Cellar/arm-none-eabi-gcc/9-2019-q4-major/gcc/arm-none-eabi/include/c++/9.2.1/bits/std_abs.h ****   abs(long long __x) { return __builtin_llabs (__x); }
  62:/usr/local/Cellar/arm-none-eabi-gcc/9-2019-q4-major/gcc/arm-none-eabi/include/c++/9.2.1/bits/std_abs.h **** #endif
  63:/usr/local/Cellar/arm-none-eabi-gcc/9-2019-q4-major/gcc/arm-none-eabi/include/c++/9.2.1/bits/std_abs.h **** 
  64:/usr/local/Cellar/arm-none-eabi-gcc/9-2019-q4-major/gcc/arm-none-eabi/include/c++/9.2.1/bits/std_abs.h **** // _GLIBCXX_RESOLVE_LIB_DEFECTS
  65:/usr/local/Cellar/arm-none-eabi-gcc/9-2019-q4-major/gcc/arm-none-eabi/include/c++/9.2.1/bits/std_abs.h **** // 2192. Validity and return type of std::abs(0u) is unclear
  66:/usr/local/Cellar/arm-none-eabi-gcc/9-2019-q4-major/gcc/arm-none-eabi/include/c++/9.2.1/bits/std_abs.h **** // 2294. <cstdlib> should declare abs(double)
  67:/usr/local/Cellar/arm-none-eabi-gcc/9-2019-q4-major/gcc/arm-none-eabi/include/c++/9.2.1/bits/std_abs.h **** // 2735. std::abs(short), std::abs(signed char) and others should return int
  68:/usr/local/Cellar/arm-none-eabi-gcc/9-2019-q4-major/gcc/arm-none-eabi/include/c++/9.2.1/bits/std_abs.h **** 
  69:/usr/local/Cellar/arm-none-eabi-gcc/9-2019-q4-major/gcc/arm-none-eabi/include/c++/9.2.1/bits/std_abs.h **** #ifndef __CORRECT_ISO_CPP_MATH_H_PROTO
  70:/usr/local/Cellar/arm-none-eabi-gcc/9-2019-q4-major/gcc/arm-none-eabi/include/c++/9.2.1/bits/std_abs.h ****   inline _GLIBCXX_CONSTEXPR double
  71:/usr/local/Cellar/arm-none-eabi-gcc/9-2019-q4-major/gcc/arm-none-eabi/include/c++/9.2.1/bits/std_abs.h ****   abs(double __x)
  72:/usr/local/Cellar/arm-none-eabi-gcc/9-2019-q4-major/gcc/arm-none-eabi/include/c++/9.2.1/bits/std_abs.h ****   { return __builtin_fabs(__x); }
  73:/usr/local/Cellar/arm-none-eabi-gcc/9-2019-q4-major/gcc/arm-none-eabi/include/c++/9.2.1/bits/std_abs.h **** 
  74:/usr/local/Cellar/arm-none-eabi-gcc/9-2019-q4-major/gcc/arm-none-eabi/include/c++/9.2.1/bits/std_abs.h ****   inline _GLIBCXX_CONSTEXPR float
  75:/usr/local/Cellar/arm-none-eabi-gcc/9-2019-q4-major/gcc/arm-none-eabi/include/c++/9.2.1/bits/std_abs.h ****   abs(float __x)
  76:/usr/local/Cellar/arm-none-eabi-gcc/9-2019-q4-major/gcc/arm-none-eabi/include/c++/9.2.1/bits/std_abs.h ****   { return __builtin_fabsf(__x); }
 835              		.loc 22 76 31 view .LVU150
 836 0118 B0EEC77A 		vabs.f32	s14, s14
 837              	.LBE967:
 838              	.LBE966:
 839              	.LBE975:
 840              	.LBE982:
 841              	.LBB983:
 842              	.LBB953:
 843              	.LBB943:
  63:delayline_reverse.h ****         fading_ = false;
 844              		.loc 20 63 9 view .LVU151
 845 011c 284D     		ldr	r5, .L37+72
  60:delayline_reverse.h ****         headDiff_ = 0;
 846              		.loc 20 60 9 view .LVU152
 847 011e C360     		str	r3, [r0, #12]
  61:delayline_reverse.h ****         playinghead_ = false;
 848              		.loc 20 61 9 view .LVU153
ARM GAS  /var/folders/0d/2ntwfkp1791d52chq7d_xwdm0000gn/T//cc0vrvH1.s 			page 44


 849 0120 4361     		str	r3, [r0, #20]
 850              	.LBE943:
 851              	.LBE953:
 852              	.LBE983:
 853              	.LBB984:
 854              	.LBB976:
  70:Veno-Echo.cpp ****         //only update if more than 0.5% of last value
 855              		.loc 21 70 9 view .LVU154
 856 0122 B4EEE77A 		vcmpe.f32	s14, s15
 857              	.LBE976:
 858              	.LBE984:
 859              	.LBB985:
 860              	.LBB954:
 861              	.LBB944:
 862              		.loc 20 64 9 view .LVU155
 863 0126 8355     		strb	r3, [r0, r6]
 864              	.LVL33:
 865              		.loc 20 64 9 view .LVU156
 866              	.LBE944:
 867              	.LBE954:
 868              	.LBE985:
 869              		.loc 21 639 5 is_stmt 1 view .LVU157
 640:Veno-Echo.cpp ****     delaysR_REV.del = &delMemsR_REV; 
 870              		.loc 21 640 5 view .LVU158
 639:Veno-Echo.cpp ****     delaysR_REV.del = &delMemsR_REV; 
 871              		.loc 21 639 21 is_stmt 0 view .LVU159
 872 0128 0C60     		str	r4, [r1]
 873              	.LBB986:
 874              	.LBB955:
 875              	.LBB945:
  63:delayline_reverse.h ****         fading_ = false;
 876              		.loc 20 63 9 view .LVU160
 877 012a 2A60     		str	r2, [r5]	@ float
 878              	.LBE945:
 879              	.LBE955:
 880              	.LBE986:
 881              	.LBB987:
 882              	.LBB977:
  70:Veno-Echo.cpp ****         //only update if more than 0.5% of last value
 883              		.loc 21 70 9 view .LVU161
 884 012c F1EE10FA 		vmrs	APSR_nzcv, FPSCR
 885              	.LBE977:
 886              	.LBE987:
 887              	.LBB988:
 888              	.LBB956:
 889              	.LBB946:
  59:delayline_reverse.h ****         read_ptr2_ = 0;
 890              		.loc 20 59 9 view .LVU162
 891 0130 C0E90133 		strd	r3, r3, [r0, #4]
 892              	.LBE946:
 893              	.LBE956:
 894              	.LBE988:
 895              		.loc 21 640 21 view .LVU163
 896 0134 234B     		ldr	r3, .L37+76
 897 0136 1860     		str	r0, [r3]
 641:Veno-Echo.cpp **** 
 642:Veno-Echo.cpp ****     //Reverse Delay Length. Setup as static value for now. Will make this a shift function
ARM GAS  /var/folders/0d/2ntwfkp1791d52chq7d_xwdm0000gn/T//cc0vrvH1.s 			page 45


 643:Veno-Echo.cpp ****     delaysL_REV.SetDelayTime(maxRevDelay / 3.f);
 898              		.loc 21 643 5 is_stmt 1 view .LVU164
 899              	.LVL34:
 900              	.LBB989:
 901              	.LBI964:
  68:Veno-Echo.cpp ****     {
 902              		.loc 21 68 10 view .LVU165
 903              	.LBB978:
  70:Veno-Echo.cpp ****         //only update if more than 0.5% of last value
 904              		.loc 21 70 9 view .LVU166
 905              	.LBB969:
 906              	.LBI966:
  75:/usr/local/Cellar/arm-none-eabi-gcc/9-2019-q4-major/gcc/arm-none-eabi/include/c++/9.2.1/bits/std_abs.h ****   { return __builtin_fabsf(__x); }
 907              		.loc 22 75 3 view .LVU167
 908              	.LBB968:
 909              		.loc 22 76 5 view .LVU168
 910              		.loc 22 76 5 is_stmt 0 view .LVU169
 911              	.LBE968:
 912              	.LBE969:
  70:Veno-Echo.cpp ****         //only update if more than 0.5% of last value
 913              		.loc 21 70 9 view .LVU170
 914 0138 04DD     		ble	.L24
  73:Veno-Echo.cpp ****             del -> SetDelay1(static_cast<size_t>(currentDelay_));
 915              		.loc 21 73 13 is_stmt 1 view .LVU171
 916              	.LBB970:
 917              	.LBB971:
  65:delayline_reverse.h ****     }
  66:delayline_reverse.h **** 
  67:delayline_reverse.h ****     /** sets the delay time in samples
  68:delayline_reverse.h ****     */
  69:delayline_reverse.h ****     inline void SetDelay1(size_t delay)
  70:delayline_reverse.h ****     {
  71:delayline_reverse.h ****         frac1_  = 0.0f;
  72:delayline_reverse.h ****         delay1_ = delay < max_size ? delay : max_size - 1;
 918              		.loc 20 72 9 is_stmt 0 view .LVU172
 919 013a 234D     		ldr	r5, .L37+80
 920              	.LBE971:
 921              	.LBE970:
  73:Veno-Echo.cpp ****             del -> SetDelay1(static_cast<size_t>(currentDelay_));
 922              		.loc 21 73 27 view .LVU173
 923 013c C1ED016A 		vstr.32	s13, [r1, #4]
  74:Veno-Echo.cpp ****             //del -> Reset();
 924              		.loc 21 74 13 is_stmt 1 view .LVU174
 925              	.LVL35:
 926              	.LBB973:
 927              	.LBI970:
  69:delayline_reverse.h ****     {
 928              		.loc 20 69 17 view .LVU175
 929              	.LBB972:
  71:delayline_reverse.h ****         delay1_ = delay < max_size ? delay : max_size - 1;
 930              		.loc 20 71 9 is_stmt 0 view .LVU176
 931 0140 2260     		str	r2, [r4]	@ float
 932              		.loc 20 72 9 view .LVU177
 933 0142 2561     		str	r5, [r4, #16]
 934              	.LVL36:
 935              	.L24:
 936              		.loc 20 72 9 view .LVU178
ARM GAS  /var/folders/0d/2ntwfkp1791d52chq7d_xwdm0000gn/T//cc0vrvH1.s 			page 46


 937              	.LBE972:
 938              	.LBE973:
 939              	.LBE978:
 940              	.LBE989:
 644:Veno-Echo.cpp ****     delaysR_REV.SetDelayTime(maxRevDelay / 3.f);   //default maxRevDelay / 3.0f
 941              		.loc 21 644 5 is_stmt 1 view .LVU179
 942              	.LBB990:
 943              	.LBI990:
  68:Veno-Echo.cpp ****     {
 944              		.loc 21 68 10 view .LVU180
 945              	.LBB991:
  70:Veno-Echo.cpp ****         //only update if more than 0.5% of last value
 946              		.loc 21 70 9 view .LVU181
  70:Veno-Echo.cpp ****         //only update if more than 0.5% of last value
 947              		.loc 21 70 28 is_stmt 0 view .LVU182
 948 0144 D3ED017A 		vldr.32	s15, [r3, #4]
 949              	.LVL37:
 950              	.LBB992:
 951              	.LBI992:
  75:/usr/local/Cellar/arm-none-eabi-gcc/9-2019-q4-major/gcc/arm-none-eabi/include/c++/9.2.1/bits/std_abs.h ****   { return __builtin_fabsf(__x); }
 952              		.loc 22 75 3 is_stmt 1 view .LVU183
 953              	.LBB993:
 954              		.loc 22 76 5 view .LVU184
 955              		.loc 22 76 5 is_stmt 0 view .LVU185
 956              	.LBE993:
 957              	.LBE992:
  70:Veno-Echo.cpp ****         //only update if more than 0.5% of last value
 958              		.loc 21 70 15 view .LVU186
 959 0148 DFED1A6A 		vldr.32	s13, .L37+60
  70:Veno-Echo.cpp ****         //only update if more than 0.5% of last value
 960              		.loc 21 70 53 view .LVU187
 961 014c 9FED1A6A 		vldr.32	s12, .L37+64
  70:Veno-Echo.cpp ****         //only update if more than 0.5% of last value
 962              		.loc 21 70 15 view .LVU188
 963 0150 36EEE77A 		vsub.f32	s14, s13, s15
  70:Veno-Echo.cpp ****         //only update if more than 0.5% of last value
 964              		.loc 21 70 53 view .LVU189
 965 0154 67EE867A 		vmul.f32	s15, s15, s12
 966              	.LBB995:
 967              	.LBB994:
 968              		.loc 22 76 31 view .LVU190
 969 0158 B0EEC77A 		vabs.f32	s14, s14
 970              	.LBE994:
 971              	.LBE995:
  70:Veno-Echo.cpp ****         //only update if more than 0.5% of last value
 972              		.loc 21 70 9 view .LVU191
 973 015c B4EEE77A 		vcmpe.f32	s14, s15
 974 0160 F1EE10FA 		vmrs	APSR_nzcv, FPSCR
 975 0164 05DD     		ble	.L17
  73:Veno-Echo.cpp ****             del -> SetDelay1(static_cast<size_t>(currentDelay_));
 976              		.loc 21 73 13 is_stmt 1 view .LVU192
 977              	.LBB996:
 978              	.LBB997:
  71:delayline_reverse.h ****         delay1_ = delay < max_size ? delay : max_size - 1;
 979              		.loc 20 71 9 is_stmt 0 view .LVU193
 980 0166 0021     		movs	r1, #0
 981              		.loc 20 72 9 view .LVU194
ARM GAS  /var/folders/0d/2ntwfkp1791d52chq7d_xwdm0000gn/T//cc0vrvH1.s 			page 47


 982 0168 174A     		ldr	r2, .L37+80
 983              	.LBE997:
 984              	.LBE996:
  73:Veno-Echo.cpp ****             del -> SetDelay1(static_cast<size_t>(currentDelay_));
 985              		.loc 21 73 27 view .LVU195
 986 016a C3ED016A 		vstr.32	s13, [r3, #4]
  74:Veno-Echo.cpp ****             //del -> Reset();
 987              		.loc 21 74 13 is_stmt 1 view .LVU196
 988              	.LVL38:
 989              	.LBB999:
 990              	.LBI996:
  69:delayline_reverse.h ****     {
 991              		.loc 20 69 17 view .LVU197
 992              	.LBB998:
  71:delayline_reverse.h ****         delay1_ = delay < max_size ? delay : max_size - 1;
 993              		.loc 20 71 9 is_stmt 0 view .LVU198
 994 016e 0160     		str	r1, [r0]	@ float
 995              		.loc 20 72 9 view .LVU199
 996 0170 0261     		str	r2, [r0, #16]
 997              	.LVL39:
 998              	.L17:
 999              		.loc 20 72 9 view .LVU200
 1000              	.LBE998:
 1001              	.LBE999:
 1002              	.LBE991:
 1003              	.LBE990:
 645:Veno-Echo.cpp **** 
 646:Veno-Echo.cpp **** }
 1004              		.loc 21 646 1 view .LVU201
 1005 0172 05B0     		add	sp, sp, #20
 1006              		.cfi_def_cfa_offset 20
 1007              		@ sp needed
 1008 0174 F0BD     		pop	{r4, r5, r6, r7, pc}
 1009              	.L38:
 1010 0176 00BF     		.align	2
 1011              	.L37:
 1012 0178 84000000 		.word	delMemsL+132
 1013 017c 84786900 		.word	delMemsL+6912132
 1014 0180 84786900 		.word	6912132
 1015 0184 84000000 		.word	delMemsR+132
 1016 0188 84786900 		.word	delMemsR+6912132
 1017 018c 00000000 		.word	.LANCHOR1
 1018 0190 00000000 		.word	.LANCHOR0
 1019 0194 00000000 		.word	delMemsL_REV
 1020 0198 189F2400 		.word	2400024
 1021 019c 189F2400 		.word	delMemsL_REV+2400024
 1022 01a0 00000000 		.word	delMemsR_REV
 1023 01a4 249F2400 		.word	2400036
 1024 01a8 209F2400 		.word	delMemsL_REV+2400032
 1025 01ac 189F2400 		.word	delMemsR_REV+2400024
 1026 01b0 00000000 		.word	.LANCHOR2
 1027 01b4 00409C47 		.word	1201422336
 1028 01b8 0AD7A33B 		.word	1000593162
 1029 01bc 1C9F2400 		.word	2400028
 1030 01c0 209F2400 		.word	delMemsR_REV+2400032
 1031 01c4 00000000 		.word	.LANCHOR3
 1032 01c8 80380100 		.word	80000
ARM GAS  /var/folders/0d/2ntwfkp1791d52chq7d_xwdm0000gn/T//cc0vrvH1.s 			page 48


 1033              		.cfi_endproc
 1034              	.LFE4310:
 1036              		.section	.text._Z20Update_DelayTimeL_CVv,"ax",%progbits
 1037              		.align	1
 1038              		.p2align 2,,3
 1039              		.global	_Z20Update_DelayTimeL_CVv
 1040              		.syntax unified
 1041              		.thumb
 1042              		.thumb_func
 1043              		.fpu fpv5-d16
 1045              	_Z20Update_DelayTimeL_CVv:
 1046              	.LFB4312:
 647:Veno-Echo.cpp **** 
 648:Veno-Echo.cpp **** int main(void)
 649:Veno-Echo.cpp **** {
 650:Veno-Echo.cpp ****     // initialize hardware.
 651:Veno-Echo.cpp ****     hw.Configure();
 652:Veno-Echo.cpp ****     hw.Init();
 653:Veno-Echo.cpp ****     //hw.SetAudioSampleRate(SaiHandle::Config::SampleRate::SAI_96KHZ);
 654:Veno-Echo.cpp ****     
 655:Veno-Echo.cpp ****     //Buttons or switches with status LEDs
 656:Veno-Echo.cpp **** 
 657:Veno-Echo.cpp ****     LPF_sw.init(hw.GetPin(29),hw.GetPin(6),ButtonLED::Toggle,hw.AudioSampleRate() / static_cast<flo
 658:Veno-Echo.cpp ****     HPF_sw.init(hw.GetPin(30),hw.GetPin(7),ButtonLED::Toggle,hw.AudioSampleRate()/ static_cast<floa
 659:Veno-Echo.cpp ****     Rev_L_sw.init(hw.GetPin(10),hw.GetPin(2),ButtonLED::Momentary,hw.AudioSampleRate() / static_cas
 660:Veno-Echo.cpp ****     Rev_R_sw.init(hw.GetPin(11),hw.GetPin(3),ButtonLED::Momentary,hw.AudioSampleRate() / static_cas
 661:Veno-Echo.cpp ****     Tap_Button.init(hw.GetPin(24),hw.GetPin(4),ButtonLED::Toggle_inverted,hw.AudioSampleRate() / st
 662:Veno-Echo.cpp **** 
 663:Veno-Echo.cpp ****     //Gates
 664:Veno-Echo.cpp ****     ReverseGateL.Init(hw.GetPin(0), hw.AudioSampleRate() / static_cast<float> (updateDiv),Switch::T
 665:Veno-Echo.cpp ****     ReverseGateR.Init(hw.GetPin(1), hw.AudioSampleRate() / static_cast<float> (updateDiv),Switch::T
 666:Veno-Echo.cpp **** 
 667:Veno-Echo.cpp ****     //TapButton.Init(hw.GetPin(4), hw.AudioSampleRate() / 48.f);
 668:Veno-Echo.cpp ****     Sync.Init(hw.GetPin(23), hw.AudioSampleRate() / static_cast<float> (updateDiv));
 669:Veno-Echo.cpp ****     ClockIn.Init(&ClockPin);
 670:Veno-Echo.cpp **** 
 671:Veno-Echo.cpp ****     //ClockIn.Init(hw.GetPin(5), hw.AudioSampleRate());
 672:Veno-Echo.cpp ****     
 673:Veno-Echo.cpp ****     FwdRevLEnv.Init(hw.AudioSampleRate());
 674:Veno-Echo.cpp ****     FwdRevLEnv.SetTime(ADENV_SEG_ATTACK, FwdRevXFadeTime);
 675:Veno-Echo.cpp ****     FwdRevLEnv.SetTime(ADENV_SEG_DECAY, 0.01);
 676:Veno-Echo.cpp ****     FwdRevLEnv.SetTime(ADSR_SEG_RELEASE, FwdRevXFadeTime);
 677:Veno-Echo.cpp ****     FwdRevLEnv.SetSustainLevel(1.0);
 678:Veno-Echo.cpp **** 
 679:Veno-Echo.cpp ****     FwdRevREnv.Init(hw.AudioSampleRate());
 680:Veno-Echo.cpp ****     FwdRevREnv.SetTime(ADENV_SEG_ATTACK, FwdRevXFadeTime);
 681:Veno-Echo.cpp ****     FwdRevREnv.SetTime(ADENV_SEG_DECAY, 0.01);
 682:Veno-Echo.cpp ****     FwdRevREnv.SetTime(ADSR_SEG_RELEASE, FwdRevXFadeTime);
 683:Veno-Echo.cpp ****     FwdRevREnv.SetSustainLevel(1.0);
 684:Veno-Echo.cpp **** 
 685:Veno-Echo.cpp ****     LPF_Env.Init(hw.AudioSampleRate());
 686:Veno-Echo.cpp ****     LPF_Env.SetTime(ADENV_SEG_ATTACK, XFadeTime);
 687:Veno-Echo.cpp ****     LPF_Env.SetTime(ADENV_SEG_DECAY, 0.01);
 688:Veno-Echo.cpp ****     LPF_Env.SetTime(ADSR_SEG_RELEASE, XFadeTime);
 689:Veno-Echo.cpp ****     LPF_Env.SetSustainLevel(1.0);
 690:Veno-Echo.cpp **** 
 691:Veno-Echo.cpp ****     HPF_Env.Init(hw.AudioSampleRate());
ARM GAS  /var/folders/0d/2ntwfkp1791d52chq7d_xwdm0000gn/T//cc0vrvH1.s 			page 49


 692:Veno-Echo.cpp ****     HPF_Env.SetTime(ADENV_SEG_ATTACK, XFadeTime);
 693:Veno-Echo.cpp ****     HPF_Env.SetTime(ADENV_SEG_DECAY, 0.01);
 694:Veno-Echo.cpp ****     HPF_Env.SetTime(ADSR_SEG_RELEASE, XFadeTime);
 695:Veno-Echo.cpp ****     HPF_Env.SetSustainLevel(1.0);
 696:Veno-Echo.cpp **** 
 697:Veno-Echo.cpp ****     // set params for CrossFade objects
 698:Veno-Echo.cpp ****     FwdRevLXfade.Init();
 699:Veno-Echo.cpp ****     FwdRevLXfade.SetCurve(CROSSFADE_CPOW);
 700:Veno-Echo.cpp ****     FwdRevRXfade.Init();
 701:Veno-Echo.cpp ****     FwdRevRXfade.SetCurve(CROSSFADE_CPOW);
 702:Veno-Echo.cpp **** 
 703:Veno-Echo.cpp ****     WidthXfade.Init();
 704:Veno-Echo.cpp ****     WidthXfade.SetCurve(CROSSFADE_CPOW);
 705:Veno-Echo.cpp **** 
 706:Veno-Echo.cpp ****     InitDelays(hw.AudioSampleRate());
 707:Veno-Echo.cpp **** 
 708:Veno-Echo.cpp ****     //setup L and R Low Pass filters
 709:Veno-Echo.cpp ****     LPF_L.Init(hw.AudioSampleRate());
 710:Veno-Echo.cpp ****     LPF_L.SetRes(default_Res);
 711:Veno-Echo.cpp ****     LPF_L.SetFreq(defaultLPCut);
 712:Veno-Echo.cpp ****     LPF_L.SetDrive(defaultDrive);
 713:Veno-Echo.cpp **** 
 714:Veno-Echo.cpp ****     LPF_R.Init(hw.AudioSampleRate());
 715:Veno-Echo.cpp ****     LPF_R.SetRes(default_Res);
 716:Veno-Echo.cpp ****     LPF_R.SetFreq(defaultLPCut);
 717:Veno-Echo.cpp ****     LPF_R.SetDrive(defaultDrive);
 718:Veno-Echo.cpp **** 
 719:Veno-Echo.cpp ****     //setup L and R High Pass filters
 720:Veno-Echo.cpp ****     HPF_L.Init(hw.AudioSampleRate());
 721:Veno-Echo.cpp ****     HPF_L.SetRes(default_Res);
 722:Veno-Echo.cpp ****     HPF_L.SetFreq(defaultHPCut);
 723:Veno-Echo.cpp ****     HPF_L.SetDrive(defaultDrive);
 724:Veno-Echo.cpp **** 
 725:Veno-Echo.cpp ****     HPF_R.Init(hw.AudioSampleRate());
 726:Veno-Echo.cpp ****     HPF_R.SetRes(default_Res);
 727:Veno-Echo.cpp ****     HPF_R.SetFreq(defaultHPCut);
 728:Veno-Echo.cpp ****     HPF_R.SetDrive(defaultDrive);
 729:Veno-Echo.cpp **** 
 730:Veno-Echo.cpp ****     //post filters
 731:Veno-Echo.cpp ****     LPF_L_post.Init(hw.AudioSampleRate());
 732:Veno-Echo.cpp ****     LPF_L_post.SetRes(default_Res);
 733:Veno-Echo.cpp ****     LPF_L_post.SetFreq(defaultLPCut);
 734:Veno-Echo.cpp ****     LPF_L_post.SetDrive(defaultDrive);
 735:Veno-Echo.cpp **** 
 736:Veno-Echo.cpp ****     LPF_R_post.Init(hw.AudioSampleRate());
 737:Veno-Echo.cpp ****     LPF_R_post.SetRes(default_Res);
 738:Veno-Echo.cpp ****     LPF_R_post.SetFreq(defaultLPCut);
 739:Veno-Echo.cpp ****     LPF_R_post.SetDrive(defaultDrive);
 740:Veno-Echo.cpp **** 
 741:Veno-Echo.cpp ****     //setup L and R High Pass filters
 742:Veno-Echo.cpp ****     HPF_L_post.Init(hw.AudioSampleRate());
 743:Veno-Echo.cpp ****     HPF_L_post.SetRes(default_Res);
 744:Veno-Echo.cpp ****     HPF_L_post.SetFreq(defaultHPCut);
 745:Veno-Echo.cpp ****     HPF_L_post.SetDrive(defaultDrive);
 746:Veno-Echo.cpp **** 
 747:Veno-Echo.cpp ****     HPF_R_post.Init(hw.AudioSampleRate());
 748:Veno-Echo.cpp ****     HPF_R_post.SetRes(default_Res);
ARM GAS  /var/folders/0d/2ntwfkp1791d52chq7d_xwdm0000gn/T//cc0vrvH1.s 			page 50


 749:Veno-Echo.cpp ****     HPF_R_post.SetFreq(defaultHPCut);
 750:Veno-Echo.cpp ****     HPF_R_post.SetDrive(defaultDrive);
 751:Veno-Echo.cpp **** 
 752:Veno-Echo.cpp ****     DcBlock_LFB.Init(hw.AudioSampleRate());
 753:Veno-Echo.cpp ****     DcBlock_RFB.Init(hw.AudioSampleRate());
 754:Veno-Echo.cpp **** 
 755:Veno-Echo.cpp ****     //LFO for modulation of fwd delay time
 756:Veno-Echo.cpp ****     lfo.Init(hw.AudioSampleRate());
 757:Veno-Echo.cpp ****     lfo.SetWaveform(lfo.WAVE_TRI);
 758:Veno-Echo.cpp ****     lfo.SetFreq(1.0f);
 759:Veno-Echo.cpp ****     lfo.SetAmp(1.0f);
 760:Veno-Echo.cpp **** 
 761:Veno-Echo.cpp ****     BaseTempo.init(mintap,maxtap,1.25f);  //max 6 second tap
 762:Veno-Echo.cpp **** 
 763:Veno-Echo.cpp ****     //setup tempo indicators
 764:Veno-Echo.cpp ****     //tempoLED_BASE.init(hw.GetPin(14),hw.AudioSampleRate());
 765:Veno-Echo.cpp ****     tempoLED_BASE.init(hw.GetPin(24),hw.AudioSampleRate());
 766:Veno-Echo.cpp ****     tempoLED_BASE.setTempo(BaseTempo.getTapFreq());
 767:Veno-Echo.cpp ****     tempoLED_BASE.resetPhase();
 768:Veno-Echo.cpp **** 
 769:Veno-Echo.cpp ****     //load settings from flash
 770:Veno-Echo.cpp **** 
 771:Veno-Echo.cpp ****     Settings SavedSettings{LoadSettings()};
 772:Veno-Echo.cpp ****     //ApplySettings(defaultAltControls);
 773:Veno-Echo.cpp ****     //AltControls = defaultAltControls;
 774:Veno-Echo.cpp **** 
 775:Veno-Echo.cpp ****     ApplySettings(SavedSettings);
 776:Veno-Echo.cpp ****     AltControls = SavedSettings;
 777:Veno-Echo.cpp **** 
 778:Veno-Echo.cpp ****     //initialize DAC
 779:Veno-Echo.cpp **** 
 780:Veno-Echo.cpp ****    //ADC
 781:Veno-Echo.cpp ****     AdcChannelConfig adcConfig[8];
 782:Veno-Echo.cpp **** 
 783:Veno-Echo.cpp ****     adcConfig[0].InitSingle(hw.GetPin(15));
 784:Veno-Echo.cpp ****     adcConfig[1].InitSingle(hw.GetPin(16));
 785:Veno-Echo.cpp ****     adcConfig[2].InitSingle(hw.GetPin(17));
 786:Veno-Echo.cpp ****     adcConfig[3].InitSingle(hw.GetPin(18));
 787:Veno-Echo.cpp ****     adcConfig[4].InitSingle(hw.GetPin(19));
 788:Veno-Echo.cpp ****     adcConfig[5].InitSingle(hw.GetPin(20));
 789:Veno-Echo.cpp ****     //adc[6].InitSingle(hw.GetPin(21));
 790:Veno-Echo.cpp ****     adcConfig[6].InitSingle(hw.GetPin(22));
 791:Veno-Echo.cpp ****     adcConfig[7].InitMux(hw.GetPin(25),8,hw.GetPin(14),hw.GetPin(13),hw.GetPin(12));
 792:Veno-Echo.cpp **** 
 793:Veno-Echo.cpp **** 
 794:Veno-Echo.cpp ****     hw.adc.Init(adcConfig, 8,daisy::AdcHandle::OVS_128);
 795:Veno-Echo.cpp ****     hw.adc.Start();
 796:Veno-Echo.cpp **** 
 797:Veno-Echo.cpp **** 
 798:Veno-Echo.cpp ****     hw.SetAudioBlockSize(1);     //set blocksize.
 799:Veno-Echo.cpp ****     // start audio callback
 800:Veno-Echo.cpp ****     hw.StartAudio(AudioCallback);
 801:Veno-Echo.cpp **** 
 802:Veno-Echo.cpp ****     
 803:Veno-Echo.cpp **** 
 804:Veno-Echo.cpp ****      for(;;)
 805:Veno-Echo.cpp ****      {  
ARM GAS  /var/folders/0d/2ntwfkp1791d52chq7d_xwdm0000gn/T//cc0vrvH1.s 			page 51


 806:Veno-Echo.cpp **** 
 807:Veno-Echo.cpp ****         static uint32_t saveTimer{};
 808:Veno-Echo.cpp ****         //static bool SaveWaitFlag{};
 809:Veno-Echo.cpp ****        
 810:Veno-Echo.cpp ****         if(save_flag)   //if save_flag is set
 811:Veno-Echo.cpp ****         {
 812:Veno-Echo.cpp ****             save_flag = false;
 813:Veno-Echo.cpp ****             saveState = WAITING;    //set flag - start waiting
 814:Veno-Echo.cpp ****             saveTimer = System::GetNow();   //reset timer
 815:Veno-Echo.cpp ****         }
 816:Veno-Echo.cpp ****         
 817:Veno-Echo.cpp ****         else    //save flag not set
 818:Veno-Echo.cpp ****         {
 819:Veno-Echo.cpp ****            if(saveState == WAITING)    //wait flag set (waiting)
 820:Veno-Echo.cpp ****            {
 821:Veno-Echo.cpp ****                if(System::GetNow() - saveTimer > 1000)  //1second wait to save
 822:Veno-Echo.cpp ****                 {
 823:Veno-Echo.cpp ****                     saveState = SAVING; //stop reading ADCs temporarily
 824:Veno-Echo.cpp ****                     
 825:Veno-Echo.cpp ****                     Settings ToSave{AltControls};   //copy settings
 826:Veno-Echo.cpp ****                     if (SaveSettings(ToSave) == DSY_MEMORY_OK)  //save settings
 827:Veno-Echo.cpp ****                     {
 828:Veno-Echo.cpp ****                     }
 829:Veno-Echo.cpp ****                 }
 830:Veno-Echo.cpp **** 
 831:Veno-Echo.cpp ****                 else{} //still waiting
 832:Veno-Echo.cpp **** 
 833:Veno-Echo.cpp ****            }
 834:Veno-Echo.cpp **** 
 835:Veno-Echo.cpp ****            if(saveState == SAVING)
 836:Veno-Echo.cpp ****            {
 837:Veno-Echo.cpp ****             if(System::GetNow() - saveTimer > 1200) //additional 0.2 second wait
 838:Veno-Echo.cpp ****             {
 839:Veno-Echo.cpp ****                     saveState = IDLE;   //reset saveState
 840:Veno-Echo.cpp ****             }
 841:Veno-Echo.cpp ****             else{} //ADCs paused
 842:Veno-Echo.cpp **** 
 843:Veno-Echo.cpp ****            }
 844:Veno-Echo.cpp **** 
 845:Veno-Echo.cpp ****            else //IDLE - do nothing
 846:Veno-Echo.cpp ****            {
 847:Veno-Echo.cpp ****            }
 848:Veno-Echo.cpp ****         }
 849:Veno-Echo.cpp **** 
 850:Veno-Echo.cpp ****      }
 851:Veno-Echo.cpp **** 
 852:Veno-Echo.cpp **** }
 853:Veno-Echo.cpp **** 
 854:Veno-Echo.cpp **** void Update_DelayTimeL_CV()
 855:Veno-Echo.cpp **** {
 1047              		.loc 21 855 1 is_stmt 1 view -0
 1048              		.cfi_startproc
 1049              		@ args = 0, pretend = 0, frame = 0
 1050              		@ frame_needed = 0, uses_anonymous_args = 0
 856:Veno-Echo.cpp ****     delayTimeL_CV = hw.adc.GetFloat(0);
 1051              		.loc 21 856 5 view .LVU203
 855:Veno-Echo.cpp ****     delayTimeL_CV = hw.adc.GetFloat(0);
ARM GAS  /var/folders/0d/2ntwfkp1791d52chq7d_xwdm0000gn/T//cc0vrvH1.s 			page 52


 1052              		.loc 21 855 1 is_stmt 0 view .LVU204
 1053 0000 08B5     		push	{r3, lr}
 1054              		.cfi_def_cfa_offset 8
 1055              		.cfi_offset 3, -8
 1056              		.cfi_offset 14, -4
 1057              		.loc 21 856 36 view .LVU205
 1058 0002 0021     		movs	r1, #0
 1059 0004 0348     		ldr	r0, .L41
 1060 0006 FFF7FEFF 		bl	_ZNK5daisy9AdcHandle8GetFloatEh
 1061              	.LVL40:
 1062              		.loc 21 856 19 view .LVU206
 1063 000a 034B     		ldr	r3, .L41+4
 1064 000c 83ED000A 		vstr.32	s0, [r3]
 857:Veno-Echo.cpp **** }
 1065              		.loc 21 857 1 view .LVU207
 1066 0010 08BD     		pop	{r3, pc}
 1067              	.L42:
 1068 0012 00BF     		.align	2
 1069              	.L41:
 1070 0014 18000000 		.word	.LANCHOR4+24
 1071 0018 00000000 		.word	.LANCHOR5
 1072              		.cfi_endproc
 1073              	.LFE4312:
 1075              		.section	.text._Z17Update_DelayTimeLv,"ax",%progbits
 1076              		.align	1
 1077              		.p2align 2,,3
 1078              		.global	_Z17Update_DelayTimeLv
 1079              		.syntax unified
 1080              		.thumb
 1081              		.thumb_func
 1082              		.fpu fpv5-d16
 1084              	_Z17Update_DelayTimeLv:
 1085              	.LFB4313:
 858:Veno-Echo.cpp **** 
 859:Veno-Echo.cpp **** void Update_DelayTimeL()
 860:Veno-Echo.cpp **** {
 1086              		.loc 21 860 1 is_stmt 1 view -0
 1087              		.cfi_startproc
 1088              		@ args = 0, pretend = 0, frame = 0
 1089              		@ frame_needed = 0, uses_anonymous_args = 0
 861:Veno-Echo.cpp ****     static bool lastShift{};
 1090              		.loc 21 861 5 view .LVU209
 862:Veno-Echo.cpp ****     static bool delayTimeL_pickup{};
 1091              		.loc 21 862 5 view .LVU210
 863:Veno-Echo.cpp ****     static bool Rev_DelayTime_pickup{};
 1092              		.loc 21 863 5 view .LVU211
 864:Veno-Echo.cpp ****     
 865:Veno-Echo.cpp ****     static float delayTimeL_Last{};
 1093              		.loc 21 865 5 view .LVU212
 866:Veno-Echo.cpp **** 
 867:Veno-Echo.cpp ****     //update pot values
 868:Veno-Echo.cpp ****     float delayTimeL_Pot{hw.adc.GetMuxFloat(7,2)};
 1094              		.loc 21 868 5 view .LVU213
 860:Veno-Echo.cpp ****     static bool lastShift{};
 1095              		.loc 21 860 1 is_stmt 0 view .LVU214
 1096 0000 10B5     		push	{r4, lr}
 1097              		.cfi_def_cfa_offset 8
ARM GAS  /var/folders/0d/2ntwfkp1791d52chq7d_xwdm0000gn/T//cc0vrvH1.s 			page 53


 1098              		.cfi_offset 4, -8
 1099              		.cfi_offset 14, -4
 1100              		.loc 21 868 44 view .LVU215
 1101 0002 0222     		movs	r2, #2
 1102 0004 0721     		movs	r1, #7
 1103 0006 7648     		ldr	r0, .L76
 1104 0008 FFF7FEFF 		bl	_ZNK5daisy9AdcHandle11GetMuxFloatEhh
 1105              	.LVL41:
 869:Veno-Echo.cpp **** 
 870:Veno-Echo.cpp ****     //counter used to limit how quickly delay time is changed, 
 871:Veno-Echo.cpp ****     //and to ensure L and R delay times don't change at the same time.
 872:Veno-Echo.cpp ****     static int counterL{};
 873:Veno-Echo.cpp ****     counterL = (counterL + 1) % (32 * 6);    
 1106              		.loc 21 873 26 view .LVU216
 1107 000c 7549     		ldr	r1, .L76+4
 1108              		.loc 21 873 31 view .LVU217
 1109 000e 764B     		ldr	r3, .L76+8
 1110              	.LVL42:
 872:Veno-Echo.cpp ****     counterL = (counterL + 1) % (32 * 6);    
 1111              		.loc 21 872 5 is_stmt 1 view .LVU218
 1112              		.loc 21 873 5 view .LVU219
 1113              		.loc 21 873 26 is_stmt 0 view .LVU220
 1114 0010 0A68     		ldr	r2, [r1]
 1115              	.LBB1000:
 874:Veno-Echo.cpp **** 
 875:Veno-Echo.cpp ****     if (!shift) //default control
 1116              		.loc 21 875 9 view .LVU221
 1117 0012 7648     		ldr	r0, .L76+12
 1118              	.LBE1000:
 873:Veno-Echo.cpp **** 
 1119              		.loc 21 873 26 view .LVU222
 1120 0014 0132     		adds	r2, r2, #1
 1121              	.LBB1073:
 1122              		.loc 21 875 5 view .LVU223
 1123 0016 0078     		ldrb	r0, [r0]	@ zero_extendqisi2
 1124              	.LBE1073:
 873:Veno-Echo.cpp **** 
 1125              		.loc 21 873 31 view .LVU224
 1126 0018 83FB0243 		smull	r4, r3, r3, r2
 1127 001c D417     		asrs	r4, r2, #31
 1128 001e C4EB6313 		rsb	r3, r4, r3, asr #5
 1129 0022 03EB4303 		add	r3, r3, r3, lsl #1
 1130 0026 A2EB8313 		sub	r3, r2, r3, lsl #6
 1131              	.LBB1074:
 1132              	.LBB1001:
 876:Veno-Echo.cpp ****     {
 877:Veno-Echo.cpp ****         static float delayTimeL_new{};
 878:Veno-Echo.cpp ****         //udpate pickup
 879:Veno-Echo.cpp ****         if (shift != lastShift) //recent shift change
 1133              		.loc 21 879 19 view .LVU225
 1134 002a 714A     		ldr	r2, .L76+16
 1135              	.LBE1001:
 1136              	.LBE1074:
 873:Veno-Echo.cpp **** 
 1137              		.loc 21 873 14 view .LVU226
 1138 002c 0B60     		str	r3, [r1]
 875:Veno-Echo.cpp ****     {
ARM GAS  /var/folders/0d/2ntwfkp1791d52chq7d_xwdm0000gn/T//cc0vrvH1.s 			page 54


 1139              		.loc 21 875 5 is_stmt 1 view .LVU227
 1140              	.LBB1075:
 1141 002e 80BB     		cbnz	r0, .L44
 1142              	.LBB1020:
 877:Veno-Echo.cpp ****         //udpate pickup
 1143              		.loc 21 877 9 view .LVU228
 1144              		.loc 21 879 9 view .LVU229
 1145 0030 1178     		ldrb	r1, [r2]	@ zero_extendqisi2
 1146 0032 0029     		cmp	r1, #0
 1147 0034 38D0     		beq	.L45
 880:Veno-Echo.cpp ****         {
 881:Veno-Echo.cpp ****             lastShift = shift;
 1148              		.loc 21 881 13 view .LVU230
 882:Veno-Echo.cpp ****             delayTimeL_pickup = false;  //set to not picked up
 1149              		.loc 21 882 31 is_stmt 0 view .LVU231
 1150 0036 6F4C     		ldr	r4, .L76+20
 883:Veno-Echo.cpp ****             delayTimeL_new = delayTimeL_Pot;   //update new value
 1151              		.loc 21 883 28 view .LVU232
 1152 0038 6F49     		ldr	r1, .L76+24
 881:Veno-Echo.cpp ****             delayTimeL_pickup = false;  //set to not picked up
 1153              		.loc 21 881 23 view .LVU233
 1154 003a 1070     		strb	r0, [r2]
 882:Veno-Echo.cpp ****             delayTimeL_pickup = false;  //set to not picked up
 1155              		.loc 21 882 13 is_stmt 1 view .LVU234
 882:Veno-Echo.cpp ****             delayTimeL_pickup = false;  //set to not picked up
 1156              		.loc 21 882 31 is_stmt 0 view .LVU235
 1157 003c 2070     		strb	r0, [r4]
 1158              		.loc 21 883 13 is_stmt 1 view .LVU236
 1159              		.loc 21 883 28 is_stmt 0 view .LVU237
 1160 003e 81ED000A 		vstr.32	s0, [r1]
 1161              	.L46:
 884:Veno-Echo.cpp ****         } 
 885:Veno-Echo.cpp ****         else    //not a recent shift change
 886:Veno-Echo.cpp ****         {
 887:Veno-Echo.cpp ****             if(!delayTimeL_pickup)  //not picked up
 888:Veno-Echo.cpp ****             {
 889:Veno-Echo.cpp ****                 if(abs(delayTimeL_Pot - delayTimeL_new) > pickupTolerance)  //checked if changed fr
 890:Veno-Echo.cpp ****                 {
 891:Veno-Echo.cpp ****                     delayTimeL_pickup = true;   //set to picked up
 892:Veno-Echo.cpp ****                 }
 893:Veno-Echo.cpp ****             }
 894:Veno-Echo.cpp ****         }
 895:Veno-Echo.cpp **** 
 896:Veno-Echo.cpp ****         float delayTimeL{};
 1162              		.loc 21 896 9 is_stmt 1 view .LVU238
 1163              	.LVL43:
 897:Veno-Echo.cpp **** 
 898:Veno-Echo.cpp ****         if(delayTimeL_pickup)
 1164              		.loc 21 898 9 view .LVU239
 899:Veno-Echo.cpp ****         {
 900:Veno-Echo.cpp ****             delayTimeL = PotCVCombo(delayTimeL_Pot,delayTimeL_CV);  //combine pot value and CV
 901:Veno-Echo.cpp ****             delayTimeL_Last = delayTimeL_Pot; //update last value
 902:Veno-Echo.cpp ****         }
 903:Veno-Echo.cpp **** 
 904:Veno-Echo.cpp ****         else
 905:Veno-Echo.cpp ****         {
 906:Veno-Echo.cpp ****             delayTimeL = PotCVCombo(delayTimeL_Last,delayTimeL_CV); //combine last pot value and CV
ARM GAS  /var/folders/0d/2ntwfkp1791d52chq7d_xwdm0000gn/T//cc0vrvH1.s 			page 55


 1165              		.loc 21 906 13 view .LVU240
 1166              	.LBB1002:
 1167              	.LBI1002:
 907:Veno-Echo.cpp ****         }
 908:Veno-Echo.cpp **** 
 909:Veno-Echo.cpp ****         if(counterL == 0)
 910:Veno-Echo.cpp ****         {
 911:Veno-Echo.cpp ****             if(delayL.SetDelayTime(delayTimeL,syncMode))
 912:Veno-Echo.cpp ****             {
 913:Veno-Echo.cpp ****             };
 914:Veno-Echo.cpp ****         }
 915:Veno-Echo.cpp **** 
 916:Veno-Echo.cpp ****     }   //not shift mode
 917:Veno-Echo.cpp **** 
 918:Veno-Echo.cpp ****     else    //shift mode
 919:Veno-Echo.cpp ****     {
 920:Veno-Echo.cpp ****         static float Rev_DelayTime_new{};
 921:Veno-Echo.cpp **** 
 922:Veno-Echo.cpp ****         if (shift != lastShift) //recent shift change
 923:Veno-Echo.cpp ****         {
 924:Veno-Echo.cpp ****             lastShift = shift;
 925:Veno-Echo.cpp ****             Rev_DelayTime_pickup = false;   //set not picked up
 926:Veno-Echo.cpp ****             Rev_DelayTime_new = delayTimeL_Pot; //update new value
 927:Veno-Echo.cpp ****         }
 928:Veno-Echo.cpp **** 
 929:Veno-Echo.cpp ****         else    //not a recent shift change
 930:Veno-Echo.cpp ****         {
 931:Veno-Echo.cpp ****             if(!Rev_DelayTime_pickup) //not picked up
 932:Veno-Echo.cpp ****             {
 933:Veno-Echo.cpp ****                 if(abs(delayTimeL_Pot - Rev_DelayTime_new) > pickupTolerance)
 934:Veno-Echo.cpp ****                 {
 935:Veno-Echo.cpp ****                     Rev_DelayTime_pickup = true;   //set picked up
 936:Veno-Echo.cpp ****                 }
 937:Veno-Echo.cpp ****             }
 938:Veno-Echo.cpp ****         }
 939:Veno-Echo.cpp **** 
 940:Veno-Echo.cpp ****         if(Rev_DelayTime_pickup)
 941:Veno-Echo.cpp ****         {
 942:Veno-Echo.cpp ****             float Rev_DelayTime{scale(delayTimeL_Pot,maxRevDelay,minRevDelay,EXPONENTIAL)};
 943:Veno-Echo.cpp ****             delaysL_REV.SetDelayTime(Rev_DelayTime);
 944:Veno-Echo.cpp ****             delaysR_REV.SetDelayTime(Rev_DelayTime); 
 945:Veno-Echo.cpp ****             //save setting:
 946:Veno-Echo.cpp ****             AltControls.RevLength = Rev_DelayTime;
 947:Veno-Echo.cpp ****             save_flag = true;
 948:Veno-Echo.cpp ****         }
 949:Veno-Echo.cpp ****     }
 950:Veno-Echo.cpp ****     
 951:Veno-Echo.cpp **** }
 952:Veno-Echo.cpp **** 
 953:Veno-Echo.cpp **** void Update_DelayTimeR_CV()
 954:Veno-Echo.cpp **** {
 955:Veno-Echo.cpp ****     delayTimeR_CV = hw.adc.GetFloat(1);
 956:Veno-Echo.cpp **** }
 957:Veno-Echo.cpp **** 
 958:Veno-Echo.cpp **** void Update_DelayTimeR()
 959:Veno-Echo.cpp **** {
 960:Veno-Echo.cpp ****     static bool lastShift{};
ARM GAS  /var/folders/0d/2ntwfkp1791d52chq7d_xwdm0000gn/T//cc0vrvH1.s 			page 56


 961:Veno-Echo.cpp ****     static bool delayTimeR_pickup{};
 962:Veno-Echo.cpp ****     static bool tapRatio_pickup{};
 963:Veno-Echo.cpp ****     
 964:Veno-Echo.cpp ****     static float delayTimeR_Last{};
 965:Veno-Echo.cpp **** 
 966:Veno-Echo.cpp ****     //update pot values
 967:Veno-Echo.cpp ****     float delayTimeR_Pot{hw.adc.GetMuxFloat(7,6)};
 968:Veno-Echo.cpp **** 
 969:Veno-Echo.cpp ****     //counter used to limit how quickly delay time is changed, 
 970:Veno-Echo.cpp ****     //and to ensure L and R delay times don't change at the same time.
 971:Veno-Echo.cpp ****     static int counterR{};
 972:Veno-Echo.cpp ****     counterR = (counterR + 1) % (32 * 6);
 973:Veno-Echo.cpp **** 
 974:Veno-Echo.cpp ****     if (!shift) //default control
 975:Veno-Echo.cpp ****     {
 976:Veno-Echo.cpp ****         static float delayTimeR_new{};
 977:Veno-Echo.cpp ****         //udpate pickup
 978:Veno-Echo.cpp ****         if (shift != lastShift) //recent shift change
 979:Veno-Echo.cpp ****         {
 980:Veno-Echo.cpp ****             lastShift = shift;
 981:Veno-Echo.cpp ****             delayTimeR_pickup = false;   //set to not picked up
 982:Veno-Echo.cpp ****             delayTimeR_new = delayTimeR_Pot;   //update new value
 983:Veno-Echo.cpp ****         } 
 984:Veno-Echo.cpp ****         else    //not a default shift change
 985:Veno-Echo.cpp ****         {
 986:Veno-Echo.cpp ****             if(!delayTimeR_pickup)  //not picked up
 987:Veno-Echo.cpp ****             {
 988:Veno-Echo.cpp ****                 if(abs(delayTimeR_Pot - delayTimeR_new) > pickupTolerance)  //checked if changed fr
 989:Veno-Echo.cpp ****                 {
 990:Veno-Echo.cpp ****                     delayTimeR_pickup = true;   //set to picked up
 991:Veno-Echo.cpp ****                 }
 992:Veno-Echo.cpp ****             }
 993:Veno-Echo.cpp ****         }
 994:Veno-Echo.cpp **** 
 995:Veno-Echo.cpp ****         float delayTimeR{};
 996:Veno-Echo.cpp **** 
 997:Veno-Echo.cpp ****         if(delayTimeR_pickup)
 998:Veno-Echo.cpp ****         {
 999:Veno-Echo.cpp ****             delayTimeR = PotCVCombo(delayTimeR_Pot,delayTimeR_CV);
1000:Veno-Echo.cpp ****             delayTimeR_Last = delayTimeR_Pot;
1001:Veno-Echo.cpp ****         }
1002:Veno-Echo.cpp **** 
1003:Veno-Echo.cpp ****         else
1004:Veno-Echo.cpp ****         {
1005:Veno-Echo.cpp ****             delayTimeR = PotCVCombo(delayTimeR_Last,delayTimeR_CV);
1006:Veno-Echo.cpp ****         }
1007:Veno-Echo.cpp **** 
1008:Veno-Echo.cpp ****         if(counterR == 0)
1009:Veno-Echo.cpp ****         {
1010:Veno-Echo.cpp ****             if(delayR.SetDelayTime(delayTimeR,syncMode))
1011:Veno-Echo.cpp ****             {
1012:Veno-Echo.cpp ****             };
1013:Veno-Echo.cpp **** 
1014:Veno-Echo.cpp ****         }
1015:Veno-Echo.cpp ****     }   //not shift mode
1016:Veno-Echo.cpp **** 
1017:Veno-Echo.cpp ****     else    //shift mode
ARM GAS  /var/folders/0d/2ntwfkp1791d52chq7d_xwdm0000gn/T//cc0vrvH1.s 			page 57


1018:Veno-Echo.cpp ****     {
1019:Veno-Echo.cpp **** 
1020:Veno-Echo.cpp ****         static float tapRatio_new{};
1021:Veno-Echo.cpp **** 
1022:Veno-Echo.cpp ****         if (shift != lastShift) //recent shift change
1023:Veno-Echo.cpp ****         {
1024:Veno-Echo.cpp ****             lastShift = shift;
1025:Veno-Echo.cpp ****             tapRatio_pickup = false; //set not picked up
1026:Veno-Echo.cpp ****             tapRatio_new = delayTimeR_Pot;  //update new value
1027:Veno-Echo.cpp ****         }
1028:Veno-Echo.cpp **** 
1029:Veno-Echo.cpp ****         else    //not a recent shift change
1030:Veno-Echo.cpp ****         {
1031:Veno-Echo.cpp ****             if(!tapRatio_pickup) //not picked up
1032:Veno-Echo.cpp ****             {
1033:Veno-Echo.cpp ****                 if(abs(delayTimeR_Pot - tapRatio_new) > pickupTolerance)
1034:Veno-Echo.cpp ****                 {
1035:Veno-Echo.cpp ****                     tapRatio_pickup = true;   //set picked up
1036:Veno-Echo.cpp ****                 }
1037:Veno-Echo.cpp ****             }
1038:Veno-Echo.cpp ****         }
1039:Veno-Echo.cpp **** 
1040:Veno-Echo.cpp ****         if(tapRatio_pickup)
1041:Veno-Echo.cpp ****         {
1042:Veno-Echo.cpp ****             float tapRatioInput{delayTimeR_Pot};
1043:Veno-Echo.cpp ****             TapRatios tapRatio{static_cast<TapRatios> (round(scale(tapRatioInput,static_cast<float>
1044:Veno-Echo.cpp ****             BaseTempo.setTapRatio(GetTapRatio(tapRatio));
1045:Veno-Echo.cpp ****             //save setting:
1046:Veno-Echo.cpp ****             AltControls.tapRatio = GetTapRatio(tapRatio);
1047:Veno-Echo.cpp ****             save_flag = true;
1048:Veno-Echo.cpp ****         }
1049:Veno-Echo.cpp ****     }
1050:Veno-Echo.cpp ****     
1051:Veno-Echo.cpp **** }
1052:Veno-Echo.cpp **** void Update_feedbackL_CV()
1053:Veno-Echo.cpp **** {
1054:Veno-Echo.cpp ****     feedbackL_CV = hw.adc.GetFloat(2);
1055:Veno-Echo.cpp **** }
1056:Veno-Echo.cpp **** void Update_feedbackL()
1057:Veno-Echo.cpp **** {
1058:Veno-Echo.cpp ****     static bool lastShift{};
1059:Veno-Echo.cpp ****     static bool feedbackL_pickup{};
1060:Veno-Echo.cpp ****     static bool HPCutoff_pickup{};
1061:Veno-Echo.cpp **** 
1062:Veno-Echo.cpp ****     static float feedbackL_Last{};
1063:Veno-Echo.cpp **** 
1064:Veno-Echo.cpp ****     //get pot values:
1065:Veno-Echo.cpp ****     //float feedbackL_Pot{hw.adc.GetFloat(2)};
1066:Veno-Echo.cpp ****     float feedbackL_Pot{hw.adc.GetMuxFloat(7,1)};
1067:Veno-Echo.cpp **** 
1068:Veno-Echo.cpp ****     if (!shift) //default controls
1069:Veno-Echo.cpp ****     {   
1070:Veno-Echo.cpp ****         static float feedbackL_new{};
1071:Veno-Echo.cpp ****         //update pickup
1072:Veno-Echo.cpp ****         if (shift != lastShift) //recent shift change
1073:Veno-Echo.cpp ****         {
1074:Veno-Echo.cpp ****             lastShift = shift;
ARM GAS  /var/folders/0d/2ntwfkp1791d52chq7d_xwdm0000gn/T//cc0vrvH1.s 			page 58


1075:Veno-Echo.cpp ****             feedbackL_pickup = false; //set to not picked up
1076:Veno-Echo.cpp ****             feedbackL_new = feedbackL_Pot; //update new value
1077:Veno-Echo.cpp ****         } 
1078:Veno-Echo.cpp ****         else    //not a default shift change
1079:Veno-Echo.cpp ****         {
1080:Veno-Echo.cpp ****             if(!feedbackL_pickup)  //not picked up
1081:Veno-Echo.cpp ****             {
1082:Veno-Echo.cpp ****                 if(abs(feedbackL_Pot - feedbackL_new) > pickupTolerance)  //checked if changed from
1083:Veno-Echo.cpp ****                 {
1084:Veno-Echo.cpp ****                     feedbackL_pickup = true;   //set to picked up
1085:Veno-Echo.cpp ****                 }
1086:Veno-Echo.cpp ****             }
1087:Veno-Echo.cpp ****         }
1088:Veno-Echo.cpp **** 
1089:Veno-Echo.cpp ****         float feedbackL_combo{};
1090:Veno-Echo.cpp **** 
1091:Veno-Echo.cpp ****         if(feedbackL_pickup)
1092:Veno-Echo.cpp ****         {
1093:Veno-Echo.cpp ****             feedbackL_combo = PotCVCombo(feedbackL_Pot,feedbackL_CV);
1094:Veno-Echo.cpp ****             feedbackL_Last = feedbackL_Pot; //update last value
1095:Veno-Echo.cpp ****         }
1096:Veno-Echo.cpp **** 
1097:Veno-Echo.cpp ****         else
1098:Veno-Echo.cpp ****         {
1099:Veno-Echo.cpp ****             feedbackL_combo = PotCVCombo(feedbackL_Last,feedbackL_CV);
1100:Veno-Echo.cpp ****         }
1101:Veno-Echo.cpp ****   
1102:Veno-Echo.cpp ****         float feedbackL_Target{scale(feedbackL_combo,0.0,maxFB,LINEAR)};  
1103:Veno-Echo.cpp ****         fonepole(feedbackL,feedbackL_Target,0.032f);
1104:Veno-Echo.cpp ****     }
1105:Veno-Echo.cpp ****     else    //alternate controls
1106:Veno-Echo.cpp ****     {
1107:Veno-Echo.cpp ****         static float HPCutoff_new{};
1108:Veno-Echo.cpp **** 
1109:Veno-Echo.cpp ****         if (shift != lastShift) //recent shift change
1110:Veno-Echo.cpp ****         {
1111:Veno-Echo.cpp ****             lastShift = shift;
1112:Veno-Echo.cpp ****             HPCutoff_pickup = false;    //set to not picked up
1113:Veno-Echo.cpp ****             HPCutoff_new = feedbackL_Pot;   //update new
1114:Veno-Echo.cpp ****         }
1115:Veno-Echo.cpp **** 
1116:Veno-Echo.cpp ****         else    //not a recent shift change
1117:Veno-Echo.cpp ****         {
1118:Veno-Echo.cpp ****             if(!HPCutoff_pickup) //not picked up
1119:Veno-Echo.cpp ****             {
1120:Veno-Echo.cpp ****                 if(abs(feedbackL_Pot - HPCutoff_new) > pickupTolerance)
1121:Veno-Echo.cpp ****                 {
1122:Veno-Echo.cpp ****                     HPCutoff_pickup = true;   //set picked up
1123:Veno-Echo.cpp ****                 }
1124:Veno-Echo.cpp ****             }
1125:Veno-Echo.cpp ****         }
1126:Veno-Echo.cpp **** 
1127:Veno-Echo.cpp ****         if(HPCutoff_pickup)
1128:Veno-Echo.cpp ****         {
1129:Veno-Echo.cpp ****             float HPCutoff{};
1130:Veno-Echo.cpp ****             HPCutoff = scale(feedbackL_Pot,minHPCut,maxHPCut,EXPONENTIAL);
1131:Veno-Echo.cpp ****             HPF_L.SetFreq(HPCutoff);
ARM GAS  /var/folders/0d/2ntwfkp1791d52chq7d_xwdm0000gn/T//cc0vrvH1.s 			page 59


1132:Veno-Echo.cpp ****             HPF_R.SetFreq(HPCutoff);
1133:Veno-Echo.cpp ****             HPF_L_post.SetFreq(HPCutoff);
1134:Veno-Echo.cpp ****             HPF_R_post.SetFreq(HPCutoff);
1135:Veno-Echo.cpp ****             AltControls.HP_Cutoff = HPCutoff;
1136:Veno-Echo.cpp ****             save_flag = true;
1137:Veno-Echo.cpp ****         }
1138:Veno-Echo.cpp ****     }
1139:Veno-Echo.cpp **** }
1140:Veno-Echo.cpp **** 
1141:Veno-Echo.cpp **** void Update_feedbackR_CV()
1142:Veno-Echo.cpp **** {
1143:Veno-Echo.cpp ****     feedbackR_CV = hw.adc.GetFloat(3);
1144:Veno-Echo.cpp **** }
1145:Veno-Echo.cpp **** 
1146:Veno-Echo.cpp **** void Update_feedbackR()
1147:Veno-Echo.cpp **** {
1148:Veno-Echo.cpp ****     static bool lastShift{};
1149:Veno-Echo.cpp ****     static bool feedbackR_pickup{};
1150:Veno-Echo.cpp ****     static bool LPCutoff_pickup{};
1151:Veno-Echo.cpp **** 
1152:Veno-Echo.cpp ****     static float feedbackR_Last{};
1153:Veno-Echo.cpp **** 
1154:Veno-Echo.cpp ****     //get pot values:
1155:Veno-Echo.cpp ****     float feedbackR_Pot{hw.adc.GetMuxFloat(7,4)};
1156:Veno-Echo.cpp **** 
1157:Veno-Echo.cpp ****     if (!shift) //default controls
1158:Veno-Echo.cpp ****     {   
1159:Veno-Echo.cpp ****         static float feedbackR_new{};
1160:Veno-Echo.cpp ****         //update pickup
1161:Veno-Echo.cpp ****         if (shift != lastShift) //recent shift change
1162:Veno-Echo.cpp ****         {
1163:Veno-Echo.cpp ****             lastShift = shift;
1164:Veno-Echo.cpp ****             feedbackR_pickup = false;   //set to not picked up
1165:Veno-Echo.cpp ****             feedbackR_new = feedbackR_Pot;  //update new value
1166:Veno-Echo.cpp ****         } 
1167:Veno-Echo.cpp ****         else    //not a recent shift change
1168:Veno-Echo.cpp ****         {
1169:Veno-Echo.cpp ****             if(!feedbackR_pickup)  //not picked up
1170:Veno-Echo.cpp ****             {
1171:Veno-Echo.cpp ****                 if(abs(feedbackR_Pot - feedbackR_new) > pickupTolerance)  //checked if changed from
1172:Veno-Echo.cpp ****                 {
1173:Veno-Echo.cpp ****                     feedbackR_pickup = true;   //set to picked up
1174:Veno-Echo.cpp ****                 }
1175:Veno-Echo.cpp ****             }
1176:Veno-Echo.cpp ****         }
1177:Veno-Echo.cpp **** 
1178:Veno-Echo.cpp ****         float feedbackR_combo{};
1179:Veno-Echo.cpp ****         
1180:Veno-Echo.cpp ****         if(feedbackR_pickup)
1181:Veno-Echo.cpp ****         {
1182:Veno-Echo.cpp ****             feedbackR_combo = PotCVCombo(feedbackR_Pot,feedbackR_CV);
1183:Veno-Echo.cpp ****             feedbackR_Last = feedbackR_Pot;  //update last value
1184:Veno-Echo.cpp ****         }
1185:Veno-Echo.cpp **** 
1186:Veno-Echo.cpp ****         else
1187:Veno-Echo.cpp ****         {
1188:Veno-Echo.cpp ****             feedbackR_combo = PotCVCombo(feedbackR_Last,feedbackR_CV);
ARM GAS  /var/folders/0d/2ntwfkp1791d52chq7d_xwdm0000gn/T//cc0vrvH1.s 			page 60


1189:Veno-Echo.cpp ****         }
1190:Veno-Echo.cpp **** 
1191:Veno-Echo.cpp ****         float feedbackR_Target{scale(feedbackR_combo,0.0,maxFB,LINEAR)};
1192:Veno-Echo.cpp ****         fonepole(feedbackR,feedbackR_Target,0.032f);
1193:Veno-Echo.cpp ****     }
1194:Veno-Echo.cpp ****     else    //alternate controls
1195:Veno-Echo.cpp ****     {
1196:Veno-Echo.cpp **** 
1197:Veno-Echo.cpp ****         static float LPCutoff_new{};
1198:Veno-Echo.cpp **** 
1199:Veno-Echo.cpp ****          if (shift != lastShift) //recent shift change
1200:Veno-Echo.cpp ****         {
1201:Veno-Echo.cpp ****             lastShift = shift;
1202:Veno-Echo.cpp ****             LPCutoff_pickup = false;    //set to not picked up
1203:Veno-Echo.cpp ****             LPCutoff_new = feedbackR_Pot;   //update new
1204:Veno-Echo.cpp ****         }
1205:Veno-Echo.cpp **** 
1206:Veno-Echo.cpp ****         else    //not a recent shift change
1207:Veno-Echo.cpp ****         {
1208:Veno-Echo.cpp ****             if(!LPCutoff_pickup) //not picked up
1209:Veno-Echo.cpp ****             {
1210:Veno-Echo.cpp ****                 if(abs(feedbackR_Pot - LPCutoff_new) > pickupTolerance)
1211:Veno-Echo.cpp ****                 {
1212:Veno-Echo.cpp ****                     LPCutoff_pickup = true;   //set picked up
1213:Veno-Echo.cpp ****                 }
1214:Veno-Echo.cpp ****             }
1215:Veno-Echo.cpp ****         }
1216:Veno-Echo.cpp **** 
1217:Veno-Echo.cpp ****         if(LPCutoff_pickup)
1218:Veno-Echo.cpp ****         {
1219:Veno-Echo.cpp ****             float LPCutoff{};
1220:Veno-Echo.cpp ****             LPCutoff = scale(feedbackR_Pot,minLPCut,maxLPCut,EXPONENTIAL);
1221:Veno-Echo.cpp ****             LPF_L.SetFreq(LPCutoff);
1222:Veno-Echo.cpp ****             LPF_R.SetFreq(LPCutoff);
1223:Veno-Echo.cpp ****             LPF_L_post.SetFreq(LPCutoff);
1224:Veno-Echo.cpp ****             LPF_R_post.SetFreq(LPCutoff);
1225:Veno-Echo.cpp ****             AltControls.LP_Cutoff = LPCutoff;
1226:Veno-Echo.cpp ****             save_flag = true;
1227:Veno-Echo.cpp ****         }
1228:Veno-Echo.cpp ****     }
1229:Veno-Echo.cpp **** }
1230:Veno-Echo.cpp **** 
1231:Veno-Echo.cpp **** void Update_drywet_CV()
1232:Veno-Echo.cpp **** {
1233:Veno-Echo.cpp ****     drywet_CV = hw.adc.GetFloat(4);
1234:Veno-Echo.cpp **** }
1235:Veno-Echo.cpp **** 
1236:Veno-Echo.cpp **** void Update_drywet()
1237:Veno-Echo.cpp **** {
1238:Veno-Echo.cpp ****     static bool lastShift{};
1239:Veno-Echo.cpp ****     static bool drywet_pickup{};
1240:Veno-Echo.cpp ****     static bool Res_pickup{};
1241:Veno-Echo.cpp **** 
1242:Veno-Echo.cpp ****     static float drywet_Last{}; //last drywet position (unscaled)
1243:Veno-Echo.cpp ****     //static float Res_Last{}; //last res value (unscaled)
1244:Veno-Echo.cpp **** 
1245:Veno-Echo.cpp ****     //get pot values:
ARM GAS  /var/folders/0d/2ntwfkp1791d52chq7d_xwdm0000gn/T//cc0vrvH1.s 			page 61


1246:Veno-Echo.cpp ****     //float drywet_Pot{hw.adc.GetFloat(4)};
1247:Veno-Echo.cpp ****     float drywet_Pot{hw.adc.GetMuxFloat(7,5)}; //read current pot position
1248:Veno-Echo.cpp **** 
1249:Veno-Echo.cpp ****     if (!shift) //default controls
1250:Veno-Echo.cpp ****     {   
1251:Veno-Echo.cpp **** 
1252:Veno-Echo.cpp ****         static float drywet_new{};
1253:Veno-Echo.cpp **** 
1254:Veno-Echo.cpp ****         if (shift != lastShift) //recent shift change
1255:Veno-Echo.cpp ****         {
1256:Veno-Echo.cpp ****             lastShift = shift;
1257:Veno-Echo.cpp ****             //drywet_pickup = checkPickupState(drywet_Pot,drywet_Last,drywet_pickup,true);
1258:Veno-Echo.cpp ****             drywet_pickup = false;  //set to not picked up
1259:Veno-Echo.cpp ****             drywet_new = drywet_Pot; //update new value
1260:Veno-Echo.cpp ****         } 
1261:Veno-Echo.cpp ****         
1262:Veno-Echo.cpp ****         else    //not a recent shift change
1263:Veno-Echo.cpp ****         {
1264:Veno-Echo.cpp ****             if(!drywet_pickup)  //not pickup
1265:Veno-Echo.cpp ****             {
1266:Veno-Echo.cpp ****                 //drywet_pickup = checkPickupState(drywet_Pot,drywet_Last,drywet_pickup,false);
1267:Veno-Echo.cpp ****                 if(abs(drywet_Pot - drywet_new) > pickupTolerance)  //check if changed from new val
1268:Veno-Echo.cpp ****                 {
1269:Veno-Echo.cpp ****                     drywet_pickup = true;   //set to picked up
1270:Veno-Echo.cpp ****                 }
1271:Veno-Echo.cpp ****             }
1272:Veno-Echo.cpp **** 
1273:Veno-Echo.cpp ****         }
1274:Veno-Echo.cpp ****         
1275:Veno-Echo.cpp ****         float drywetcombo{};
1276:Veno-Echo.cpp **** 
1277:Veno-Echo.cpp ****         if (drywet_pickup)
1278:Veno-Echo.cpp ****         {
1279:Veno-Echo.cpp ****             drywetcombo = PotCVCombo(drywet_Pot,drywet_CV);    //combine pot and CV
1280:Veno-Echo.cpp ****             drywet_Last = drywet_Pot; //update last value
1281:Veno-Echo.cpp ****         }
1282:Veno-Echo.cpp **** 
1283:Veno-Echo.cpp ****         else
1284:Veno-Echo.cpp ****         {
1285:Veno-Echo.cpp ****             drywetcombo = PotCVCombo(drywet_Last,drywet_CV);    //combine last pot value and CV
1286:Veno-Echo.cpp ****         }
1287:Veno-Echo.cpp **** 
1288:Veno-Echo.cpp ****         float drywetTarget{};
1289:Veno-Echo.cpp **** 
1290:Veno-Echo.cpp ****         if(drywetcombo >= 0.98)
1291:Veno-Echo.cpp ****         {
1292:Veno-Echo.cpp ****             drywetTarget = 1.0f;
1293:Veno-Echo.cpp ****         }
1294:Veno-Echo.cpp ****         else if(drywetcombo <= 0.02)
1295:Veno-Echo.cpp ****         {
1296:Veno-Echo.cpp ****             drywetTarget = 0.0f;
1297:Veno-Echo.cpp ****         }
1298:Veno-Echo.cpp ****         else
1299:Veno-Echo.cpp ****         {
1300:Veno-Echo.cpp ****             drywetTarget = scale(drywetcombo,0.0,1.0,LINEAR); 
1301:Veno-Echo.cpp ****         }
1302:Veno-Echo.cpp **** 
ARM GAS  /var/folders/0d/2ntwfkp1791d52chq7d_xwdm0000gn/T//cc0vrvH1.s 			page 62


1303:Veno-Echo.cpp ****         //fonepole(drywet,drywetTarget,0.032f); 
1304:Veno-Echo.cpp ****         fonepole(drywet,drywetTarget,0.016f); 
1305:Veno-Echo.cpp ****     }
1306:Veno-Echo.cpp ****     else    //alternate controls
1307:Veno-Echo.cpp ****     {
1308:Veno-Echo.cpp ****         static float Res_new{};
1309:Veno-Echo.cpp **** 
1310:Veno-Echo.cpp ****         if (shift != lastShift) //recent shift change
1311:Veno-Echo.cpp ****         {
1312:Veno-Echo.cpp ****             lastShift = shift;
1313:Veno-Echo.cpp ****             Res_pickup = false; //set not picked up
1314:Veno-Echo.cpp ****             Res_new = drywet_Pot;   //update new
1315:Veno-Echo.cpp ****         }
1316:Veno-Echo.cpp **** 
1317:Veno-Echo.cpp ****         else    //not a recent shift change
1318:Veno-Echo.cpp ****         {
1319:Veno-Echo.cpp ****             if(!Res_pickup) //not picked up
1320:Veno-Echo.cpp ****             {
1321:Veno-Echo.cpp ****                 if(abs(drywet_Pot - Res_new) > pickupTolerance)
1322:Veno-Echo.cpp ****                 {
1323:Veno-Echo.cpp ****                     Res_pickup = true;  //set picked up
1324:Veno-Echo.cpp ****                 }
1325:Veno-Echo.cpp ****             }
1326:Veno-Echo.cpp ****         }
1327:Veno-Echo.cpp **** 
1328:Veno-Echo.cpp ****         if(Res_pickup)
1329:Veno-Echo.cpp ****         {
1330:Veno-Echo.cpp ****             float Res{};
1331:Veno-Echo.cpp ****             Res = scale(drywet_Pot,minRes,maxRes,LINEAR);
1332:Veno-Echo.cpp ****             LPF_L.SetRes(Res);
1333:Veno-Echo.cpp ****             LPF_R.SetRes(Res);
1334:Veno-Echo.cpp ****             HPF_L.SetRes(Res);
1335:Veno-Echo.cpp ****             HPF_R.SetRes(Res);
1336:Veno-Echo.cpp ****             LPF_L_post.SetRes(Res);
1337:Veno-Echo.cpp ****             LPF_R_post.SetRes(Res);
1338:Veno-Echo.cpp ****             HPF_L_post.SetRes(Res);
1339:Veno-Echo.cpp ****             HPF_R_post.SetRes(Res);
1340:Veno-Echo.cpp ****             AltControls.Resonance = Res;
1341:Veno-Echo.cpp ****             save_flag = true;
1342:Veno-Echo.cpp ****         }
1343:Veno-Echo.cpp ****     }
1344:Veno-Echo.cpp **** }
1345:Veno-Echo.cpp **** 
1346:Veno-Echo.cpp **** void Update_width_CV()
1347:Veno-Echo.cpp **** {
1348:Veno-Echo.cpp ****     width_CV= hw.adc.GetFloat(5);
1349:Veno-Echo.cpp **** }
1350:Veno-Echo.cpp **** 
1351:Veno-Echo.cpp **** void Update_width()
1352:Veno-Echo.cpp **** {
1353:Veno-Echo.cpp ****     static bool lastShift{};
1354:Veno-Echo.cpp ****     static bool width_pickup{};
1355:Veno-Echo.cpp ****     static bool ModDepth_pickup{};
1356:Veno-Echo.cpp **** 
1357:Veno-Echo.cpp ****     static float width_Last{};
1358:Veno-Echo.cpp **** 
1359:Veno-Echo.cpp ****     //get pot values:
ARM GAS  /var/folders/0d/2ntwfkp1791d52chq7d_xwdm0000gn/T//cc0vrvH1.s 			page 63


1360:Veno-Echo.cpp ****     float width_Pot{hw.adc.GetMuxFloat(7,7)};
1361:Veno-Echo.cpp **** 
1362:Veno-Echo.cpp ****     if (!shift) //default controls
1363:Veno-Echo.cpp ****     {   
1364:Veno-Echo.cpp ****         static float width_new{};
1365:Veno-Echo.cpp ****         //update pickup
1366:Veno-Echo.cpp ****         if (shift != lastShift)
1367:Veno-Echo.cpp ****         {
1368:Veno-Echo.cpp ****             lastShift = shift;
1369:Veno-Echo.cpp ****             width_pickup = false; //set to not picked up
1370:Veno-Echo.cpp ****             width_new = width_Pot;  //update new value    
1371:Veno-Echo.cpp ****         }
1372:Veno-Echo.cpp **** 
1373:Veno-Echo.cpp ****         else
1374:Veno-Echo.cpp ****         {
1375:Veno-Echo.cpp ****             if(!width_pickup)  //not picked up
1376:Veno-Echo.cpp ****             {
1377:Veno-Echo.cpp ****                 if(abs(width_Pot - width_new) > pickupTolerance)  //checked if changed from new val
1378:Veno-Echo.cpp ****                 {
1379:Veno-Echo.cpp ****                     width_pickup = true;   //set to picked up
1380:Veno-Echo.cpp ****                 }
1381:Veno-Echo.cpp ****             }
1382:Veno-Echo.cpp **** 
1383:Veno-Echo.cpp ****         }
1384:Veno-Echo.cpp **** 
1385:Veno-Echo.cpp ****         float widthTarget{};
1386:Veno-Echo.cpp **** 
1387:Veno-Echo.cpp ****         if(width_pickup)
1388:Veno-Echo.cpp ****         {
1389:Veno-Echo.cpp ****             widthTarget = scale(PotCVCombo(width_Pot,width_CV),0.5f,0.0f,LINEAR);
1390:Veno-Echo.cpp ****             width_Last = width_Pot; //update last value
1391:Veno-Echo.cpp ****         }
1392:Veno-Echo.cpp **** 
1393:Veno-Echo.cpp ****         else
1394:Veno-Echo.cpp ****         {        
1395:Veno-Echo.cpp ****             widthTarget = scale(PotCVCombo(width_Last,width_CV),0.5f,0.0f,LINEAR);
1396:Veno-Echo.cpp ****         }
1397:Veno-Echo.cpp ****             
1398:Veno-Echo.cpp ****             fonepole(width,widthTarget,0.032f);
1399:Veno-Echo.cpp ****             WidthXfade.SetPos(width);
1400:Veno-Echo.cpp ****     }
1401:Veno-Echo.cpp **** 
1402:Veno-Echo.cpp ****     else    //alternate controls
1403:Veno-Echo.cpp ****     {
1404:Veno-Echo.cpp ****         static float ModDepth_new{};
1405:Veno-Echo.cpp **** 
1406:Veno-Echo.cpp ****         if (shift != lastShift) //recent shift change
1407:Veno-Echo.cpp ****         {
1408:Veno-Echo.cpp ****             lastShift = shift;
1409:Veno-Echo.cpp ****             ModDepth_pickup = false;    //set not picked up
1410:Veno-Echo.cpp ****             ModDepth_new = width_Pot;   //update new value
1411:Veno-Echo.cpp ****         }
1412:Veno-Echo.cpp **** 
1413:Veno-Echo.cpp ****         else    //not a recent shift change
1414:Veno-Echo.cpp ****         {
1415:Veno-Echo.cpp ****             if(!ModDepth_pickup) //not picked up
1416:Veno-Echo.cpp ****             {
ARM GAS  /var/folders/0d/2ntwfkp1791d52chq7d_xwdm0000gn/T//cc0vrvH1.s 			page 64


1417:Veno-Echo.cpp ****                 if(abs(width_Pot - ModDepth_new) > pickupTolerance)
1418:Veno-Echo.cpp ****                 {
1419:Veno-Echo.cpp ****                     ModDepth_pickup = true;   //set picked up
1420:Veno-Echo.cpp ****                 }
1421:Veno-Echo.cpp ****             }
1422:Veno-Echo.cpp ****         }
1423:Veno-Echo.cpp **** 
1424:Veno-Echo.cpp ****         if(ModDepth_pickup)
1425:Veno-Echo.cpp ****         {
1426:Veno-Echo.cpp ****             ModDepth = scale(width_Pot,minModDepth,maxModDepth,LINEAR); 
1427:Veno-Echo.cpp ****             AltControls.ModDepth = ModDepth;
1428:Veno-Echo.cpp ****             save_flag = true;
1429:Veno-Echo.cpp ****         }
1430:Veno-Echo.cpp ****     }
1431:Veno-Echo.cpp **** }
1432:Veno-Echo.cpp **** 
1433:Veno-Echo.cpp **** void Update_crossfeedback()
1434:Veno-Echo.cpp **** {
1435:Veno-Echo.cpp ****     static bool lastShift{};
1436:Veno-Echo.cpp ****     static bool crossfeedback_pickup{};
1437:Veno-Echo.cpp ****     static bool modRate_pickup{};
1438:Veno-Echo.cpp **** 
1439:Veno-Echo.cpp ****     static float crossfeedback_Last{};
1440:Veno-Echo.cpp **** 
1441:Veno-Echo.cpp ****     //get pot values:
1442:Veno-Echo.cpp ****     float crossfeedback_Pot{hw.adc.GetMuxFloat(7,0)};
1443:Veno-Echo.cpp **** 
1444:Veno-Echo.cpp ****     if (!shift) //default controls
1445:Veno-Echo.cpp ****     {   
1446:Veno-Echo.cpp ****         static float crossfeedback_new{};
1447:Veno-Echo.cpp ****         //update pickup
1448:Veno-Echo.cpp ****         if (shift != lastShift)
1449:Veno-Echo.cpp ****         {
1450:Veno-Echo.cpp ****             lastShift = shift;
1451:Veno-Echo.cpp ****             crossfeedback_pickup = false; //set to not picked up
1452:Veno-Echo.cpp ****             crossfeedback_new = crossfeedback_Pot;  //update new value
1453:Veno-Echo.cpp ****         }
1454:Veno-Echo.cpp **** 
1455:Veno-Echo.cpp ****         else
1456:Veno-Echo.cpp ****         {
1457:Veno-Echo.cpp ****             if(!crossfeedback_pickup)  //not picked up
1458:Veno-Echo.cpp ****             {
1459:Veno-Echo.cpp ****                 if(abs(crossfeedback_Pot - crossfeedback_new) > pickupTolerance)  //checked if chan
1460:Veno-Echo.cpp ****                 {
1461:Veno-Echo.cpp ****                     crossfeedback_pickup = true;   //set to picked up
1462:Veno-Echo.cpp ****                 }
1463:Veno-Echo.cpp ****             }
1464:Veno-Echo.cpp ****         }
1465:Veno-Echo.cpp ****         float crossfeedbackTarget{};
1466:Veno-Echo.cpp **** 
1467:Veno-Echo.cpp ****         if(crossfeedback_pickup)
1468:Veno-Echo.cpp ****         {
1469:Veno-Echo.cpp ****             crossfeedbackTarget = scale(crossfeedback_Pot,0.0,1.0,LINEAR);
1470:Veno-Echo.cpp ****             crossfeedback_Last = crossfeedback_Pot; //update last
1471:Veno-Echo.cpp ****         }
1472:Veno-Echo.cpp **** 
1473:Veno-Echo.cpp ****         else
ARM GAS  /var/folders/0d/2ntwfkp1791d52chq7d_xwdm0000gn/T//cc0vrvH1.s 			page 65


1474:Veno-Echo.cpp ****         {
1475:Veno-Echo.cpp ****             crossfeedbackTarget = scale(crossfeedback_Last,0.0,1.0,LINEAR);
1476:Veno-Echo.cpp ****         }
1477:Veno-Echo.cpp **** 
1478:Veno-Echo.cpp ****         fonepole(crossfeedback,crossfeedbackTarget,0.032f);
1479:Veno-Echo.cpp ****     }
1480:Veno-Echo.cpp ****     else    //alternate controls
1481:Veno-Echo.cpp ****     {
1482:Veno-Echo.cpp ****         static float modRate_new{};
1483:Veno-Echo.cpp **** 
1484:Veno-Echo.cpp ****         if (shift != lastShift)
1485:Veno-Echo.cpp ****         {
1486:Veno-Echo.cpp ****             lastShift = shift;
1487:Veno-Echo.cpp ****             modRate_pickup = false; //set not picked up
1488:Veno-Echo.cpp ****             modRate_new = crossfeedback_Pot;
1489:Veno-Echo.cpp ****         }
1490:Veno-Echo.cpp **** 
1491:Veno-Echo.cpp ****         else
1492:Veno-Echo.cpp ****         {
1493:Veno-Echo.cpp ****             if(!modRate_pickup)
1494:Veno-Echo.cpp ****             {
1495:Veno-Echo.cpp ****                 if(abs(crossfeedback_Pot - modRate_new) > pickupTolerance)
1496:Veno-Echo.cpp ****                 {
1497:Veno-Echo.cpp ****                     modRate_pickup = true; //set picked up
1498:Veno-Echo.cpp ****                 }
1499:Veno-Echo.cpp ****             }
1500:Veno-Echo.cpp ****         }
1501:Veno-Echo.cpp **** 
1502:Veno-Echo.cpp ****         if(modRate_pickup)
1503:Veno-Echo.cpp ****         {
1504:Veno-Echo.cpp ****             float modRate{scale(crossfeedback_Pot,minModRate,maxModRate,LINEAR)};
1505:Veno-Echo.cpp ****             lfo.SetFreq(modRate);
1506:Veno-Echo.cpp ****             AltControls.ModFreq = modRate;
1507:Veno-Echo.cpp ****             save_flag = true;
1508:Veno-Echo.cpp ****         }
1509:Veno-Echo.cpp ****     }
1510:Veno-Echo.cpp **** }
1511:Veno-Echo.cpp **** 
1512:Veno-Echo.cpp **** void Update_filterXfade()
1513:Veno-Echo.cpp **** {
1514:Veno-Echo.cpp ****     static bool lastShift{};
1515:Veno-Echo.cpp ****     static bool filterXfade_pickup{};
1516:Veno-Echo.cpp ****     static bool PostFilters_pickup{};
1517:Veno-Echo.cpp **** 
1518:Veno-Echo.cpp ****     static float filterXfade_last{};
1519:Veno-Echo.cpp **** 
1520:Veno-Echo.cpp ****     //get pot values:
1521:Veno-Echo.cpp ****     float filterXfade_Pot{hw.adc.GetMuxFloat(7,3)};
1522:Veno-Echo.cpp **** 
1523:Veno-Echo.cpp ****     if (!shift) //default controls
1524:Veno-Echo.cpp ****     {   
1525:Veno-Echo.cpp ****         static float filterXfade_new{};
1526:Veno-Echo.cpp ****         //update pickup
1527:Veno-Echo.cpp ****         if (shift != lastShift)
1528:Veno-Echo.cpp ****         {
1529:Veno-Echo.cpp ****             lastShift = shift;
1530:Veno-Echo.cpp ****             filterXfade_pickup = false; //set to not picked up
ARM GAS  /var/folders/0d/2ntwfkp1791d52chq7d_xwdm0000gn/T//cc0vrvH1.s 			page 66


1531:Veno-Echo.cpp ****             filterXfade_new = filterXfade_Pot;  //update new
1532:Veno-Echo.cpp ****         }
1533:Veno-Echo.cpp **** 
1534:Veno-Echo.cpp ****         else
1535:Veno-Echo.cpp ****         {
1536:Veno-Echo.cpp ****             if(!filterXfade_pickup)  //not picked up
1537:Veno-Echo.cpp ****             {
1538:Veno-Echo.cpp ****                 if(abs(filterXfade_Pot - filterXfade_new) > pickupTolerance)  //checked if changed 
1539:Veno-Echo.cpp ****                 {
1540:Veno-Echo.cpp ****                     filterXfade_pickup = true;   //set to picked up
1541:Veno-Echo.cpp ****                 }
1542:Veno-Echo.cpp ****             }
1543:Veno-Echo.cpp ****         }
1544:Veno-Echo.cpp **** 
1545:Veno-Echo.cpp ****         float filterXfadeTarget{};
1546:Veno-Echo.cpp **** 
1547:Veno-Echo.cpp ****         if(filterXfade_pickup)
1548:Veno-Echo.cpp ****         {
1549:Veno-Echo.cpp ****             filterXfadeTarget = scale(filterXfade_Pot,0.0,1.0,EXPONENTIAL);
1550:Veno-Echo.cpp ****             filterXfade_last = filterXfade_Pot; //update last value
1551:Veno-Echo.cpp ****         }
1552:Veno-Echo.cpp **** 
1553:Veno-Echo.cpp ****         else
1554:Veno-Echo.cpp ****         {
1555:Veno-Echo.cpp ****             filterXfadeTarget = scale(filterXfade_last,0.0,1.0,EXPONENTIAL);
1556:Veno-Echo.cpp ****         }
1557:Veno-Echo.cpp **** 
1558:Veno-Echo.cpp ****         fonepole(filterXfade,filterXfadeTarget,0.032f);
1559:Veno-Echo.cpp ****     }
1560:Veno-Echo.cpp ****     else    //alternate controls
1561:Veno-Echo.cpp ****     {
1562:Veno-Echo.cpp **** 
1563:Veno-Echo.cpp ****         static float PostFilters_new{};
1564:Veno-Echo.cpp **** 
1565:Veno-Echo.cpp ****         if (shift != lastShift) //recent shift change
1566:Veno-Echo.cpp ****         {
1567:Veno-Echo.cpp ****             lastShift = shift;
1568:Veno-Echo.cpp ****             PostFilters_pickup = false; //set not picked up
1569:Veno-Echo.cpp ****             PostFilters_new = filterXfade_Pot;
1570:Veno-Echo.cpp ****         }
1571:Veno-Echo.cpp **** 
1572:Veno-Echo.cpp ****         else    //not a recent shift change
1573:Veno-Echo.cpp ****         {
1574:Veno-Echo.cpp ****             if(!PostFilters_pickup) //not picked up
1575:Veno-Echo.cpp ****             {
1576:Veno-Echo.cpp ****                 if(abs(filterXfade_Pot - PostFilters_new) > pickupTolerance)
1577:Veno-Echo.cpp ****                 {
1578:Veno-Echo.cpp ****                     PostFilters_pickup = true;   //set picked up
1579:Veno-Echo.cpp ****                 }
1580:Veno-Echo.cpp ****             }
1581:Veno-Echo.cpp ****         }
1582:Veno-Echo.cpp ****         
1583:Veno-Echo.cpp ****         if(PostFilters_pickup)
1584:Veno-Echo.cpp ****         {
1585:Veno-Echo.cpp ****             if(filterXfade_Pot < 0.45f)
1586:Veno-Echo.cpp ****             {
1587:Veno-Echo.cpp ****                 PostFilters = false;
ARM GAS  /var/folders/0d/2ntwfkp1791d52chq7d_xwdm0000gn/T//cc0vrvH1.s 			page 67


1588:Veno-Echo.cpp ****             }
1589:Veno-Echo.cpp ****             else if(filterXfade_Pot > 0.55f)
1590:Veno-Echo.cpp ****             {
1591:Veno-Echo.cpp ****                 PostFilters = true;
1592:Veno-Echo.cpp ****             }
1593:Veno-Echo.cpp ****             else
1594:Veno-Echo.cpp ****             {
1595:Veno-Echo.cpp ****               //do nothing
1596:Veno-Echo.cpp ****             }
1597:Veno-Echo.cpp ****             AltControls.FilterPrePost = filterXfade_Pot;
1598:Veno-Echo.cpp ****             save_flag = true;
1599:Veno-Echo.cpp ****         }  
1600:Veno-Echo.cpp ****     }
1601:Veno-Echo.cpp **** }
1602:Veno-Echo.cpp **** 
1603:Veno-Echo.cpp **** void GetModCV()
1604:Veno-Echo.cpp **** {
1605:Veno-Echo.cpp ****     //get modulation CV input
1606:Veno-Echo.cpp ****     modulation_CV_Raw = scale(hw.adc.GetFloat(6),-1.0f * maxModAmp,maxModAmp,LINEAR);
1607:Veno-Echo.cpp ****     //LPF CV input and ModDepth control
1608:Veno-Echo.cpp **** }
1609:Veno-Echo.cpp **** 
1610:Veno-Echo.cpp **** void Update_Mod()
1611:Veno-Echo.cpp **** {    
1612:Veno-Echo.cpp ****     static float ModDepth_Filtered; 
1613:Veno-Echo.cpp ****     static float modulation_CV{};
1614:Veno-Echo.cpp ****     fonepole(modulation_CV,modulation_CV_Raw,0.01f);
1615:Veno-Echo.cpp ****     fonepole(ModDepth_Filtered,ModDepth,0.01f);
1616:Veno-Echo.cpp ****     //calculate InternalMod
1617:Veno-Echo.cpp ****     float internalmod{lfo.Process() * ModDepth_Filtered};
1618:Veno-Echo.cpp ****     //apply modulation to delay lines
1619:Veno-Echo.cpp ****     delayL.SetModulation(modulation_CV + internalmod);
1620:Veno-Echo.cpp ****     delayR.SetModulation(modulation_CV + internalmod);
1621:Veno-Echo.cpp **** }
1622:Veno-Echo.cpp **** 
1623:Veno-Echo.cpp **** void UpdateClock() //called every sample
1624:Veno-Echo.cpp **** {
1625:Veno-Echo.cpp ****     static int divCounter{};
1626:Veno-Echo.cpp ****     //ClockIn.Debounce();
1627:Veno-Echo.cpp **** 
1628:Veno-Echo.cpp ****     //if clock in pulse received
1629:Veno-Echo.cpp ****     if (ClockIn.Trig())    
1630:Veno-Echo.cpp ****     {   
1631:Veno-Echo.cpp ****         //if clock in range
1632:Veno-Echo.cpp ****         if(BaseTempo.clock())
1633:Veno-Echo.cpp ****         {
1634:Veno-Echo.cpp ****             //update with new clock time
1635:Veno-Echo.cpp ****             tempoLED_BASE.setTempo(BaseTempo.getTapFreq()); //set new base freq (Hz)
1636:Veno-Echo.cpp ****             AltControls.tapLength = BaseTempo.getTapLength();
1637:Veno-Echo.cpp ****             save_flag = true;
1638:Veno-Echo.cpp ****         } 
1639:Veno-Echo.cpp ****         //clock time outside of range
1640:Veno-Echo.cpp ****         else
1641:Veno-Echo.cpp ****         {}
1642:Veno-Echo.cpp ****     }
1643:Veno-Echo.cpp **** }
1644:Veno-Echo.cpp **** 
ARM GAS  /var/folders/0d/2ntwfkp1791d52chq7d_xwdm0000gn/T//cc0vrvH1.s 			page 68


1645:Veno-Echo.cpp **** void Update_Buttons()
1646:Veno-Echo.cpp **** {  
1647:Veno-Echo.cpp ****     static uint32_t shiftTime{};
1648:Veno-Echo.cpp ****     static uint32_t resetTime{};
1649:Veno-Echo.cpp ****     static int buttonstate{};
1650:Veno-Echo.cpp **** 
1651:Veno-Echo.cpp ****     Rev_L_sw.update();
1652:Veno-Echo.cpp ****     Rev_R_sw.update();
1653:Veno-Echo.cpp ****     LPF_sw.update();
1654:Veno-Echo.cpp ****     HPF_sw.update();
1655:Veno-Echo.cpp ****     Tap_Button.update();
1656:Veno-Echo.cpp **** 
1657:Veno-Echo.cpp ****     ReverseGateL.Debounce();
1658:Veno-Echo.cpp ****     ReverseGateR.Debounce();
1659:Veno-Echo.cpp ****     //TapButton.Debounce();
1660:Veno-Echo.cpp ****     Sync.Debounce();
1661:Veno-Echo.cpp ****     //ClockIn.Debounce();
1662:Veno-Echo.cpp ****     //gate inputs
1663:Veno-Echo.cpp ****     if (ReverseGateL.RisingEdge())
1664:Veno-Echo.cpp ****     {
1665:Veno-Echo.cpp ****         Rev_L_sw.toggle();
1666:Veno-Echo.cpp ****         if(Rev_L_sw.getState())
1667:Veno-Echo.cpp ****         {
1668:Veno-Echo.cpp ****             AltControls.L_Rev = 1.0f;
1669:Veno-Echo.cpp ****         }
1670:Veno-Echo.cpp ****         else
1671:Veno-Echo.cpp ****         {
1672:Veno-Echo.cpp ****             AltControls.L_Rev = 0.0f;
1673:Veno-Echo.cpp ****         }
1674:Veno-Echo.cpp ****         save_flag = true;
1675:Veno-Echo.cpp ****     }
1676:Veno-Echo.cpp **** 
1677:Veno-Echo.cpp ****     if (ReverseGateR.RisingEdge())
1678:Veno-Echo.cpp ****     {
1679:Veno-Echo.cpp ****         Rev_R_sw.toggle();
1680:Veno-Echo.cpp ****         if(Rev_R_sw.getState())
1681:Veno-Echo.cpp ****         {
1682:Veno-Echo.cpp ****             AltControls.R_Rev = 1.0f;
1683:Veno-Echo.cpp ****         }
1684:Veno-Echo.cpp ****         else
1685:Veno-Echo.cpp ****         {
1686:Veno-Echo.cpp ****             AltControls.R_Rev = 0.0f;
1687:Veno-Echo.cpp ****         }
1688:Veno-Echo.cpp ****         save_flag = true;
1689:Veno-Echo.cpp ****     }
1690:Veno-Echo.cpp **** 
1691:Veno-Echo.cpp ****     //buttons
1692:Veno-Echo.cpp **** 
1693:Veno-Echo.cpp ****     if (Rev_L_sw.RisingEdge())
1694:Veno-Echo.cpp ****     {
1695:Veno-Echo.cpp ****         buttonstate += 1;
1696:Veno-Echo.cpp ****         if (buttonstate == 3)
1697:Veno-Echo.cpp ****         {
1698:Veno-Echo.cpp ****             resetTime = System::GetNow();
1699:Veno-Echo.cpp ****         }
1700:Veno-Echo.cpp ****         if(Rev_L_sw.getState())
1701:Veno-Echo.cpp ****         {
ARM GAS  /var/folders/0d/2ntwfkp1791d52chq7d_xwdm0000gn/T//cc0vrvH1.s 			page 69


1702:Veno-Echo.cpp ****             AltControls.L_Rev = 1.0f;
1703:Veno-Echo.cpp ****         }
1704:Veno-Echo.cpp ****         else
1705:Veno-Echo.cpp ****         {
1706:Veno-Echo.cpp ****             AltControls.L_Rev = 0.0f;
1707:Veno-Echo.cpp ****         }
1708:Veno-Echo.cpp ****         save_flag = true;
1709:Veno-Echo.cpp ****     }
1710:Veno-Echo.cpp **** 
1711:Veno-Echo.cpp ****     if (Rev_L_sw.FallingEdge())
1712:Veno-Echo.cpp ****     {
1713:Veno-Echo.cpp ****         buttonstate -= 1;
1714:Veno-Echo.cpp ****     }
1715:Veno-Echo.cpp **** 
1716:Veno-Echo.cpp ****     if (Rev_R_sw.RisingEdge())
1717:Veno-Echo.cpp ****     {
1718:Veno-Echo.cpp ****         buttonstate += 1;
1719:Veno-Echo.cpp ****         if (buttonstate == 3)
1720:Veno-Echo.cpp ****         {
1721:Veno-Echo.cpp ****             resetTime = System::GetNow();
1722:Veno-Echo.cpp ****         }
1723:Veno-Echo.cpp ****         if(Rev_R_sw.getState())
1724:Veno-Echo.cpp ****         {
1725:Veno-Echo.cpp ****             AltControls.R_Rev = 1.0f;
1726:Veno-Echo.cpp ****         }
1727:Veno-Echo.cpp ****         else
1728:Veno-Echo.cpp ****         {
1729:Veno-Echo.cpp ****             AltControls.R_Rev = 0.0f;
1730:Veno-Echo.cpp ****         }
1731:Veno-Echo.cpp ****         save_flag = true;
1732:Veno-Echo.cpp ****     }
1733:Veno-Echo.cpp **** 
1734:Veno-Echo.cpp ****     if (Rev_R_sw.FallingEdge())
1735:Veno-Echo.cpp ****     {
1736:Veno-Echo.cpp ****         buttonstate -= 1;
1737:Veno-Echo.cpp ****     }
1738:Veno-Echo.cpp **** 
1739:Veno-Echo.cpp ****     if (Tap_Button.RisingEdge())    
1740:Veno-Echo.cpp ****     {
1741:Veno-Echo.cpp ****         if(BaseTempo.tap()) //if tempo changed
1742:Veno-Echo.cpp ****         {
1743:Veno-Echo.cpp ****             tempoLED_BASE.setTempo(BaseTempo.getTapFreq());
1744:Veno-Echo.cpp ****             AltControls.tapLength = BaseTempo.getTapLength();
1745:Veno-Echo.cpp ****             save_flag = true;
1746:Veno-Echo.cpp ****         }
1747:Veno-Echo.cpp ****         tempoLED_BASE.resetPhase();
1748:Veno-Echo.cpp ****         
1749:Veno-Echo.cpp **** 
1750:Veno-Echo.cpp ****         shiftTime = System::GetNow();   //reset shift timer
1751:Veno-Echo.cpp ****         buttonstate += 1;
1752:Veno-Echo.cpp ****         
1753:Veno-Echo.cpp ****         if (buttonstate == 3)
1754:Veno-Echo.cpp ****         {
1755:Veno-Echo.cpp ****             resetTime = System::GetNow();
1756:Veno-Echo.cpp ****         }
1757:Veno-Echo.cpp **** 
1758:Veno-Echo.cpp ****     }
ARM GAS  /var/folders/0d/2ntwfkp1791d52chq7d_xwdm0000gn/T//cc0vrvH1.s 			page 70


1759:Veno-Echo.cpp **** 
1760:Veno-Echo.cpp ****     if (Tap_Button.FallingEdge())    //when button is let go shift is off
1761:Veno-Echo.cpp ****     {
1762:Veno-Echo.cpp ****         shift = false;
1763:Veno-Echo.cpp ****         buttonstate -= 1;
1764:Veno-Echo.cpp ****         mute = false;
1765:Veno-Echo.cpp ****     }
1766:Veno-Echo.cpp **** 
1767:Veno-Echo.cpp ****     if (Tap_Button.getState())
1768:Veno-Echo.cpp ****     {
1769:Veno-Echo.cpp ****         if ( (System::GetNow() - shiftTime) > shiftWait)
1770:Veno-Echo.cpp ****         {
1771:Veno-Echo.cpp ****             shift = true;   //turn on shift if button held for longer than shiftWait
1772:Veno-Echo.cpp ****         } 
1773:Veno-Echo.cpp ****     }
1774:Veno-Echo.cpp **** 
1775:Veno-Echo.cpp ****     if (buttonstate == 3) //all buttons held
1776:Veno-Echo.cpp ****     {
1777:Veno-Echo.cpp **** 
1778:Veno-Echo.cpp ****             if( ((System::GetNow() - resetTime) > resetWait) )
1779:Veno-Echo.cpp ****             {
1780:Veno-Echo.cpp ****                 Rev_L_sw.toggle();
1781:Veno-Echo.cpp ****                 Rev_R_sw.toggle();
1782:Veno-Echo.cpp ****                 ResetAllLEDs();
1783:Veno-Echo.cpp ****                 //don't let reset or shift update
1784:Veno-Echo.cpp ****                 shift = false;
1785:Veno-Echo.cpp ****                 ApplySettings(defaultAltControls);
1786:Veno-Echo.cpp ****                 AltControls = defaultAltControls;
1787:Veno-Echo.cpp ****                 resetTime = System::GetNow();
1788:Veno-Echo.cpp ****                 save_flag = true;
1789:Veno-Echo.cpp ****             }
1790:Veno-Echo.cpp ****     } 
1791:Veno-Echo.cpp **** 
1792:Veno-Echo.cpp ****     syncMode = Sync.Pressed() ? true : false;
1793:Veno-Echo.cpp **** }
1794:Veno-Echo.cpp **** 
1795:Veno-Echo.cpp **** void Update_DelayBaseTempo() // called every 15 samples
1796:Veno-Echo.cpp **** {
1797:Veno-Echo.cpp ****     uint32_t newTempo{BaseTempo.getDelayLength()};
1798:Veno-Echo.cpp ****     delayL.SetBaseTempo(newTempo);
1799:Veno-Echo.cpp ****     delayR.SetBaseTempo(newTempo);
1800:Veno-Echo.cpp **** }
1801:Veno-Echo.cpp **** 
1802:Veno-Echo.cpp **** void Update_DelayTempoLEDs()
1803:Veno-Echo.cpp **** {    
1804:Veno-Echo.cpp ****     delayL.updateTempoLED(syncMode);
1805:Veno-Echo.cpp ****     delayR.updateTempoLED(syncMode);
1806:Veno-Echo.cpp ****     //DELAYL_DEBUG = delayL.GetDelayTime();
1807:Veno-Echo.cpp ****     //DELAYR_DEBUG = delayR.GetDelayTime();
1808:Veno-Echo.cpp ****     //CLOCK_DEBUG = BaseTempo.getDelayLength();
1809:Veno-Echo.cpp **** }
1810:Veno-Echo.cpp **** 
1811:Veno-Echo.cpp **** void Update_BaseTempoLED()
1812:Veno-Echo.cpp **** {
1813:Veno-Echo.cpp ****     tempoLED_BASE.update();
1814:Veno-Echo.cpp **** 
1815:Veno-Echo.cpp ****     static int phaseCounter{};
ARM GAS  /var/folders/0d/2ntwfkp1791d52chq7d_xwdm0000gn/T//cc0vrvH1.s 			page 71


1816:Veno-Echo.cpp **** 
1817:Veno-Echo.cpp ****     if(tempoLED_BASE.isEOC())
1818:Veno-Echo.cpp ****     {
1819:Veno-Echo.cpp ****         phaseCounter = (phaseCounter + 1) % 6;
1820:Veno-Echo.cpp ****     }
1821:Veno-Echo.cpp **** 
1822:Veno-Echo.cpp ****     float dividedPhase{(tempoLED_BASE.GetPhase() / 6) + ( (TWOPI_F / 6) * phaseCounter ) };
1823:Veno-Echo.cpp ****     //update base phase for both delay lines
1824:Veno-Echo.cpp ****     delayL.SetBasePhase( dividedPhase );
1825:Veno-Echo.cpp ****     delayR.SetBasePhase( dividedPhase );
1826:Veno-Echo.cpp ****     PHASE_DEBUG = dividedPhase;
1827:Veno-Echo.cpp **** }
1828:Veno-Echo.cpp **** 
1829:Veno-Echo.cpp **** 
1830:Veno-Echo.cpp **** void ApplySettings(const Settings &setting)
1831:Veno-Echo.cpp **** {
1832:Veno-Echo.cpp ****     if((setting.RevLength >= minRevDelay) && (setting.RevLength <= maxRevDelay))
1833:Veno-Echo.cpp ****     {
1834:Veno-Echo.cpp ****         delaysL_REV.SetDelayTime(setting.RevLength);
1835:Veno-Echo.cpp ****         delaysR_REV.SetDelayTime(setting.RevLength); 
1836:Veno-Echo.cpp ****     }
1837:Veno-Echo.cpp ****     else
1838:Veno-Echo.cpp ****     {
1839:Veno-Echo.cpp ****         delaysL_REV.SetDelayTime(defaultAltControls.RevLength);
1840:Veno-Echo.cpp ****         delaysR_REV.SetDelayTime(defaultAltControls.RevLength); 
1841:Veno-Echo.cpp ****     }
1842:Veno-Echo.cpp **** 
1843:Veno-Echo.cpp ****     if((setting.tapRatio >= 1.0f) && (setting.tapRatio <= 3.0f ))
1844:Veno-Echo.cpp ****     {
1845:Veno-Echo.cpp ****         BaseTempo.setTapRatio(setting.tapRatio);
1846:Veno-Echo.cpp ****     }
1847:Veno-Echo.cpp ****     else
1848:Veno-Echo.cpp ****     {
1849:Veno-Echo.cpp ****         BaseTempo.setTapRatio(defaultAltControls.tapRatio);
1850:Veno-Echo.cpp ****     }
1851:Veno-Echo.cpp **** 
1852:Veno-Echo.cpp ****     if((setting.ModDepth >= minModDepth) && (setting.ModDepth <= maxModDepth))
1853:Veno-Echo.cpp ****     {
1854:Veno-Echo.cpp ****         ModDepth = setting.ModDepth;
1855:Veno-Echo.cpp ****     }
1856:Veno-Echo.cpp ****     else
1857:Veno-Echo.cpp ****     {
1858:Veno-Echo.cpp ****         ModDepth = defaultAltControls.ModDepth;
1859:Veno-Echo.cpp ****     }
1860:Veno-Echo.cpp **** 
1861:Veno-Echo.cpp ****     if((setting.ModFreq >= minModRate) && (setting.ModFreq <= maxModRate))
1862:Veno-Echo.cpp ****     {
1863:Veno-Echo.cpp ****         lfo.SetFreq(setting.ModFreq);
1864:Veno-Echo.cpp ****     }
1865:Veno-Echo.cpp ****     else
1866:Veno-Echo.cpp ****     {
1867:Veno-Echo.cpp ****         lfo.SetFreq(defaultAltControls.ModFreq);
1868:Veno-Echo.cpp ****     }
1869:Veno-Echo.cpp **** 
1870:Veno-Echo.cpp ****     if((setting.LP_Cutoff >= minLPCut) && (setting.LP_Cutoff <= maxLPCut))
1871:Veno-Echo.cpp ****     {
1872:Veno-Echo.cpp ****         LPF_L.SetFreq(setting.LP_Cutoff);
ARM GAS  /var/folders/0d/2ntwfkp1791d52chq7d_xwdm0000gn/T//cc0vrvH1.s 			page 72


1873:Veno-Echo.cpp ****         LPF_R.SetFreq(setting.LP_Cutoff);
1874:Veno-Echo.cpp ****         LPF_L_post.SetFreq(setting.LP_Cutoff);
1875:Veno-Echo.cpp ****         LPF_R_post.SetFreq(setting.LP_Cutoff);
1876:Veno-Echo.cpp ****     }
1877:Veno-Echo.cpp ****     else
1878:Veno-Echo.cpp ****     {
1879:Veno-Echo.cpp ****         LPF_L.SetFreq(defaultAltControls.LP_Cutoff);
1880:Veno-Echo.cpp ****         LPF_R.SetFreq(defaultAltControls.LP_Cutoff);
1881:Veno-Echo.cpp ****         LPF_L_post.SetFreq(defaultAltControls.LP_Cutoff);
1882:Veno-Echo.cpp ****         LPF_R_post.SetFreq(defaultAltControls.LP_Cutoff);
1883:Veno-Echo.cpp ****     }
1884:Veno-Echo.cpp ****     
1885:Veno-Echo.cpp ****     if((setting.HP_Cutoff >= minHPCut) && (setting.HP_Cutoff <= maxHPCut))
1886:Veno-Echo.cpp ****     {
1887:Veno-Echo.cpp ****         HPF_L.SetFreq(setting.HP_Cutoff);
1888:Veno-Echo.cpp ****         HPF_R.SetFreq(setting.HP_Cutoff);
1889:Veno-Echo.cpp ****         HPF_L_post.SetFreq(setting.HP_Cutoff);
1890:Veno-Echo.cpp ****         HPF_R_post.SetFreq(setting.HP_Cutoff);
1891:Veno-Echo.cpp ****     }
1892:Veno-Echo.cpp ****     else
1893:Veno-Echo.cpp ****     {
1894:Veno-Echo.cpp ****         HPF_L.SetFreq(defaultAltControls.HP_Cutoff);
1895:Veno-Echo.cpp ****         HPF_R.SetFreq(defaultAltControls.HP_Cutoff);
1896:Veno-Echo.cpp ****         HPF_L_post.SetFreq(defaultAltControls.HP_Cutoff);
1897:Veno-Echo.cpp ****         HPF_R_post.SetFreq(defaultAltControls.HP_Cutoff);
1898:Veno-Echo.cpp **** 
1899:Veno-Echo.cpp ****     }
1900:Veno-Echo.cpp **** 
1901:Veno-Echo.cpp ****     if((setting.Resonance >= minRes) && (setting.Resonance <= maxRes))
1902:Veno-Echo.cpp ****     {
1903:Veno-Echo.cpp ****         LPF_L.SetRes(setting.Resonance);
1904:Veno-Echo.cpp ****         HPF_L.SetRes(setting.Resonance);
1905:Veno-Echo.cpp ****         LPF_R.SetRes(setting.Resonance);
1906:Veno-Echo.cpp ****         HPF_R.SetRes(setting.Resonance);
1907:Veno-Echo.cpp ****         LPF_L_post.SetRes(setting.Resonance);
1908:Veno-Echo.cpp ****         HPF_L_post.SetRes(setting.Resonance);
1909:Veno-Echo.cpp ****         LPF_R_post.SetRes(setting.Resonance);
1910:Veno-Echo.cpp ****         HPF_R_post.SetRes(setting.Resonance);
1911:Veno-Echo.cpp ****     }
1912:Veno-Echo.cpp **** 
1913:Veno-Echo.cpp ****     else
1914:Veno-Echo.cpp ****     {
1915:Veno-Echo.cpp ****         LPF_L_post.SetRes(defaultAltControls.Resonance);
1916:Veno-Echo.cpp ****         HPF_L_post.SetRes(defaultAltControls.Resonance);
1917:Veno-Echo.cpp ****         LPF_R_post.SetRes(defaultAltControls.Resonance);
1918:Veno-Echo.cpp ****         HPF_R_post.SetRes(defaultAltControls.Resonance);
1919:Veno-Echo.cpp ****     }
1920:Veno-Echo.cpp **** 
1921:Veno-Echo.cpp ****     if(setting.FilterPrePost < 0.45f)
1922:Veno-Echo.cpp ****     {
1923:Veno-Echo.cpp ****         PostFilters = false;
1924:Veno-Echo.cpp ****     }
1925:Veno-Echo.cpp ****         else if(setting.FilterPrePost > 0.55f)
1926:Veno-Echo.cpp ****     {
1927:Veno-Echo.cpp ****         PostFilters = true;
1928:Veno-Echo.cpp ****     }
1929:Veno-Echo.cpp ****     else
ARM GAS  /var/folders/0d/2ntwfkp1791d52chq7d_xwdm0000gn/T//cc0vrvH1.s 			page 73


1930:Veno-Echo.cpp ****     {
1931:Veno-Echo.cpp ****         PostFilters = false;    //default to pre filter
1932:Veno-Echo.cpp ****     }
1933:Veno-Echo.cpp **** 
1934:Veno-Echo.cpp ****     //if between min and max tap length
1935:Veno-Echo.cpp ****     if( (setting.tapLength >= static_cast<float> (mintap)) 
1936:Veno-Echo.cpp ****         && (setting.tapLength <= static_cast<float> (maxtap)) )
1937:Veno-Echo.cpp ****     {
1938:Veno-Echo.cpp ****         BaseTempo.setTapLength(setting.tapLength);
1939:Veno-Echo.cpp ****         tempoLED_BASE.setTempo(BaseTempo.getTapFreq());
1940:Veno-Echo.cpp ****     }
1941:Veno-Echo.cpp **** 
1942:Veno-Echo.cpp ****     else
1943:Veno-Echo.cpp ****     {
1944:Veno-Echo.cpp ****         BaseTempo.setTapLength(defaultAltControls.tapLength);
1945:Veno-Echo.cpp ****         tempoLED_BASE.setTempo(BaseTempo.getTapFreq());
1946:Veno-Echo.cpp ****     }
1947:Veno-Echo.cpp **** 
1948:Veno-Echo.cpp ****     if((setting.L_Rev > 0.49f)) //if more than half
1949:Veno-Echo.cpp ****     {
1950:Veno-Echo.cpp ****         Rev_L_sw.turnON();
1951:Veno-Echo.cpp ****     }
1952:Veno-Echo.cpp ****     else    //default OFF
1953:Veno-Echo.cpp ****     {
1954:Veno-Echo.cpp ****         Rev_L_sw.turnOFF();
1955:Veno-Echo.cpp ****     }
1956:Veno-Echo.cpp **** 
1957:Veno-Echo.cpp ****     if((setting.R_Rev > 0.49f)) //if more than half
1958:Veno-Echo.cpp ****     {
1959:Veno-Echo.cpp ****         Rev_R_sw.turnON();
1960:Veno-Echo.cpp ****     }
1961:Veno-Echo.cpp ****     else    //default OFF
1962:Veno-Echo.cpp ****     {
1963:Veno-Echo.cpp ****         Rev_R_sw.turnOFF();
1964:Veno-Echo.cpp ****     }
1965:Veno-Echo.cpp **** 
1966:Veno-Echo.cpp **** }
1967:Veno-Echo.cpp **** 
1968:Veno-Echo.cpp **** void TurnOnAllLEDs()
1969:Veno-Echo.cpp **** {
1970:Veno-Echo.cpp ****     tempoLED_BASE.LED_set(1.0f);
1971:Veno-Echo.cpp ****     delayL.tempoled.LED_set(1.0f);
1972:Veno-Echo.cpp ****     delayR.tempoled.LED_set(1.0f);
1973:Veno-Echo.cpp ****     Rev_L_sw.LED_set(1.0f);
1974:Veno-Echo.cpp ****     Rev_R_sw.LED_set(1.0f);
1975:Veno-Echo.cpp ****     LPF_sw.LED_set(1.0f);
1976:Veno-Echo.cpp ****     HPF_sw.LED_set(1.0f);
1977:Veno-Echo.cpp **** }
1978:Veno-Echo.cpp **** 
1979:Veno-Echo.cpp **** void ResetAllLEDs()
1980:Veno-Echo.cpp **** {
1981:Veno-Echo.cpp ****     tempoLED_BASE.LED_set(0.0f);
1982:Veno-Echo.cpp ****     delayL.tempoled.LED_set(0.0f);
1983:Veno-Echo.cpp ****     delayR.tempoled.LED_set(0.0f);
1984:Veno-Echo.cpp ****     if(!Rev_L_sw.getState())
1985:Veno-Echo.cpp ****     {
1986:Veno-Echo.cpp ****         Rev_L_sw.LED_set(0.0f);
ARM GAS  /var/folders/0d/2ntwfkp1791d52chq7d_xwdm0000gn/T//cc0vrvH1.s 			page 74


1987:Veno-Echo.cpp ****     }
1988:Veno-Echo.cpp ****     else
1989:Veno-Echo.cpp ****     {
1990:Veno-Echo.cpp ****        Rev_L_sw.LED_set(1.0f);
1991:Veno-Echo.cpp ****     }
1992:Veno-Echo.cpp **** 
1993:Veno-Echo.cpp ****     if(!Rev_R_sw.getState())
1994:Veno-Echo.cpp ****     {
1995:Veno-Echo.cpp ****         Rev_R_sw.LED_set(0.0f);
1996:Veno-Echo.cpp ****     }
1997:Veno-Echo.cpp ****     else
1998:Veno-Echo.cpp ****     {
1999:Veno-Echo.cpp ****         Rev_R_sw.LED_set(1.0f);
2000:Veno-Echo.cpp ****     }
2001:Veno-Echo.cpp ****     
2002:Veno-Echo.cpp ****     LPF_sw.LED_set(0.0f);
2003:Veno-Echo.cpp ****     HPF_sw.LED_set(0.0f);
2004:Veno-Echo.cpp **** }
2005:Veno-Echo.cpp **** 
2006:Veno-Echo.cpp **** float HardLimit(float input, float limit)
2007:Veno-Echo.cpp **** {
2008:Veno-Echo.cpp ****     float returnval{};
2009:Veno-Echo.cpp ****     if (input > limit)
2010:Veno-Echo.cpp ****         returnval = limit;
2011:Veno-Echo.cpp ****     else if(input < (limit * -1.0f))
2012:Veno-Echo.cpp ****         returnval = limit * -1.0f;
2013:Veno-Echo.cpp ****     else
2014:Veno-Echo.cpp ****         returnval = input;
2015:Veno-Echo.cpp **** 
2016:Veno-Echo.cpp ****     return returnval;   
2017:Veno-Echo.cpp **** }
2018:Veno-Echo.cpp **** 
2019:Veno-Echo.cpp **** float PotCVCombo(float Pot_Val, float CV_Val)
 1168              		.loc 21 2019 7 view .LVU241
 1169              	.LBB1003:
2020:Veno-Echo.cpp **** {
2021:Veno-Echo.cpp ****     float output{};
 1170              		.loc 21 2021 5 view .LVU242
2022:Veno-Echo.cpp ****     output = Pot_Val + (2.0f * ((1.0f - CV_Val) - 0.5f));
 1171              		.loc 21 2022 5 view .LVU243
 1172              	.LBE1003:
 1173              	.LBE1002:
 906:Veno-Echo.cpp ****         }
 1174              		.loc 21 906 36 is_stmt 0 view .LVU244
 1175 0042 6E49     		ldr	r1, .L76+28
 1176              	.LBB1007:
 1177              	.LBB1004:
 1178              		.loc 21 2022 39 view .LVU245
 1179 0044 F7EE006A 		vmov.f32	s13, #1.0e+0
 1180              		.loc 21 2022 49 view .LVU246
 1181 0048 F6EE005A 		vmov.f32	s11, #5.0e-1
 1182              	.LBE1004:
 1183              	.LBE1007:
 906:Veno-Echo.cpp ****         }
 1184              		.loc 21 906 36 view .LVU247
 1185 004c 6C4A     		ldr	r2, .L76+32
 1186              	.LBB1008:
ARM GAS  /var/folders/0d/2ntwfkp1791d52chq7d_xwdm0000gn/T//cc0vrvH1.s 			page 75


 1187              	.LBB1005:
 1188              		.loc 21 2022 39 view .LVU248
 1189 004e 91ED007A 		vldr.32	s14, [r1]
 1190              		.loc 21 2022 12 view .LVU249
 1191 0052 B0EE006A 		vmov.f32	s12, #2.0e+0
 1192 0056 D2ED007A 		vldr.32	s15, [r2]
 1193              		.loc 21 2022 39 view .LVU250
 1194 005a 36EEC77A 		vsub.f32	s14, s13, s14
 1195              		.loc 21 2022 49 view .LVU251
 1196 005e 37EE657A 		vsub.f32	s14, s14, s11
 1197              		.loc 21 2022 12 view .LVU252
 1198 0062 E7EE067A 		vfma.f32	s15, s14, s12
 1199              	.LVL44:
2023:Veno-Echo.cpp **** 
2024:Veno-Echo.cpp ****     if(output < 0.0f)
 1200              		.loc 21 2024 5 is_stmt 1 view .LVU253
 1201 0066 F5EEC07A 		vcmpe.f32	s15, #0
 1202 006a F1EE10FA 		vmrs	APSR_nzcv, FPSCR
 1203 006e 00F1B180 		bmi	.L74
2025:Veno-Echo.cpp ****     {
2026:Veno-Echo.cpp ****         output = 0.0f;
2027:Veno-Echo.cpp ****     }
2028:Veno-Echo.cpp **** 
2029:Veno-Echo.cpp ****     if(output > 1.0f)
 1204              		.loc 21 2029 5 view .LVU254
2030:Veno-Echo.cpp ****     {
2031:Veno-Echo.cpp ****         output = 1.0f;
 1205              		.loc 21 2031 16 is_stmt 0 view .LVU255
 1206 0072 F4EE667A 		vcmp.f32	s15, s13
 1207 0076 F1EE10FA 		vmrs	APSR_nzcv, FPSCR
 1208 007a 76FEA77A 		vselgt.f32	s15, s13, s15
 1209              	.LVL45:
 1210              	.L51:
 1211              		.loc 21 2031 16 view .LVU256
 1212              	.LBE1005:
 1213              	.LBE1008:
 909:Veno-Echo.cpp ****         {
 1214              		.loc 21 909 9 is_stmt 1 view .LVU257
 1215 007e 93B9     		cbnz	r3, .L43
 911:Veno-Echo.cpp ****             {
 1216              		.loc 21 911 13 view .LVU258
 911:Veno-Echo.cpp ****             {
 1217              		.loc 21 911 35 is_stmt 0 view .LVU259
 1218 0080 604B     		ldr	r3, .L76+36
 1219 0082 B0EE670A 		vmov.f32	s0, s15
 1220              	.LVL46:
 911:Veno-Echo.cpp ****             {
 1221              		.loc 21 911 35 view .LVU260
 1222 0086 6048     		ldr	r0, .L76+40
 1223 0088 1978     		ldrb	r1, [r3]	@ zero_extendqisi2
 1224              	.LBE1020:
 1225              	.LBE1075:
 951:Veno-Echo.cpp **** 
 1226              		.loc 21 951 1 view .LVU261
 1227 008a BDE81040 		pop	{r4, lr}
 1228              		.cfi_remember_state
 1229              		.cfi_restore 14
ARM GAS  /var/folders/0d/2ntwfkp1791d52chq7d_xwdm0000gn/T//cc0vrvH1.s 			page 76


 1230              		.cfi_restore 4
 1231              		.cfi_def_cfa_offset 0
 1232              	.LBB1076:
 1233              	.LBB1021:
 911:Veno-Echo.cpp ****             {
 1234              		.loc 21 911 35 view .LVU262
 1235 008e FFF7FEBF 		b	_ZN10DelayMulti12SetDelayTimeEfb
 1236              	.LVL47:
 1237              	.L44:
 1238              		.cfi_restore_state
 911:Veno-Echo.cpp ****             {
 1239              		.loc 21 911 35 view .LVU263
 1240              	.LBE1021:
 1241              	.LBB1022:
 920:Veno-Echo.cpp **** 
 1242              		.loc 21 920 9 is_stmt 1 view .LVU264
 922:Veno-Echo.cpp ****         {
 1243              		.loc 21 922 9 view .LVU265
 1244 0092 1378     		ldrb	r3, [r2]	@ zero_extendqisi2
 1245 0094 002B     		cmp	r3, #0
 1246 0096 3CD1     		bne	.L54
 924:Veno-Echo.cpp ****             Rev_DelayTime_pickup = false;   //set not picked up
 1247              		.loc 21 924 13 view .LVU266
 924:Veno-Echo.cpp ****             Rev_DelayTime_pickup = false;   //set not picked up
 1248              		.loc 21 924 23 is_stmt 0 view .LVU267
 1249 0098 0124     		movs	r4, #1
 925:Veno-Echo.cpp ****             Rev_DelayTime_new = delayTimeL_Pot; //update new value
 1250              		.loc 21 925 34 view .LVU268
 1251 009a 5C48     		ldr	r0, .L76+44
 926:Veno-Echo.cpp ****         }
 1252              		.loc 21 926 31 view .LVU269
 1253 009c 5C49     		ldr	r1, .L76+48
 924:Veno-Echo.cpp ****             Rev_DelayTime_pickup = false;   //set not picked up
 1254              		.loc 21 924 23 view .LVU270
 1255 009e 1470     		strb	r4, [r2]
 925:Veno-Echo.cpp ****             Rev_DelayTime_new = delayTimeL_Pot; //update new value
 1256              		.loc 21 925 13 is_stmt 1 view .LVU271
 925:Veno-Echo.cpp ****             Rev_DelayTime_new = delayTimeL_Pot; //update new value
 1257              		.loc 21 925 34 is_stmt 0 view .LVU272
 1258 00a0 0370     		strb	r3, [r0]
 926:Veno-Echo.cpp ****         }
 1259              		.loc 21 926 13 is_stmt 1 view .LVU273
 926:Veno-Echo.cpp ****         }
 1260              		.loc 21 926 31 is_stmt 0 view .LVU274
 1261 00a2 81ED000A 		vstr.32	s0, [r1]
 1262              	.L43:
 926:Veno-Echo.cpp ****         }
 1263              		.loc 21 926 31 view .LVU275
 1264              	.LBE1022:
 1265              	.LBE1076:
 951:Veno-Echo.cpp **** 
 1266              		.loc 21 951 1 view .LVU276
 1267 00a6 10BD     		pop	{r4, pc}
 1268              	.L45:
 1269              	.LBB1077:
 1270              	.LBB1070:
 887:Veno-Echo.cpp ****             {
ARM GAS  /var/folders/0d/2ntwfkp1791d52chq7d_xwdm0000gn/T//cc0vrvH1.s 			page 77


 1271              		.loc 21 887 13 is_stmt 1 view .LVU277
 887:Veno-Echo.cpp ****             {
 1272              		.loc 21 887 16 is_stmt 0 view .LVU278
 1273 00a8 524A     		ldr	r2, .L76+20
 887:Veno-Echo.cpp ****             {
 1274              		.loc 21 887 13 view .LVU279
 1275 00aa 1178     		ldrb	r1, [r2]	@ zero_extendqisi2
 1276 00ac 79B9     		cbnz	r1, .L47
 889:Veno-Echo.cpp ****                 {
 1277              		.loc 21 889 17 is_stmt 1 view .LVU280
 1278              	.LVL48:
 1279              	.LBB1009:
 1280              	.LBI1009:
  75:/usr/local/Cellar/arm-none-eabi-gcc/9-2019-q4-major/gcc/arm-none-eabi/include/c++/9.2.1/bits/std_abs.h ****   { return __builtin_fabsf(__x); }
 1281              		.loc 22 75 3 view .LVU281
 1282              	.LBB1010:
 1283              		.loc 22 76 5 view .LVU282
 1284              		.loc 22 76 5 is_stmt 0 view .LVU283
 1285              	.LBE1010:
 1286              	.LBE1009:
 889:Veno-Echo.cpp ****                 {
 1287              		.loc 21 889 23 view .LVU284
 1288 00ae 5249     		ldr	r1, .L76+24
 889:Veno-Echo.cpp ****                 {
 1289              		.loc 21 889 17 view .LVU285
 1290 00b0 9FED587A 		vldr.32	s14, .L76+52
 889:Veno-Echo.cpp ****                 {
 1291              		.loc 21 889 23 view .LVU286
 1292 00b4 D1ED007A 		vldr.32	s15, [r1]
 1293 00b8 70EE677A 		vsub.f32	s15, s0, s15
 1294              	.LBB1012:
 1295              	.LBB1011:
 1296              		.loc 22 76 31 view .LVU287
 1297 00bc F0EEE77A 		vabs.f32	s15, s15
 1298              	.LBE1011:
 1299              	.LBE1012:
 889:Veno-Echo.cpp ****                 {
 1300              		.loc 21 889 17 view .LVU288
 1301 00c0 F4EEC77A 		vcmpe.f32	s15, s14
 1302 00c4 F1EE10FA 		vmrs	APSR_nzcv, FPSCR
 1303 00c8 BBDD     		ble	.L46
 891:Veno-Echo.cpp ****                 }
 1304              		.loc 21 891 21 is_stmt 1 view .LVU289
 891:Veno-Echo.cpp ****                 }
 1305              		.loc 21 891 39 is_stmt 0 view .LVU290
 1306 00ca 0121     		movs	r1, #1
 1307 00cc 1170     		strb	r1, [r2]
 1308              	.L47:
 896:Veno-Echo.cpp **** 
 1309              		.loc 21 896 9 is_stmt 1 view .LVU291
 1310              	.LVL49:
 898:Veno-Echo.cpp ****         {
 1311              		.loc 21 898 9 view .LVU292
 900:Veno-Echo.cpp ****             delayTimeL_Last = delayTimeL_Pot; //update last value
 1312              		.loc 21 900 13 view .LVU293
 1313              	.LBB1013:
 1314              	.LBI1013:
ARM GAS  /var/folders/0d/2ntwfkp1791d52chq7d_xwdm0000gn/T//cc0vrvH1.s 			page 78


2019:Veno-Echo.cpp **** {
 1315              		.loc 21 2019 7 view .LVU294
 1316              	.LBB1014:
2021:Veno-Echo.cpp ****     output = Pot_Val + (2.0f * ((1.0f - CV_Val) - 0.5f));
 1317              		.loc 21 2021 5 view .LVU295
2022:Veno-Echo.cpp **** 
 1318              		.loc 21 2022 5 view .LVU296
 1319              	.LBE1014:
 1320              	.LBE1013:
 900:Veno-Echo.cpp ****             delayTimeL_Last = delayTimeL_Pot; //update last value
 1321              		.loc 21 900 36 is_stmt 0 view .LVU297
 1322 00ce 4B4A     		ldr	r2, .L76+28
 1323              	.LBB1017:
 1324              	.LBB1015:
2022:Veno-Echo.cpp **** 
 1325              		.loc 21 2022 39 view .LVU298
 1326 00d0 B7EE007A 		vmov.f32	s14, #1.0e+0
2022:Veno-Echo.cpp **** 
 1327              		.loc 21 2022 49 view .LVU299
 1328 00d4 B6EE006A 		vmov.f32	s12, #5.0e-1
2022:Veno-Echo.cpp **** 
 1329              		.loc 21 2022 39 view .LVU300
 1330 00d8 D2ED007A 		vldr.32	s15, [r2]
2022:Veno-Echo.cpp **** 
 1331              		.loc 21 2022 12 view .LVU301
 1332 00dc F0EE006A 		vmov.f32	s13, #2.0e+0
2022:Veno-Echo.cpp **** 
 1333              		.loc 21 2022 39 view .LVU302
 1334 00e0 77EE677A 		vsub.f32	s15, s14, s15
2022:Veno-Echo.cpp **** 
 1335              		.loc 21 2022 49 view .LVU303
 1336 00e4 77EEC67A 		vsub.f32	s15, s15, s12
2022:Veno-Echo.cpp **** 
 1337              		.loc 21 2022 12 view .LVU304
 1338 00e8 B0EE406A 		vmov.f32	s12, s0
 1339 00ec A7EEA66A 		vfma.f32	s12, s15, s13
2024:Veno-Echo.cpp ****     {
 1340              		.loc 21 2024 5 view .LVU305
 1341 00f0 B5EEC06A 		vcmpe.f32	s12, #0
2022:Veno-Echo.cpp **** 
 1342              		.loc 21 2022 12 view .LVU306
 1343 00f4 F0EE467A 		vmov.f32	s15, s12
 1344              	.LVL50:
2024:Veno-Echo.cpp ****     {
 1345              		.loc 21 2024 5 is_stmt 1 view .LVU307
 1346 00f8 F1EE10FA 		vmrs	APSR_nzcv, FPSCR
 1347 00fc 6DD4     		bmi	.L75
2029:Veno-Echo.cpp ****     {
 1348              		.loc 21 2029 5 view .LVU308
 1349              		.loc 21 2031 16 is_stmt 0 view .LVU309
 1350 00fe F4EE477A 		vcmp.f32	s15, s14
 1351 0102 F1EE10FA 		vmrs	APSR_nzcv, FPSCR
 1352 0106 77FE277A 		vselgt.f32	s15, s14, s15
 1353              	.L49:
 1354              	.LVL51:
2032:Veno-Echo.cpp ****     }
2033:Veno-Echo.cpp **** 
ARM GAS  /var/folders/0d/2ntwfkp1791d52chq7d_xwdm0000gn/T//cc0vrvH1.s 			page 79


2034:Veno-Echo.cpp ****     return output;
 1355              		.loc 21 2034 5 is_stmt 1 view .LVU310
 1356              		.loc 21 2034 5 is_stmt 0 view .LVU311
 1357              	.LBE1015:
 1358              	.LBE1017:
 901:Veno-Echo.cpp ****         }
 1359              		.loc 21 901 13 is_stmt 1 view .LVU312
 901:Veno-Echo.cpp ****         }
 1360              		.loc 21 901 29 is_stmt 0 view .LVU313
 1361 010a 3D4A     		ldr	r2, .L76+32
 1362 010c 82ED000A 		vstr.32	s0, [r2]
 1363 0110 B5E7     		b	.L51
 1364              	.LVL52:
 1365              	.L54:
 901:Veno-Echo.cpp ****         }
 1366              		.loc 21 901 29 view .LVU314
 1367              	.LBE1070:
 1368              	.LBB1071:
 931:Veno-Echo.cpp ****             {
 1369              		.loc 21 931 13 is_stmt 1 view .LVU315
 931:Veno-Echo.cpp ****             {
 1370              		.loc 21 931 16 is_stmt 0 view .LVU316
 1371 0112 3E4B     		ldr	r3, .L76+44
 931:Veno-Echo.cpp ****             {
 1372              		.loc 21 931 13 view .LVU317
 1373 0114 1A78     		ldrb	r2, [r3]	@ zero_extendqisi2
 1374 0116 7AB9     		cbnz	r2, .L55
 933:Veno-Echo.cpp ****                 {
 1375              		.loc 21 933 17 is_stmt 1 view .LVU318
 1376              	.LVL53:
 1377              	.LBB1023:
 1378              	.LBI1023:
  75:/usr/local/Cellar/arm-none-eabi-gcc/9-2019-q4-major/gcc/arm-none-eabi/include/c++/9.2.1/bits/std_abs.h ****   { return __builtin_fabsf(__x); }
 1379              		.loc 22 75 3 view .LVU319
 1380              	.LBB1024:
 1381              		.loc 22 76 5 view .LVU320
 1382              		.loc 22 76 5 is_stmt 0 view .LVU321
 1383              	.LBE1024:
 1384              	.LBE1023:
 933:Veno-Echo.cpp ****                 {
 1385              		.loc 21 933 23 view .LVU322
 1386 0118 3D4A     		ldr	r2, .L76+48
 933:Veno-Echo.cpp ****                 {
 1387              		.loc 21 933 17 view .LVU323
 1388 011a 9FED3E7A 		vldr.32	s14, .L76+52
 933:Veno-Echo.cpp ****                 {
 1389              		.loc 21 933 23 view .LVU324
 1390 011e D2ED007A 		vldr.32	s15, [r2]
 1391 0122 70EE677A 		vsub.f32	s15, s0, s15
 1392              	.LBB1026:
 1393              	.LBB1025:
 1394              		.loc 22 76 31 view .LVU325
 1395 0126 F0EEE77A 		vabs.f32	s15, s15
 1396              	.LBE1025:
 1397              	.LBE1026:
 933:Veno-Echo.cpp ****                 {
 1398              		.loc 21 933 17 view .LVU326
ARM GAS  /var/folders/0d/2ntwfkp1791d52chq7d_xwdm0000gn/T//cc0vrvH1.s 			page 80


 1399 012a F4EEC77A 		vcmpe.f32	s15, s14
 1400 012e F1EE10FA 		vmrs	APSR_nzcv, FPSCR
 1401 0132 B8DD     		ble	.L43
 935:Veno-Echo.cpp ****                 }
 1402              		.loc 21 935 21 is_stmt 1 view .LVU327
 935:Veno-Echo.cpp ****                 }
 1403              		.loc 21 935 42 is_stmt 0 view .LVU328
 1404 0134 0122     		movs	r2, #1
 1405 0136 1A70     		strb	r2, [r3]
 1406              	.L55:
 940:Veno-Echo.cpp ****         {
 1407              		.loc 21 940 9 is_stmt 1 view .LVU329
 1408              	.LBB1027:
 942:Veno-Echo.cpp ****             delaysL_REV.SetDelayTime(Rev_DelayTime);
 1409              		.loc 21 942 13 view .LVU330
 942:Veno-Echo.cpp ****             delaysL_REV.SetDelayTime(Rev_DelayTime);
 1410              		.loc 21 942 38 is_stmt 0 view .LVU331
 1411 0138 0120     		movs	r0, #1
 1412 013a 9FED371A 		vldr.32	s2, .L76+56
 1413 013e DFED370A 		vldr.32	s1, .L76+60
 1414 0142 FFF7FEFF 		bl	_Z5scalefff9CurveType
 1415              	.LVL54:
 1416              	.LBB1028:
 1417              	.LBB1029:
  70:Veno-Echo.cpp ****         //only update if more than 0.5% of last value
 1418              		.loc 21 70 28 view .LVU332
 1419 0146 364B     		ldr	r3, .L76+64
 1420              	.LVL55:
  70:Veno-Echo.cpp ****         //only update if more than 0.5% of last value
 1421              		.loc 21 70 28 view .LVU333
 1422              	.LBE1029:
 1423              	.LBE1028:
 943:Veno-Echo.cpp ****             delaysR_REV.SetDelayTime(Rev_DelayTime); 
 1424              		.loc 21 943 13 is_stmt 1 view .LVU334
 1425              	.LBB1043:
 1426              	.LBI1028:
  68:Veno-Echo.cpp ****     {
 1427              		.loc 21 68 10 view .LVU335
 1428              	.LBB1041:
  70:Veno-Echo.cpp ****         //only update if more than 0.5% of last value
 1429              		.loc 21 70 9 view .LVU336
  70:Veno-Echo.cpp ****         //only update if more than 0.5% of last value
 1430              		.loc 21 70 53 is_stmt 0 view .LVU337
 1431 0148 DFED326A 		vldr.32	s13, .L76+52
  70:Veno-Echo.cpp ****         //only update if more than 0.5% of last value
 1432              		.loc 21 70 28 view .LVU338
 1433 014c D3ED017A 		vldr.32	s15, [r3, #4]
 1434              	.LVL56:
 1435              	.LBB1030:
 1436              	.LBI1030:
  75:/usr/local/Cellar/arm-none-eabi-gcc/9-2019-q4-major/gcc/arm-none-eabi/include/c++/9.2.1/bits/std_abs.h ****   { return __builtin_fabsf(__x); }
 1437              		.loc 22 75 3 is_stmt 1 view .LVU339
 1438              	.LBB1031:
 1439              		.loc 22 76 5 view .LVU340
 1440              		.loc 22 76 5 is_stmt 0 view .LVU341
 1441              	.LBE1031:
 1442              	.LBE1030:
ARM GAS  /var/folders/0d/2ntwfkp1791d52chq7d_xwdm0000gn/T//cc0vrvH1.s 			page 81


  70:Veno-Echo.cpp ****         //only update if more than 0.5% of last value
 1443              		.loc 21 70 15 view .LVU342
 1444 0150 30EE677A 		vsub.f32	s14, s0, s15
  70:Veno-Echo.cpp ****         //only update if more than 0.5% of last value
 1445              		.loc 21 70 53 view .LVU343
 1446 0154 67EEA67A 		vmul.f32	s15, s15, s13
 1447              	.LBB1033:
 1448              	.LBB1032:
 1449              		.loc 22 76 31 view .LVU344
 1450 0158 B0EEC77A 		vabs.f32	s14, s14
 1451              	.LBE1032:
 1452              	.LBE1033:
  70:Veno-Echo.cpp ****         //only update if more than 0.5% of last value
 1453              		.loc 21 70 9 view .LVU345
 1454 015c B4EEE77A 		vcmpe.f32	s14, s15
 1455 0160 F1EE10FA 		vmrs	APSR_nzcv, FPSCR
 1456 0164 0DDD     		ble	.L63
  74:Veno-Echo.cpp ****             //del -> Reset();
 1457              		.loc 21 74 29 view .LVU346
 1458 0166 FCEEC07A 		vcvt.u32.f32	s15, s0
 1459              	.LBB1034:
 1460              	.LBB1035:
 1461              		.loc 20 72 9 view .LVU347
 1462 016a 2E4C     		ldr	r4, .L76+68
 1463              	.LBE1035:
 1464              	.LBE1034:
 1465              	.LBE1041:
 1466              	.LBE1043:
 943:Veno-Echo.cpp ****             delaysR_REV.SetDelayTime(Rev_DelayTime); 
 1467              		.loc 21 943 37 view .LVU348
 1468 016c 1968     		ldr	r1, [r3]
 1469              	.LBB1044:
 1470              	.LBB1042:
  73:Veno-Echo.cpp ****             del -> SetDelay1(static_cast<size_t>(currentDelay_));
 1471              		.loc 21 73 13 is_stmt 1 view .LVU349
 1472              	.LBB1038:
 1473              	.LBB1036:
  71:delayline_reverse.h ****         delay1_ = delay < max_size ? delay : max_size - 1;
 1474              		.loc 20 71 9 is_stmt 0 view .LVU350
 1475 016e 0020     		movs	r0, #0
 1476              	.LBE1036:
 1477              	.LBE1038:
  73:Veno-Echo.cpp ****             del -> SetDelay1(static_cast<size_t>(currentDelay_));
 1478              		.loc 21 73 27 view .LVU351
 1479 0170 83ED010A 		vstr.32	s0, [r3, #4]
  74:Veno-Echo.cpp ****             //del -> Reset();
 1480              		.loc 21 74 13 is_stmt 1 view .LVU352
 1481              	.LVL57:
 1482              	.LBB1039:
 1483              	.LBI1034:
  69:delayline_reverse.h ****     {
 1484              		.loc 20 69 17 view .LVU353
  69:delayline_reverse.h ****     {
 1485              		.loc 20 69 17 is_stmt 0 view .LVU354
 1486              	.LBE1039:
  74:Veno-Echo.cpp ****             //del -> Reset();
 1487              		.loc 21 74 29 view .LVU355
ARM GAS  /var/folders/0d/2ntwfkp1791d52chq7d_xwdm0000gn/T//cc0vrvH1.s 			page 82


 1488 0174 17EE902A 		vmov	r2, s15	@ int
 1489              	.LBB1040:
 1490              	.LBB1037:
  71:delayline_reverse.h ****         delay1_ = delay < max_size ? delay : max_size - 1;
 1491              		.loc 20 71 9 view .LVU356
 1492 0178 0860     		str	r0, [r1]	@ float
 1493              		.loc 20 72 9 view .LVU357
 1494 017a A242     		cmp	r2, r4
 1495 017c 28BF     		it	cs
 1496 017e 2246     		movcs	r2, r4
 1497 0180 0A61     		str	r2, [r1, #16]
 1498              	.LVL58:
 1499              	.L63:
 1500              		.loc 20 72 9 view .LVU358
 1501              	.LBE1037:
 1502              	.LBE1040:
 1503              	.LBE1042:
 1504              	.LBE1044:
 944:Veno-Echo.cpp ****             //save setting:
 1505              		.loc 21 944 13 is_stmt 1 view .LVU359
 1506              	.LBB1045:
 1507              	.LBI1045:
  68:Veno-Echo.cpp ****     {
 1508              		.loc 21 68 10 view .LVU360
 1509              	.LBB1046:
  70:Veno-Echo.cpp ****         //only update if more than 0.5% of last value
 1510              		.loc 21 70 9 view .LVU361
  70:Veno-Echo.cpp ****         //only update if more than 0.5% of last value
 1511              		.loc 21 70 28 is_stmt 0 view .LVU362
 1512 0182 294B     		ldr	r3, .L76+72
  70:Veno-Echo.cpp ****         //only update if more than 0.5% of last value
 1513              		.loc 21 70 53 view .LVU363
 1514 0184 DFED236A 		vldr.32	s13, .L76+52
  70:Veno-Echo.cpp ****         //only update if more than 0.5% of last value
 1515              		.loc 21 70 28 view .LVU364
 1516 0188 D3ED017A 		vldr.32	s15, [r3, #4]
 1517              	.LVL59:
 1518              	.LBB1047:
 1519              	.LBI1047:
  75:/usr/local/Cellar/arm-none-eabi-gcc/9-2019-q4-major/gcc/arm-none-eabi/include/c++/9.2.1/bits/std_abs.h ****   { return __builtin_fabsf(__x); }
 1520              		.loc 22 75 3 is_stmt 1 view .LVU365
 1521              	.LBB1048:
 1522              		.loc 22 76 5 view .LVU366
 1523              		.loc 22 76 5 is_stmt 0 view .LVU367
 1524              	.LBE1048:
 1525              	.LBE1047:
  70:Veno-Echo.cpp ****         //only update if more than 0.5% of last value
 1526              		.loc 21 70 15 view .LVU368
 1527 018c 30EE677A 		vsub.f32	s14, s0, s15
  70:Veno-Echo.cpp ****         //only update if more than 0.5% of last value
 1528              		.loc 21 70 53 view .LVU369
 1529 0190 67EEA67A 		vmul.f32	s15, s15, s13
 1530              	.LBB1050:
 1531              	.LBB1049:
 1532              		.loc 22 76 31 view .LVU370
 1533 0194 B0EEC77A 		vabs.f32	s14, s14
 1534              	.LBE1049:
ARM GAS  /var/folders/0d/2ntwfkp1791d52chq7d_xwdm0000gn/T//cc0vrvH1.s 			page 83


 1535              	.LBE1050:
  70:Veno-Echo.cpp ****         //only update if more than 0.5% of last value
 1536              		.loc 21 70 9 view .LVU371
 1537 0198 B4EEE77A 		vcmpe.f32	s14, s15
 1538 019c F1EE10FA 		vmrs	APSR_nzcv, FPSCR
 1539 01a0 0DDD     		ble	.L57
  74:Veno-Echo.cpp ****             //del -> Reset();
 1540              		.loc 21 74 29 view .LVU372
 1541 01a2 FCEEC07A 		vcvt.u32.f32	s15, s0
 1542              	.LBB1051:
 1543              	.LBB1052:
 1544              		.loc 20 72 9 view .LVU373
 1545 01a6 1F4C     		ldr	r4, .L76+68
 1546              	.LBE1052:
 1547              	.LBE1051:
 1548              	.LBE1046:
 1549              	.LBE1045:
 944:Veno-Echo.cpp ****             //save setting:
 1550              		.loc 21 944 37 view .LVU374
 1551 01a8 1968     		ldr	r1, [r3]
 1552              	.LBB1059:
 1553              	.LBB1058:
  73:Veno-Echo.cpp ****             del -> SetDelay1(static_cast<size_t>(currentDelay_));
 1554              		.loc 21 73 13 is_stmt 1 view .LVU375
 1555              	.LBB1055:
 1556              	.LBB1053:
  71:delayline_reverse.h ****         delay1_ = delay < max_size ? delay : max_size - 1;
 1557              		.loc 20 71 9 is_stmt 0 view .LVU376
 1558 01aa 0020     		movs	r0, #0
 1559              	.LBE1053:
 1560              	.LBE1055:
  73:Veno-Echo.cpp ****             del -> SetDelay1(static_cast<size_t>(currentDelay_));
 1561              		.loc 21 73 27 view .LVU377
 1562 01ac 83ED010A 		vstr.32	s0, [r3, #4]
  74:Veno-Echo.cpp ****             //del -> Reset();
 1563              		.loc 21 74 13 is_stmt 1 view .LVU378
 1564              	.LVL60:
 1565              	.LBB1056:
 1566              	.LBI1051:
  69:delayline_reverse.h ****     {
 1567              		.loc 20 69 17 view .LVU379
  69:delayline_reverse.h ****     {
 1568              		.loc 20 69 17 is_stmt 0 view .LVU380
 1569              	.LBE1056:
  74:Veno-Echo.cpp ****             //del -> Reset();
 1570              		.loc 21 74 29 view .LVU381
 1571 01b0 17EE902A 		vmov	r2, s15	@ int
 1572              	.LBB1057:
 1573              	.LBB1054:
  71:delayline_reverse.h ****         delay1_ = delay < max_size ? delay : max_size - 1;
 1574              		.loc 20 71 9 view .LVU382
 1575 01b4 0860     		str	r0, [r1]	@ float
 1576              		.loc 20 72 9 view .LVU383
 1577 01b6 A242     		cmp	r2, r4
 1578 01b8 28BF     		it	cs
 1579 01ba 2246     		movcs	r2, r4
 1580 01bc 0A61     		str	r2, [r1, #16]
ARM GAS  /var/folders/0d/2ntwfkp1791d52chq7d_xwdm0000gn/T//cc0vrvH1.s 			page 84


 1581              	.LVL61:
 1582              	.L57:
 1583              		.loc 20 72 9 view .LVU384
 1584              	.LBE1054:
 1585              	.LBE1057:
 1586              	.LBE1058:
 1587              	.LBE1059:
 946:Veno-Echo.cpp ****             save_flag = true;
 1588              		.loc 21 946 13 is_stmt 1 view .LVU385
 946:Veno-Echo.cpp ****             save_flag = true;
 1589              		.loc 21 946 35 is_stmt 0 view .LVU386
 1590 01be 1B49     		ldr	r1, .L76+76
 1591              	.LBB1060:
 1592              	.LBB1061:
 1593              	.LBB1062:
 1594              	.LBB1063:
 1595              	.LBB1064:
 1596              		.file 23 "/usr/local/Cellar/arm-none-eabi-gcc/9-2019-q4-major/gcc/arm-none-eabi/include/c++/9.2.1/
   1:/usr/local/Cellar/arm-none-eabi-gcc/9-2019-q4-major/gcc/arm-none-eabi/include/c++/9.2.1/bits/atomic_base.h **** // -*- C++ -*- header.
   2:/usr/local/Cellar/arm-none-eabi-gcc/9-2019-q4-major/gcc/arm-none-eabi/include/c++/9.2.1/bits/atomic_base.h **** 
   3:/usr/local/Cellar/arm-none-eabi-gcc/9-2019-q4-major/gcc/arm-none-eabi/include/c++/9.2.1/bits/atomic_base.h **** // Copyright (C) 2008-2019 Free Software Foundation, Inc.
   4:/usr/local/Cellar/arm-none-eabi-gcc/9-2019-q4-major/gcc/arm-none-eabi/include/c++/9.2.1/bits/atomic_base.h **** //
   5:/usr/local/Cellar/arm-none-eabi-gcc/9-2019-q4-major/gcc/arm-none-eabi/include/c++/9.2.1/bits/atomic_base.h **** // This file is part of the GNU ISO C++ Library.  This library is free
